GAS LISTING /tmp/cchFZ4o5.s 			page 1


   1               		.file	"lcd.c"
   2               	__SP_H__ = 0x3e
   3               	__SP_L__ = 0x3d
   4               	__SREG__ = 0x3f
   5               	__tmp_reg__ = 0
   6               	__zero_reg__ = 1
   7               		.text
   8               	.Ltext0:
   9               		.cfi_sections	.debug_frame
  10               		.file 0 "/home/kaicho/Documents/Southampton/D5/lcdtest/lcdlib" "lcd.c"
  11               	.global	init_lcd
  12               		.type	init_lcd, @function
  13               	init_lcd:
  14               	.LFB1:
  15               		.file 1 "lcd.c"
   1:lcd.c         **** /*  Author: Steve Gunn
   2:lcd.c         ****  * Licence: This work is licensed under the Creative Commons Attribution License.
   3:lcd.c         ****  *           View this license at http://creativecommons.org/about/licenses/
   4:lcd.c         ****  */
   5:lcd.c         ****  
   6:lcd.c         **** #include "ili934x.h"
   7:lcd.c         **** #include "font.h"
   8:lcd.c         **** #include "graphics.h"
   9:lcd.c         **** #include "lcd.h"
  10:lcd.c         **** 
  11:lcd.c         **** lcd display = {LCDWIDTH, LCDHEIGHT, North, 0, 0, 0x20E4, 0xFF99};
  12:lcd.c         **** 
  13:lcd.c         **** void init_lcd()
  14:lcd.c         **** {
  16               		.loc 1 14 1 view -0
  17               		.cfi_startproc
  18               	/* prologue: function */
  19               	/* frame size = 0 */
  20               	/* stack size = 0 */
  21               	.L__stack_usage = 0
  15:lcd.c         **** 	/* Disable JTAG in software, so that it does not interfere with Port C  */
  16:lcd.c         **** 	/* It will be re-enabled after a power cycle if the JTAGEN fuse is set. */
  17:lcd.c         **** 	MCUCR |= (1<<JTD);
  22               		.loc 1 17 2 view .LVU1
  23 0000 85B7      		in r24,0x35
  24               		.loc 1 17 8 is_stmt 0 view .LVU2
  25 0002 8068      		ori r24,lo8(-128)
  26 0004 85BF      		out 0x35,r24
  18:lcd.c         **** 	MCUCR |= (1<<JTD);
  27               		.loc 1 18 2 is_stmt 1 view .LVU3
  28 0006 85B7      		in r24,0x35
  29               		.loc 1 18 8 is_stmt 0 view .LVU4
  30 0008 8068      		ori r24,lo8(-128)
  31 000a 85BF      		out 0x35,r24
  19:lcd.c         **** 	
  20:lcd.c         **** 	/* Configure ports */
  21:lcd.c         **** 	CTRL_DDR = 0x7F;
  32               		.loc 1 21 2 is_stmt 1 view .LVU5
  33               		.loc 1 21 11 is_stmt 0 view .LVU6
  34 000c 8FE7      		ldi r24,lo8(127)
  35 000e 87B9      		out 0x7,r24
  22:lcd.c         **** 	// PIN 7 on the control port is an input.
GAS LISTING /tmp/cchFZ4o5.s 			page 2


  23:lcd.c         **** 	DATA_DDR = 0xFF;
  36               		.loc 1 23 2 is_stmt 1 view .LVU7
  37               		.loc 1 23 11 is_stmt 0 view .LVU8
  38 0010 8FEF      		ldi r24,lo8(-1)
  39 0012 84B9      		out 0x4,r24
  24:lcd.c         **** 	
  25:lcd.c         **** 	init_display_controller();
  40               		.loc 1 25 2 is_stmt 1 view .LVU9
  41 0014 0C94 0000 		jmp init_display_controller
  42               	.LVL0:
  43               		.cfi_endproc
  44               	.LFE1:
  45               		.size	init_lcd, .-init_lcd
  46               	.global	set_orientation
  47               		.type	set_orientation, @function
  48               	set_orientation:
  49               	.LVL1:
  50               	.LFB2:
  26:lcd.c         **** }
  27:lcd.c         **** 
  28:lcd.c         **** void set_orientation(orientation o)
  29:lcd.c         **** {
  51               		.loc 1 29 1 view -0
  52               		.cfi_startproc
  53               	/* prologue: function */
  54               	/* frame size = 0 */
  55               	/* stack size = 0 */
  56               	.L__stack_usage = 0
  57               		.loc 1 29 1 is_stmt 0 view .LVU11
  58 0018 9C01      		movw r18,r24
  30:lcd.c         **** 	display.orient = o;
  59               		.loc 1 30 2 is_stmt 1 view .LVU12
  60               		.loc 1 30 17 is_stmt 0 view .LVU13
  61 001a 9093 0000 		sts display+4+1,r25
  62 001e 8093 0000 		sts display+4,r24
  31:lcd.c         **** 	write_cmd(MEMORY_ACCESS_CONTROL);
  63               		.loc 1 31 2 is_stmt 1 view .LVU14
  64 0022 4498      		cbi 0x8,4
  65               		.loc 1 31 2 view .LVU15
  66 0024 86E3      		ldi r24,lo8(54)
  67               	.LVL2:
  68               		.loc 1 31 2 is_stmt 0 view .LVU16
  69 0026 85B9      		out 0x5,r24
  70               		.loc 1 31 2 is_stmt 1 view .LVU17
  71 0028 4398      		cbi 0x8,3
  72               		.loc 1 31 2 view .LVU18
  73 002a 439A      		sbi 0x8,3
  74               		.loc 1 31 2 view .LVU19
  75 002c 449A      		sbi 0x8,4
  76               		.loc 1 31 34 view .LVU20
  32:lcd.c         **** 	if (o==North) { 
  77               		.loc 1 32 2 view .LVU21
  78               		.loc 1 32 5 is_stmt 0 view .LVU22
  79 002e 2115      		cp r18,__zero_reg__
  80 0030 3105      		cpc r19,__zero_reg__
  81 0032 01F0      		breq .+2
  82 0034 00C0      		rjmp .L3
GAS LISTING /tmp/cchFZ4o5.s 			page 3


  33:lcd.c         **** 		display.width = LCDWIDTH;
  83               		.loc 1 33 3 is_stmt 1 view .LVU23
  84               		.loc 1 33 17 is_stmt 0 view .LVU24
  85 0036 80EF      		ldi r24,lo8(-16)
  86 0038 90E0      		ldi r25,0
  87 003a 9093 0000 		sts display+1,r25
  88 003e 8093 0000 		sts display,r24
  34:lcd.c         **** 		display.height = LCDHEIGHT;
  89               		.loc 1 34 3 is_stmt 1 view .LVU25
  90               		.loc 1 34 18 is_stmt 0 view .LVU26
  91 0042 80E4      		ldi r24,lo8(64)
  92 0044 91E0      		ldi r25,lo8(1)
  93 0046 9093 0000 		sts display+2+1,r25
  94 004a 8093 0000 		sts display+2,r24
  35:lcd.c         **** 		write_data(0x48);
  95               		.loc 1 35 3 is_stmt 1 view .LVU27
  96 004e 88E4      		ldi r24,lo8(72)
  97               	.L7:
  36:lcd.c         **** 	}
  37:lcd.c         **** 	else if (o==West) {
  38:lcd.c         **** 		display.width = LCDHEIGHT;
  39:lcd.c         **** 		display.height = LCDWIDTH;
  40:lcd.c         **** 		write_data(0xE8);
  41:lcd.c         **** 	}
  42:lcd.c         **** 	else if (o==South) {
  43:lcd.c         **** 		display.width = LCDWIDTH;
  44:lcd.c         **** 		display.height = LCDHEIGHT;
  45:lcd.c         **** 		write_data(0x88);
  46:lcd.c         **** 	}
  47:lcd.c         **** 	else if (o==East) {
  48:lcd.c         **** 		display.width = LCDHEIGHT;
  49:lcd.c         **** 		display.height = LCDWIDTH;
  50:lcd.c         **** 		write_data(0x28);
  98               		.loc 1 50 3 is_stmt 0 view .LVU28
  99 0050 85B9      		out 0x5,r24
 100               		.loc 1 50 3 is_stmt 1 view .LVU29
 101 0052 4398      		cbi 0x8,3
 102               		.loc 1 50 3 view .LVU30
 103 0054 439A      		sbi 0x8,3
 104               	.L4:
 105               		.loc 1 50 19 discriminator 1 view .LVU31
  51:lcd.c         **** 	}
  52:lcd.c         **** 	write_cmd(COLUMN_ADDRESS_SET);
 106               		.loc 1 52 2 discriminator 1 view .LVU32
 107 0056 4498      		cbi 0x8,4
 108               		.loc 1 52 2 discriminator 1 view .LVU33
 109 0058 8AE2      		ldi r24,lo8(42)
 110 005a 85B9      		out 0x5,r24
 111               		.loc 1 52 2 discriminator 1 view .LVU34
 112 005c 4398      		cbi 0x8,3
 113               		.loc 1 52 2 discriminator 1 view .LVU35
 114 005e 439A      		sbi 0x8,3
 115               		.loc 1 52 2 discriminator 1 view .LVU36
 116 0060 449A      		sbi 0x8,4
 117               		.loc 1 52 31 discriminator 1 view .LVU37
  53:lcd.c         **** 	write_data16(0);
 118               		.loc 1 53 2 discriminator 1 view .LVU38
GAS LISTING /tmp/cchFZ4o5.s 			page 4


 119 0062 15B8      		out 0x5,__zero_reg__
 120               		.loc 1 53 2 discriminator 1 view .LVU39
 121 0064 4398      		cbi 0x8,3
 122               		.loc 1 53 2 discriminator 1 view .LVU40
 123 0066 439A      		sbi 0x8,3
 124               		.loc 1 53 2 discriminator 1 view .LVU41
 125               		.loc 1 53 2 discriminator 1 view .LVU42
 126 0068 15B8      		out 0x5,__zero_reg__
 127               		.loc 1 53 2 discriminator 1 view .LVU43
 128 006a 4398      		cbi 0x8,3
 129               		.loc 1 53 2 discriminator 1 view .LVU44
 130 006c 439A      		sbi 0x8,3
 131               		.loc 1 53 2 discriminator 1 view .LVU45
 132               		.loc 1 53 17 discriminator 1 view .LVU46
  54:lcd.c         **** 	write_data16(display.width-1);
 133               		.loc 1 54 2 discriminator 1 view .LVU47
 134 006e 8091 0000 		lds r24,display
 135 0072 9091 0000 		lds r25,display+1
 136 0076 0197      		sbiw r24,1
 137 0078 95B9      		out 0x5,r25
 138               		.loc 1 54 2 discriminator 1 view .LVU48
 139 007a 4398      		cbi 0x8,3
 140               		.loc 1 54 2 discriminator 1 view .LVU49
 141 007c 439A      		sbi 0x8,3
 142               		.loc 1 54 2 discriminator 1 view .LVU50
 143               		.loc 1 54 2 discriminator 1 view .LVU51
 144 007e 8091 0000 		lds r24,display
 145 0082 8150      		subi r24,lo8(-(-1))
 146 0084 85B9      		out 0x5,r24
 147               		.loc 1 54 2 discriminator 1 view .LVU52
 148 0086 4398      		cbi 0x8,3
 149               		.loc 1 54 2 discriminator 1 view .LVU53
 150 0088 439A      		sbi 0x8,3
 151               		.loc 1 54 2 discriminator 1 view .LVU54
 152               		.loc 1 54 31 discriminator 1 view .LVU55
  55:lcd.c         **** 	write_cmd(PAGE_ADDRESS_SET);
 153               		.loc 1 55 2 discriminator 1 view .LVU56
 154 008a 4498      		cbi 0x8,4
 155               		.loc 1 55 2 discriminator 1 view .LVU57
 156 008c 8BE2      		ldi r24,lo8(43)
 157 008e 85B9      		out 0x5,r24
 158               		.loc 1 55 2 discriminator 1 view .LVU58
 159 0090 4398      		cbi 0x8,3
 160               		.loc 1 55 2 discriminator 1 view .LVU59
 161 0092 439A      		sbi 0x8,3
 162               		.loc 1 55 2 discriminator 1 view .LVU60
 163 0094 449A      		sbi 0x8,4
 164               		.loc 1 55 29 discriminator 1 view .LVU61
  56:lcd.c         **** 	write_data16(0);
 165               		.loc 1 56 2 discriminator 1 view .LVU62
 166 0096 15B8      		out 0x5,__zero_reg__
 167               		.loc 1 56 2 discriminator 1 view .LVU63
 168 0098 4398      		cbi 0x8,3
 169               		.loc 1 56 2 discriminator 1 view .LVU64
 170 009a 439A      		sbi 0x8,3
 171               		.loc 1 56 2 discriminator 1 view .LVU65
 172               		.loc 1 56 2 discriminator 1 view .LVU66
GAS LISTING /tmp/cchFZ4o5.s 			page 5


 173 009c 15B8      		out 0x5,__zero_reg__
 174               		.loc 1 56 2 discriminator 1 view .LVU67
 175 009e 4398      		cbi 0x8,3
 176               		.loc 1 56 2 discriminator 1 view .LVU68
 177 00a0 439A      		sbi 0x8,3
 178               		.loc 1 56 2 discriminator 1 view .LVU69
 179               		.loc 1 56 17 discriminator 1 view .LVU70
  57:lcd.c         **** 	write_data16(display.height-1);
 180               		.loc 1 57 2 discriminator 1 view .LVU71
 181 00a2 8091 0000 		lds r24,display+2
 182 00a6 9091 0000 		lds r25,display+2+1
 183 00aa 0197      		sbiw r24,1
 184 00ac 95B9      		out 0x5,r25
 185               		.loc 1 57 2 discriminator 1 view .LVU72
 186 00ae 4398      		cbi 0x8,3
 187               		.loc 1 57 2 discriminator 1 view .LVU73
 188 00b0 439A      		sbi 0x8,3
 189               		.loc 1 57 2 discriminator 1 view .LVU74
 190               		.loc 1 57 2 discriminator 1 view .LVU75
 191 00b2 8091 0000 		lds r24,display+2
 192 00b6 8150      		subi r24,lo8(-(-1))
 193 00b8 85B9      		out 0x5,r24
 194               		.loc 1 57 2 discriminator 1 view .LVU76
 195 00ba 4398      		cbi 0x8,3
 196               		.loc 1 57 2 discriminator 1 view .LVU77
 197 00bc 439A      		sbi 0x8,3
 198               		.loc 1 57 2 discriminator 1 view .LVU78
 199               		.loc 1 57 32 discriminator 1 view .LVU79
 200               	/* epilogue start */
  58:lcd.c         **** }
 201               		.loc 1 58 1 is_stmt 0 discriminator 1 view .LVU80
 202 00be 0895      		ret
 203               	.L3:
  37:lcd.c         **** 		display.width = LCDHEIGHT;
 204               		.loc 1 37 7 is_stmt 1 view .LVU81
  37:lcd.c         **** 		display.width = LCDHEIGHT;
 205               		.loc 1 37 10 is_stmt 0 view .LVU82
 206 00c0 2130      		cpi r18,1
 207 00c2 3105      		cpc r19,__zero_reg__
 208 00c4 01F4      		brne .L5
  38:lcd.c         **** 		display.height = LCDWIDTH;
 209               		.loc 1 38 3 is_stmt 1 view .LVU83
  38:lcd.c         **** 		display.height = LCDWIDTH;
 210               		.loc 1 38 17 is_stmt 0 view .LVU84
 211 00c6 80E4      		ldi r24,lo8(64)
 212 00c8 91E0      		ldi r25,lo8(1)
 213 00ca 9093 0000 		sts display+1,r25
 214 00ce 8093 0000 		sts display,r24
  39:lcd.c         **** 		write_data(0xE8);
 215               		.loc 1 39 3 is_stmt 1 view .LVU85
  39:lcd.c         **** 		write_data(0xE8);
 216               		.loc 1 39 18 is_stmt 0 view .LVU86
 217 00d2 80EF      		ldi r24,lo8(-16)
 218 00d4 90E0      		ldi r25,0
 219 00d6 9093 0000 		sts display+2+1,r25
 220 00da 8093 0000 		sts display+2,r24
  40:lcd.c         **** 	}
GAS LISTING /tmp/cchFZ4o5.s 			page 6


 221               		.loc 1 40 3 is_stmt 1 view .LVU87
 222 00de 88EE      		ldi r24,lo8(-24)
 223 00e0 00C0      		rjmp .L7
 224               	.L5:
  42:lcd.c         **** 		display.width = LCDWIDTH;
 225               		.loc 1 42 7 view .LVU88
  42:lcd.c         **** 		display.width = LCDWIDTH;
 226               		.loc 1 42 10 is_stmt 0 view .LVU89
 227 00e2 2230      		cpi r18,2
 228 00e4 3105      		cpc r19,__zero_reg__
 229 00e6 01F4      		brne .L6
  43:lcd.c         **** 		display.height = LCDHEIGHT;
 230               		.loc 1 43 3 is_stmt 1 view .LVU90
  43:lcd.c         **** 		display.height = LCDHEIGHT;
 231               		.loc 1 43 17 is_stmt 0 view .LVU91
 232 00e8 80EF      		ldi r24,lo8(-16)
 233 00ea 90E0      		ldi r25,0
 234 00ec 9093 0000 		sts display+1,r25
 235 00f0 8093 0000 		sts display,r24
  44:lcd.c         **** 		write_data(0x88);
 236               		.loc 1 44 3 is_stmt 1 view .LVU92
  44:lcd.c         **** 		write_data(0x88);
 237               		.loc 1 44 18 is_stmt 0 view .LVU93
 238 00f4 80E4      		ldi r24,lo8(64)
 239 00f6 91E0      		ldi r25,lo8(1)
 240 00f8 9093 0000 		sts display+2+1,r25
 241 00fc 8093 0000 		sts display+2,r24
  45:lcd.c         **** 	}
 242               		.loc 1 45 3 is_stmt 1 view .LVU94
 243 0100 88E8      		ldi r24,lo8(-120)
 244 0102 00C0      		rjmp .L7
 245               	.L6:
  47:lcd.c         **** 		display.width = LCDHEIGHT;
 246               		.loc 1 47 7 view .LVU95
  47:lcd.c         **** 		display.width = LCDHEIGHT;
 247               		.loc 1 47 10 is_stmt 0 view .LVU96
 248 0104 2330      		cpi r18,3
 249 0106 3105      		cpc r19,__zero_reg__
 250 0108 01F0      		breq .+2
 251 010a 00C0      		rjmp .L4
  48:lcd.c         **** 		display.height = LCDWIDTH;
 252               		.loc 1 48 3 is_stmt 1 view .LVU97
  48:lcd.c         **** 		display.height = LCDWIDTH;
 253               		.loc 1 48 17 is_stmt 0 view .LVU98
 254 010c 80E4      		ldi r24,lo8(64)
 255 010e 91E0      		ldi r25,lo8(1)
 256 0110 9093 0000 		sts display+1,r25
 257 0114 8093 0000 		sts display,r24
  49:lcd.c         **** 		write_data(0x28);
 258               		.loc 1 49 3 is_stmt 1 view .LVU99
  49:lcd.c         **** 		write_data(0x28);
 259               		.loc 1 49 18 is_stmt 0 view .LVU100
 260 0118 80EF      		ldi r24,lo8(-16)
 261 011a 90E0      		ldi r25,0
 262 011c 9093 0000 		sts display+2+1,r25
 263 0120 8093 0000 		sts display+2,r24
  50:lcd.c         **** 	}
GAS LISTING /tmp/cchFZ4o5.s 			page 7


 264               		.loc 1 50 3 is_stmt 1 view .LVU101
 265 0124 88E2      		ldi r24,lo8(40)
 266 0126 00C0      		rjmp .L7
 267               		.cfi_endproc
 268               	.LFE2:
 269               		.size	set_orientation, .-set_orientation
 270               	.global	fill_rectangle
 271               		.type	fill_rectangle, @function
 272               	fill_rectangle:
 273               	.LVL3:
 274               	.LFB3:
  59:lcd.c         **** 
  60:lcd.c         **** void fill_rectangle(rectangle r, uint16_t col)
  61:lcd.c         **** {
 275               		.loc 1 61 1 view -0
 276               		.cfi_startproc
 277               		.loc 1 61 1 is_stmt 0 view .LVU103
 278 0128 0F93      		push r16
 279               		.cfi_def_cfa_offset 3
 280               		.cfi_offset 16, -2
 281 012a 1F93      		push r17
 282               		.cfi_def_cfa_offset 4
 283               		.cfi_offset 17, -3
 284 012c CF93      		push r28
 285               		.cfi_def_cfa_offset 5
 286               		.cfi_offset 28, -4
 287 012e DF93      		push r29
 288               		.cfi_def_cfa_offset 6
 289               		.cfi_offset 29, -5
 290 0130 CDB7      		in r28,__SP_L__
 291 0132 DEB7      		in r29,__SP_H__
 292               		.cfi_def_cfa_register 28
 293 0134 2897      		sbiw r28,8
 294               		.cfi_def_cfa_offset 14
 295 0136 0FB6      		in __tmp_reg__,__SREG__
 296 0138 F894      		cli
 297 013a DEBF      		out __SP_H__,r29
 298 013c 0FBE      		out __SREG__,__tmp_reg__
 299 013e CDBF      		out __SP_L__,r28
 300               	/* prologue: function */
 301               	/* frame size = 8 */
 302               	/* stack size = 12 */
 303               	.L__stack_usage = 12
 304 0140 2983      		std Y+1,r18
 305 0142 3A83      		std Y+2,r19
 306 0144 4B83      		std Y+3,r20
 307 0146 5C83      		std Y+4,r21
 308 0148 462F      		mov r20,r22
 309 014a 6D83      		std Y+5,r22
 310 014c 572F      		mov r21,r23
 311 014e 7E83      		std Y+6,r23
 312 0150 8F83      		std Y+7,r24
 313 0152 9887      		std Y+8,r25
 314 0154 8981      		ldd r24,Y+1
 315 0156 9A81      		ldd r25,Y+2
 316               	.LVL4:
 317               		.loc 1 61 1 view .LVU104
GAS LISTING /tmp/cchFZ4o5.s 			page 8


 318 0158 6B81      		ldd r22,Y+3
 319 015a 7C81      		ldd r23,Y+4
 320               	.LVL5:
 321               		.loc 1 61 1 view .LVU105
 322 015c EF81      		ldd r30,Y+7
 323 015e F885      		ldd r31,Y+8
 324               	.LVL6:
  62:lcd.c         **** 	uint16_t x, y;
 325               		.loc 1 62 2 is_stmt 1 view .LVU106
  63:lcd.c         **** 	write_cmd(COLUMN_ADDRESS_SET);
 326               		.loc 1 63 2 view .LVU107
 327 0160 4498      		cbi 0x8,4
 328               		.loc 1 63 2 view .LVU108
 329 0162 2AE2      		ldi r18,lo8(42)
 330 0164 25B9      		out 0x5,r18
 331               		.loc 1 63 2 view .LVU109
 332 0166 4398      		cbi 0x8,3
 333               		.loc 1 63 2 view .LVU110
 334 0168 439A      		sbi 0x8,3
 335               		.loc 1 63 2 view .LVU111
 336 016a 449A      		sbi 0x8,4
 337               		.loc 1 63 31 view .LVU112
  64:lcd.c         **** 	write_data16(r.left);
 338               		.loc 1 64 2 view .LVU113
 339 016c 95B9      		out 0x5,r25
 340               		.loc 1 64 2 view .LVU114
 341 016e 4398      		cbi 0x8,3
 342               		.loc 1 64 2 view .LVU115
 343 0170 439A      		sbi 0x8,3
 344               		.loc 1 64 2 view .LVU116
 345               		.loc 1 64 2 view .LVU117
 346 0172 85B9      		out 0x5,r24
 347               		.loc 1 64 2 view .LVU118
 348 0174 4398      		cbi 0x8,3
 349               		.loc 1 64 2 view .LVU119
 350 0176 439A      		sbi 0x8,3
 351               		.loc 1 64 2 view .LVU120
 352               		.loc 1 64 22 view .LVU121
  65:lcd.c         **** 	write_data16(r.right);
 353               		.loc 1 65 2 view .LVU122
 354 0178 75B9      		out 0x5,r23
 355               		.loc 1 65 2 view .LVU123
 356 017a 4398      		cbi 0x8,3
 357               		.loc 1 65 2 view .LVU124
 358 017c 439A      		sbi 0x8,3
 359               		.loc 1 65 2 view .LVU125
 360               		.loc 1 65 2 view .LVU126
 361 017e 65B9      		out 0x5,r22
 362               		.loc 1 65 2 view .LVU127
 363 0180 4398      		cbi 0x8,3
 364               		.loc 1 65 2 view .LVU128
 365 0182 439A      		sbi 0x8,3
 366               		.loc 1 65 2 view .LVU129
 367               		.loc 1 65 23 view .LVU130
  66:lcd.c         **** 	write_cmd(PAGE_ADDRESS_SET);
 368               		.loc 1 66 2 view .LVU131
 369 0184 4498      		cbi 0x8,4
GAS LISTING /tmp/cchFZ4o5.s 			page 9


 370               		.loc 1 66 2 view .LVU132
 371 0186 2BE2      		ldi r18,lo8(43)
 372 0188 25B9      		out 0x5,r18
 373               		.loc 1 66 2 view .LVU133
 374 018a 4398      		cbi 0x8,3
 375               		.loc 1 66 2 view .LVU134
 376 018c 439A      		sbi 0x8,3
 377               		.loc 1 66 2 view .LVU135
 378 018e 449A      		sbi 0x8,4
 379               		.loc 1 66 29 view .LVU136
  67:lcd.c         **** 	write_data16(r.top);
 380               		.loc 1 67 2 view .LVU137
 381 0190 55B9      		out 0x5,r21
 382               		.loc 1 67 2 view .LVU138
 383 0192 4398      		cbi 0x8,3
 384               		.loc 1 67 2 view .LVU139
 385 0194 439A      		sbi 0x8,3
 386               		.loc 1 67 2 view .LVU140
 387               		.loc 1 67 2 view .LVU141
 388 0196 45B9      		out 0x5,r20
 389               		.loc 1 67 2 view .LVU142
 390 0198 4398      		cbi 0x8,3
 391               		.loc 1 67 2 view .LVU143
 392 019a 439A      		sbi 0x8,3
 393               		.loc 1 67 2 view .LVU144
 394               		.loc 1 67 21 view .LVU145
  68:lcd.c         **** 	write_data16(r.bottom);
 395               		.loc 1 68 2 view .LVU146
 396 019c F5B9      		out 0x5,r31
 397               		.loc 1 68 2 view .LVU147
 398 019e 4398      		cbi 0x8,3
 399               		.loc 1 68 2 view .LVU148
 400 01a0 439A      		sbi 0x8,3
 401               		.loc 1 68 2 view .LVU149
 402               		.loc 1 68 2 view .LVU150
 403 01a2 E5B9      		out 0x5,r30
 404               		.loc 1 68 2 view .LVU151
 405 01a4 4398      		cbi 0x8,3
 406               		.loc 1 68 2 view .LVU152
 407 01a6 439A      		sbi 0x8,3
 408               		.loc 1 68 2 view .LVU153
 409               		.loc 1 68 24 view .LVU154
  69:lcd.c         **** 	write_cmd(MEMORY_WRITE);
 410               		.loc 1 69 2 view .LVU155
 411 01a8 4498      		cbi 0x8,4
 412               		.loc 1 69 2 view .LVU156
 413 01aa 2CE2      		ldi r18,lo8(44)
 414 01ac 25B9      		out 0x5,r18
 415               		.loc 1 69 2 view .LVU157
 416 01ae 4398      		cbi 0x8,3
 417               		.loc 1 69 2 view .LVU158
 418 01b0 439A      		sbi 0x8,3
 419               		.loc 1 69 2 view .LVU159
 420 01b2 449A      		sbi 0x8,4
 421               		.loc 1 69 25 view .LVU160
  70:lcd.c         **** 	for(x=r.left; x<=r.right; x++)
 422               		.loc 1 70 2 view .LVU161
GAS LISTING /tmp/cchFZ4o5.s 			page 10


 423               	.LVL7:
 424               	.L9:
 425               		.loc 1 70 17 discriminator 1 view .LVU162
 426 01b4 6817      		cp r22,r24
 427 01b6 7907      		cpc r23,r25
 428 01b8 00F4      		brsh .L12
 429               	/* epilogue start */
  71:lcd.c         **** 		for(y=r.top; y<=r.bottom; y++)
  72:lcd.c         **** 			write_data16(col);
  73:lcd.c         **** }
 430               		.loc 1 73 1 is_stmt 0 view .LVU163
 431 01ba 2896      		adiw r28,8
 432 01bc 0FB6      		in __tmp_reg__,__SREG__
 433 01be F894      		cli
 434 01c0 DEBF      		out __SP_H__,r29
 435 01c2 0FBE      		out __SREG__,__tmp_reg__
 436 01c4 CDBF      		out __SP_L__,r28
 437 01c6 DF91      		pop r29
 438 01c8 CF91      		pop r28
 439 01ca 1F91      		pop r17
 440 01cc 0F91      		pop r16
 441               	.LVL8:
 442               		.loc 1 73 1 view .LVU164
 443 01ce 0895      		ret
 444               	.LVL9:
 445               	.L10:
  72:lcd.c         **** }
 446               		.loc 1 72 4 is_stmt 1 discriminator 3 view .LVU165
 447 01d0 15B9      		out 0x5,r17
  72:lcd.c         **** }
 448               		.loc 1 72 4 discriminator 3 view .LVU166
 449 01d2 4398      		cbi 0x8,3
  72:lcd.c         **** }
 450               		.loc 1 72 4 discriminator 3 view .LVU167
 451 01d4 439A      		sbi 0x8,3
  72:lcd.c         **** }
 452               		.loc 1 72 4 discriminator 3 view .LVU168
  72:lcd.c         **** }
 453               		.loc 1 72 4 discriminator 3 view .LVU169
 454 01d6 05B9      		out 0x5,r16
  72:lcd.c         **** }
 455               		.loc 1 72 4 discriminator 3 view .LVU170
 456 01d8 4398      		cbi 0x8,3
  72:lcd.c         **** }
 457               		.loc 1 72 4 discriminator 3 view .LVU171
 458 01da 439A      		sbi 0x8,3
  72:lcd.c         **** }
 459               		.loc 1 72 4 discriminator 3 view .LVU172
  71:lcd.c         **** 		for(y=r.top; y<=r.bottom; y++)
 460               		.loc 1 71 30 discriminator 3 view .LVU173
 461 01dc 2F5F      		subi r18,-1
 462 01de 3F4F      		sbci r19,-1
 463               	.LVL10:
 464               	.L11:
  71:lcd.c         **** 		for(y=r.top; y<=r.bottom; y++)
 465               		.loc 1 71 17 discriminator 1 view .LVU174
 466 01e0 E217      		cp r30,r18
GAS LISTING /tmp/cchFZ4o5.s 			page 11


 467 01e2 F307      		cpc r31,r19
 468 01e4 00F4      		brsh .L10
  70:lcd.c         **** 	for(x=r.left; x<=r.right; x++)
 469               		.loc 1 70 29 discriminator 2 view .LVU175
 470 01e6 0196      		adiw r24,1
 471               	.LVL11:
  70:lcd.c         **** 	for(x=r.left; x<=r.right; x++)
 472               		.loc 1 70 29 is_stmt 0 discriminator 2 view .LVU176
 473 01e8 00C0      		rjmp .L9
 474               	.LVL12:
 475               	.L12:
  71:lcd.c         **** 		for(y=r.top; y<=r.bottom; y++)
 476               		.loc 1 71 8 view .LVU177
 477 01ea 9A01      		movw r18,r20
 478 01ec 00C0      		rjmp .L11
 479               		.cfi_endproc
 480               	.LFE3:
 481               		.size	fill_rectangle, .-fill_rectangle
 482               	.global	fill_rectangle_indexed
 483               		.type	fill_rectangle_indexed, @function
 484               	fill_rectangle_indexed:
 485               	.LVL13:
 486               	.LFB4:
  74:lcd.c         **** 
  75:lcd.c         **** void fill_rectangle_indexed(rectangle r, uint16_t* col)
  76:lcd.c         **** {
 487               		.loc 1 76 1 is_stmt 1 view -0
 488               		.cfi_startproc
 489               		.loc 1 76 1 is_stmt 0 view .LVU179
 490 01ee 0F93      		push r16
 491               		.cfi_def_cfa_offset 3
 492               		.cfi_offset 16, -2
 493 01f0 1F93      		push r17
 494               		.cfi_def_cfa_offset 4
 495               		.cfi_offset 17, -3
 496 01f2 CF93      		push r28
 497               		.cfi_def_cfa_offset 5
 498               		.cfi_offset 28, -4
 499 01f4 DF93      		push r29
 500               		.cfi_def_cfa_offset 6
 501               		.cfi_offset 29, -5
 502 01f6 CDB7      		in r28,__SP_L__
 503 01f8 DEB7      		in r29,__SP_H__
 504               		.cfi_def_cfa_register 28
 505 01fa 2897      		sbiw r28,8
 506               		.cfi_def_cfa_offset 14
 507 01fc 0FB6      		in __tmp_reg__,__SREG__
 508 01fe F894      		cli
 509 0200 DEBF      		out __SP_H__,r29
 510 0202 0FBE      		out __SREG__,__tmp_reg__
 511 0204 CDBF      		out __SP_L__,r28
 512               	/* prologue: function */
 513               	/* frame size = 8 */
 514               	/* stack size = 12 */
 515               	.L__stack_usage = 12
 516 0206 2983      		std Y+1,r18
 517 0208 3A83      		std Y+2,r19
GAS LISTING /tmp/cchFZ4o5.s 			page 12


 518 020a 4B83      		std Y+3,r20
 519 020c 5C83      		std Y+4,r21
 520 020e 562F      		mov r21,r22
 521 0210 6D83      		std Y+5,r22
 522 0212 472F      		mov r20,r23
 523 0214 7E83      		std Y+6,r23
 524 0216 8F83      		std Y+7,r24
 525 0218 9887      		std Y+8,r25
 526 021a 2981      		ldd r18,Y+1
 527 021c 3A81      		ldd r19,Y+2
 528               	.LVL14:
 529               		.loc 1 76 1 view .LVU180
 530 021e AB81      		ldd r26,Y+3
 531 0220 BC81      		ldd r27,Y+4
 532               	.LVL15:
 533               		.loc 1 76 1 view .LVU181
 534 0222 6F81      		ldd r22,Y+7
 535 0224 7885      		ldd r23,Y+8
 536               	.LVL16:
  77:lcd.c         **** 	uint16_t x, y;
 537               		.loc 1 77 2 is_stmt 1 view .LVU182
  78:lcd.c         **** 	write_cmd(COLUMN_ADDRESS_SET);
 538               		.loc 1 78 2 view .LVU183
 539 0226 4498      		cbi 0x8,4
 540               		.loc 1 78 2 view .LVU184
 541 0228 8AE2      		ldi r24,lo8(42)
 542 022a 85B9      		out 0x5,r24
 543               		.loc 1 78 2 view .LVU185
 544 022c 4398      		cbi 0x8,3
 545               		.loc 1 78 2 view .LVU186
 546 022e 439A      		sbi 0x8,3
 547               		.loc 1 78 2 view .LVU187
 548 0230 449A      		sbi 0x8,4
 549               		.loc 1 78 31 view .LVU188
  79:lcd.c         **** 	write_data16(r.left);
 550               		.loc 1 79 2 view .LVU189
 551 0232 35B9      		out 0x5,r19
 552               		.loc 1 79 2 view .LVU190
 553 0234 4398      		cbi 0x8,3
 554               		.loc 1 79 2 view .LVU191
 555 0236 439A      		sbi 0x8,3
 556               		.loc 1 79 2 view .LVU192
 557               		.loc 1 79 2 view .LVU193
 558 0238 25B9      		out 0x5,r18
 559               		.loc 1 79 2 view .LVU194
 560 023a 4398      		cbi 0x8,3
 561               		.loc 1 79 2 view .LVU195
 562 023c 439A      		sbi 0x8,3
 563               		.loc 1 79 2 view .LVU196
 564               		.loc 1 79 22 view .LVU197
  80:lcd.c         **** 	write_data16(r.right);
 565               		.loc 1 80 2 view .LVU198
 566 023e B5B9      		out 0x5,r27
 567               		.loc 1 80 2 view .LVU199
 568 0240 4398      		cbi 0x8,3
 569               		.loc 1 80 2 view .LVU200
 570 0242 439A      		sbi 0x8,3
GAS LISTING /tmp/cchFZ4o5.s 			page 13


 571               		.loc 1 80 2 view .LVU201
 572               		.loc 1 80 2 view .LVU202
 573 0244 A5B9      		out 0x5,r26
 574               		.loc 1 80 2 view .LVU203
 575 0246 4398      		cbi 0x8,3
 576               		.loc 1 80 2 view .LVU204
 577 0248 439A      		sbi 0x8,3
 578               		.loc 1 80 2 view .LVU205
 579               		.loc 1 80 23 view .LVU206
  81:lcd.c         **** 	write_cmd(PAGE_ADDRESS_SET);
 580               		.loc 1 81 2 view .LVU207
 581 024a 4498      		cbi 0x8,4
 582               		.loc 1 81 2 view .LVU208
 583 024c 8BE2      		ldi r24,lo8(43)
 584 024e 85B9      		out 0x5,r24
 585               		.loc 1 81 2 view .LVU209
 586 0250 4398      		cbi 0x8,3
 587               		.loc 1 81 2 view .LVU210
 588 0252 439A      		sbi 0x8,3
 589               		.loc 1 81 2 view .LVU211
 590 0254 449A      		sbi 0x8,4
 591               		.loc 1 81 29 view .LVU212
  82:lcd.c         **** 	write_data16(r.top);
 592               		.loc 1 82 2 view .LVU213
 593 0256 45B9      		out 0x5,r20
 594               		.loc 1 82 2 view .LVU214
 595 0258 4398      		cbi 0x8,3
 596               		.loc 1 82 2 view .LVU215
 597 025a 439A      		sbi 0x8,3
 598               		.loc 1 82 2 view .LVU216
 599               		.loc 1 82 2 view .LVU217
 600 025c 55B9      		out 0x5,r21
 601               		.loc 1 82 2 view .LVU218
 602 025e 4398      		cbi 0x8,3
 603               		.loc 1 82 2 view .LVU219
 604 0260 439A      		sbi 0x8,3
 605               		.loc 1 82 2 view .LVU220
 606               		.loc 1 82 21 view .LVU221
  83:lcd.c         **** 	write_data16(r.bottom);
 607               		.loc 1 83 2 view .LVU222
 608 0262 75B9      		out 0x5,r23
 609               		.loc 1 83 2 view .LVU223
 610 0264 4398      		cbi 0x8,3
 611               		.loc 1 83 2 view .LVU224
 612 0266 439A      		sbi 0x8,3
 613               		.loc 1 83 2 view .LVU225
 614               		.loc 1 83 2 view .LVU226
 615 0268 65B9      		out 0x5,r22
 616               		.loc 1 83 2 view .LVU227
 617 026a 4398      		cbi 0x8,3
 618               		.loc 1 83 2 view .LVU228
 619 026c 439A      		sbi 0x8,3
 620               		.loc 1 83 2 view .LVU229
 621               		.loc 1 83 24 view .LVU230
  84:lcd.c         **** 	write_cmd(MEMORY_WRITE);
 622               		.loc 1 84 2 view .LVU231
 623 026e 4498      		cbi 0x8,4
GAS LISTING /tmp/cchFZ4o5.s 			page 14


 624               		.loc 1 84 2 view .LVU232
 625 0270 8CE2      		ldi r24,lo8(44)
 626 0272 85B9      		out 0x5,r24
 627               		.loc 1 84 2 view .LVU233
 628 0274 4398      		cbi 0x8,3
 629               		.loc 1 84 2 view .LVU234
 630 0276 439A      		sbi 0x8,3
 631               		.loc 1 84 2 view .LVU235
 632 0278 449A      		sbi 0x8,4
 633               		.loc 1 84 25 view .LVU236
  85:lcd.c         **** 	for(x=r.left; x<=r.right; x++)
 634               		.loc 1 85 2 view .LVU237
 635               	.LVL17:
 636               	.L14:
 637               		.loc 1 85 17 discriminator 1 view .LVU238
 638 027a A217      		cp r26,r18
 639 027c B307      		cpc r27,r19
 640 027e 00F0      		brlo .L13
 641               		.loc 1 85 17 is_stmt 0 discriminator 1 view .LVU239
 642 0280 F801      		movw r30,r16
  86:lcd.c         **** 		for(y=r.top; y<=r.bottom; y++)
 643               		.loc 1 86 8 view .LVU240
 644 0282 852F      		mov r24,r21
 645 0284 942F      		mov r25,r20
 646 0286 00C0      		rjmp .L17
 647               	.LVL18:
 648               	.L15:
  87:lcd.c         **** 			write_data16(*col++);
 649               		.loc 1 87 4 is_stmt 1 discriminator 3 view .LVU241
 650               		.loc 1 87 4 is_stmt 0 discriminator 3 view .LVU242
 651 0288 1181      		ldd r17,Z+1
 652 028a 15B9      		out 0x5,r17
 653               		.loc 1 87 4 is_stmt 1 discriminator 3 view .LVU243
 654 028c 4398      		cbi 0x8,3
 655               		.loc 1 87 4 discriminator 3 view .LVU244
 656 028e 439A      		sbi 0x8,3
 657               		.loc 1 87 4 discriminator 3 view .LVU245
 658               		.loc 1 87 4 discriminator 3 view .LVU246
 659               	.LVL19:
 660               		.loc 1 87 4 is_stmt 0 discriminator 3 view .LVU247
 661 0290 1281      		ldd r17,Z+2
 662 0292 15B9      		out 0x5,r17
 663               		.loc 1 87 4 is_stmt 1 discriminator 3 view .LVU248
 664 0294 4398      		cbi 0x8,3
 665               		.loc 1 87 4 discriminator 3 view .LVU249
 666 0296 439A      		sbi 0x8,3
 667               		.loc 1 87 4 discriminator 3 view .LVU250
  86:lcd.c         **** 		for(y=r.top; y<=r.bottom; y++)
 668               		.loc 1 86 30 discriminator 3 view .LVU251
 669 0298 0196      		adiw r24,1
 670               	.LVL20:
  86:lcd.c         **** 		for(y=r.top; y<=r.bottom; y++)
 671               		.loc 1 86 30 is_stmt 0 discriminator 3 view .LVU252
 672 029a 3496      		adiw r30,4
 673               	.LVL21:
 674               	.L17:
  86:lcd.c         **** 		for(y=r.top; y<=r.bottom; y++)
GAS LISTING /tmp/cchFZ4o5.s 			page 15


 675               		.loc 1 86 30 discriminator 3 view .LVU253
 676 029c 8F01      		movw r16,r30
 677               	.LVL22:
  86:lcd.c         **** 		for(y=r.top; y<=r.bottom; y++)
 678               		.loc 1 86 17 is_stmt 1 discriminator 1 view .LVU254
 679 029e 6817      		cp r22,r24
 680 02a0 7907      		cpc r23,r25
 681 02a2 00F4      		brsh .L15
  85:lcd.c         **** 	for(x=r.left; x<=r.right; x++)
 682               		.loc 1 85 29 discriminator 2 view .LVU255
 683 02a4 2F5F      		subi r18,-1
 684 02a6 3F4F      		sbci r19,-1
 685               	.LVL23:
  85:lcd.c         **** 	for(x=r.left; x<=r.right; x++)
 686               		.loc 1 85 29 is_stmt 0 discriminator 2 view .LVU256
 687 02a8 00C0      		rjmp .L14
 688               	.LVL24:
 689               	.L13:
 690               	/* epilogue start */
  88:lcd.c         **** }
 691               		.loc 1 88 1 view .LVU257
 692 02aa 2896      		adiw r28,8
 693 02ac 0FB6      		in __tmp_reg__,__SREG__
 694 02ae F894      		cli
 695 02b0 DEBF      		out __SP_H__,r29
 696 02b2 0FBE      		out __SREG__,__tmp_reg__
 697 02b4 CDBF      		out __SP_L__,r28
 698 02b6 DF91      		pop r29
 699 02b8 CF91      		pop r28
 700 02ba 1F91      		pop r17
 701               	.LVL25:
 702               		.loc 1 88 1 view .LVU258
 703 02bc 0F91      		pop r16
 704               		.loc 1 88 1 view .LVU259
 705 02be 0895      		ret
 706               		.cfi_endproc
 707               	.LFE4:
 708               		.size	fill_rectangle_indexed, .-fill_rectangle_indexed
 709               	.global	init_graphics
 710               		.type	init_graphics, @function
 711               	init_graphics:
 712               	.LFB5:
  89:lcd.c         **** 
  90:lcd.c         **** void init_graphics()
  91:lcd.c         **** {
 713               		.loc 1 91 1 is_stmt 1 view -0
 714               		.cfi_startproc
 715               	/* prologue: function */
 716               	/* frame size = 0 */
 717               	/* stack size = 0 */
 718               	.L__stack_usage = 0
  92:lcd.c         **** 	uint16_t x, y;
 719               		.loc 1 92 2 view .LVU261
  93:lcd.c         **** 	write_cmd(COLUMN_ADDRESS_SET);
 720               		.loc 1 93 2 view .LVU262
 721 02c0 4498      		cbi 0x8,4
 722               		.loc 1 93 2 view .LVU263
GAS LISTING /tmp/cchFZ4o5.s 			page 16


 723 02c2 8AE2      		ldi r24,lo8(42)
 724 02c4 85B9      		out 0x5,r24
 725               		.loc 1 93 2 view .LVU264
 726 02c6 4398      		cbi 0x8,3
 727               		.loc 1 93 2 view .LVU265
 728 02c8 439A      		sbi 0x8,3
 729               		.loc 1 93 2 view .LVU266
 730 02ca 449A      		sbi 0x8,4
 731               		.loc 1 93 31 view .LVU267
  94:lcd.c         **** 	write_data16(0);
 732               		.loc 1 94 2 view .LVU268
 733 02cc 15B8      		out 0x5,__zero_reg__
 734               		.loc 1 94 2 view .LVU269
 735 02ce 4398      		cbi 0x8,3
 736               		.loc 1 94 2 view .LVU270
 737 02d0 439A      		sbi 0x8,3
 738               		.loc 1 94 2 view .LVU271
 739               		.loc 1 94 2 view .LVU272
 740 02d2 15B8      		out 0x5,__zero_reg__
 741               		.loc 1 94 2 view .LVU273
 742 02d4 4398      		cbi 0x8,3
 743               		.loc 1 94 2 view .LVU274
 744 02d6 439A      		sbi 0x8,3
 745               		.loc 1 94 2 view .LVU275
 746               		.loc 1 94 17 view .LVU276
  95:lcd.c         **** 	write_data16(240);
 747               		.loc 1 95 2 view .LVU277
 748 02d8 15B8      		out 0x5,__zero_reg__
 749               		.loc 1 95 2 view .LVU278
 750 02da 4398      		cbi 0x8,3
 751               		.loc 1 95 2 view .LVU279
 752 02dc 439A      		sbi 0x8,3
 753               		.loc 1 95 2 view .LVU280
 754               		.loc 1 95 2 view .LVU281
 755 02de 80EF      		ldi r24,lo8(-16)
 756 02e0 85B9      		out 0x5,r24
 757               		.loc 1 95 2 view .LVU282
 758 02e2 4398      		cbi 0x8,3
 759               		.loc 1 95 2 view .LVU283
 760 02e4 439A      		sbi 0x8,3
 761               		.loc 1 95 2 view .LVU284
 762               		.loc 1 95 19 view .LVU285
  96:lcd.c         **** 	write_cmd(PAGE_ADDRESS_SET);
 763               		.loc 1 96 2 view .LVU286
 764 02e6 4498      		cbi 0x8,4
 765               		.loc 1 96 2 view .LVU287
 766 02e8 8BE2      		ldi r24,lo8(43)
 767 02ea 85B9      		out 0x5,r24
 768               		.loc 1 96 2 view .LVU288
 769 02ec 4398      		cbi 0x8,3
 770               		.loc 1 96 2 view .LVU289
 771 02ee 439A      		sbi 0x8,3
 772               		.loc 1 96 2 view .LVU290
 773 02f0 449A      		sbi 0x8,4
 774               		.loc 1 96 29 view .LVU291
  97:lcd.c         **** 	write_data16(0);
 775               		.loc 1 97 2 view .LVU292
GAS LISTING /tmp/cchFZ4o5.s 			page 17


 776 02f2 15B8      		out 0x5,__zero_reg__
 777               		.loc 1 97 2 view .LVU293
 778 02f4 4398      		cbi 0x8,3
 779               		.loc 1 97 2 view .LVU294
 780 02f6 439A      		sbi 0x8,3
 781               		.loc 1 97 2 view .LVU295
 782               		.loc 1 97 2 view .LVU296
 783 02f8 15B8      		out 0x5,__zero_reg__
 784               		.loc 1 97 2 view .LVU297
 785 02fa 4398      		cbi 0x8,3
 786               		.loc 1 97 2 view .LVU298
 787 02fc 439A      		sbi 0x8,3
 788               		.loc 1 97 2 view .LVU299
 789               		.loc 1 97 17 view .LVU300
  98:lcd.c         **** 	write_data16(320);
 790               		.loc 1 98 2 view .LVU301
 791 02fe 81E0      		ldi r24,lo8(1)
 792 0300 85B9      		out 0x5,r24
 793               		.loc 1 98 2 view .LVU302
 794 0302 4398      		cbi 0x8,3
 795               		.loc 1 98 2 view .LVU303
 796 0304 439A      		sbi 0x8,3
 797               		.loc 1 98 2 view .LVU304
 798               		.loc 1 98 2 view .LVU305
 799 0306 80E4      		ldi r24,lo8(64)
 800 0308 85B9      		out 0x5,r24
 801               		.loc 1 98 2 view .LVU306
 802 030a 4398      		cbi 0x8,3
 803               		.loc 1 98 2 view .LVU307
 804 030c 439A      		sbi 0x8,3
 805               		.loc 1 98 2 view .LVU308
 806               		.loc 1 98 19 view .LVU309
  99:lcd.c         **** 	write_cmd(MEMORY_WRITE);
 807               		.loc 1 99 2 view .LVU310
 808 030e 4498      		cbi 0x8,4
 809               		.loc 1 99 2 view .LVU311
 810 0310 8CE2      		ldi r24,lo8(44)
 811 0312 85B9      		out 0x5,r24
 812               		.loc 1 99 2 view .LVU312
 813 0314 4398      		cbi 0x8,3
 814               		.loc 1 99 2 view .LVU313
 815 0316 439A      		sbi 0x8,3
 816               		.loc 1 99 2 view .LVU314
 817 0318 449A      		sbi 0x8,4
 818               		.loc 1 99 25 view .LVU315
 100:lcd.c         **** 	for(y = 0; y <= 79; y++){
 819               		.loc 1 100 2 view .LVU316
 820               	.LVL26:
 821               		.loc 1 100 15 view .LVU317
 822 031a 20E0      		ldi r18,lo8(bg1_1)
 823 031c 30E0      		ldi r19,hi8(bg1_1)
  99:lcd.c         **** 	write_cmd(MEMORY_WRITE);
 824               		.loc 1 99 2 is_stmt 0 view .LVU318
 825 031e 60E0      		ldi r22,0
 826 0320 70E0      		ldi r23,0
 827               	.LVL27:
 828               	.L19:
GAS LISTING /tmp/cchFZ4o5.s 			page 18


 101:lcd.c         **** 		for(x = 0; x <= 119; x++){
 829               		.loc 1 101 16 is_stmt 1 view .LVU319
  91:lcd.c         **** 	uint16_t x, y;
 830               		.loc 1 91 1 is_stmt 0 view .LVU320
 831 0322 C901      		movw r24,r18
 832               		.loc 1 101 9 view .LVU321
 833 0324 40E0      		ldi r20,0
 834 0326 50E0      		ldi r21,0
 835               	.LVL28:
 836               	.L20:
 102:lcd.c         **** 			write_data16(pgm_read_word(&bg1_1[x+y*120]));
 837               		.loc 1 102 4 is_stmt 1 discriminator 3 view .LVU322
 838               	.LBB2:
 839               		.loc 1 102 4 discriminator 3 view .LVU323
 840               		.loc 1 102 4 discriminator 3 view .LVU324
 841               		.loc 1 102 4 discriminator 3 view .LVU325
 842 0328 FC01      		movw r30,r24
 843               	/* #APP */
 844               	 ;  102 "lcd.c" 1
 845 032a A591      		lpm r26, Z+
 846 032c B491      		lpm r27, Z
 847               		
 848               	 ;  0 "" 2
 849               	.LVL29:
 850               		.loc 1 102 4 discriminator 3 view .LVU326
 851               	/* #NOAPP */
 852               	.LBE2:
 853 032e B5B9      		out 0x5,r27
 854               		.loc 1 102 4 discriminator 3 view .LVU327
 855 0330 4398      		cbi 0x8,3
 856               		.loc 1 102 4 discriminator 3 view .LVU328
 857 0332 439A      		sbi 0x8,3
 858               		.loc 1 102 4 discriminator 3 view .LVU329
 859               		.loc 1 102 4 discriminator 3 view .LVU330
 860               	.LBB3:
 861               		.loc 1 102 4 discriminator 3 view .LVU331
 862               	.LVL30:
 863               		.loc 1 102 4 discriminator 3 view .LVU332
 864               		.loc 1 102 4 discriminator 3 view .LVU333
 865 0334 FC01      		movw r30,r24
 866               	/* #APP */
 867               	 ;  102 "lcd.c" 1
 868 0336 A591      		lpm r26, Z+
 869 0338 B491      		lpm r27, Z
 870               		
 871               	 ;  0 "" 2
 872               	.LVL31:
 873               		.loc 1 102 4 discriminator 3 view .LVU334
 874               	/* #NOAPP */
 875               	.LBE3:
 876 033a A5B9      		out 0x5,r26
 877               		.loc 1 102 4 discriminator 3 view .LVU335
 878 033c 4398      		cbi 0x8,3
 879               		.loc 1 102 4 discriminator 3 view .LVU336
 880 033e 439A      		sbi 0x8,3
 881               		.loc 1 102 4 discriminator 3 view .LVU337
 882               		.loc 1 102 48 discriminator 3 view .LVU338
GAS LISTING /tmp/cchFZ4o5.s 			page 19


 103:lcd.c         **** 			write_data16(pgm_read_word(&bg1_1[x+y*120]));
 883               		.loc 1 103 4 discriminator 3 view .LVU339
 884               	.LBB4:
 885               		.loc 1 103 4 discriminator 3 view .LVU340
 886               	.LVL32:
 887               		.loc 1 103 4 discriminator 3 view .LVU341
 888               		.loc 1 103 4 discriminator 3 view .LVU342
 889 0340 FC01      		movw r30,r24
 890               	/* #APP */
 891               	 ;  103 "lcd.c" 1
 892 0342 A591      		lpm r26, Z+
 893 0344 B491      		lpm r27, Z
 894               		
 895               	 ;  0 "" 2
 896               	.LVL33:
 897               		.loc 1 103 4 discriminator 3 view .LVU343
 898               	/* #NOAPP */
 899               	.LBE4:
 900 0346 B5B9      		out 0x5,r27
 901               		.loc 1 103 4 discriminator 3 view .LVU344
 902 0348 4398      		cbi 0x8,3
 903               		.loc 1 103 4 discriminator 3 view .LVU345
 904 034a 439A      		sbi 0x8,3
 905               		.loc 1 103 4 discriminator 3 view .LVU346
 906               		.loc 1 103 4 discriminator 3 view .LVU347
 907               	.LBB5:
 908               		.loc 1 103 4 discriminator 3 view .LVU348
 909               	.LVL34:
 910               		.loc 1 103 4 discriminator 3 view .LVU349
 911               		.loc 1 103 4 discriminator 3 view .LVU350
 912 034c FC01      		movw r30,r24
 913               	/* #APP */
 914               	 ;  103 "lcd.c" 1
 915 034e A591      		lpm r26, Z+
 916 0350 B491      		lpm r27, Z
 917               		
 918               	 ;  0 "" 2
 919               	.LVL35:
 920               		.loc 1 103 4 discriminator 3 view .LVU351
 921               	/* #NOAPP */
 922               	.LBE5:
 923 0352 A5B9      		out 0x5,r26
 924               		.loc 1 103 4 discriminator 3 view .LVU352
 925 0354 4398      		cbi 0x8,3
 926               		.loc 1 103 4 discriminator 3 view .LVU353
 927 0356 439A      		sbi 0x8,3
 928               		.loc 1 103 4 discriminator 3 view .LVU354
 929               		.loc 1 103 48 discriminator 3 view .LVU355
 101:lcd.c         **** 			write_data16(pgm_read_word(&bg1_1[x+y*120]));
 930               		.loc 1 101 25 discriminator 3 view .LVU356
 931 0358 4F5F      		subi r20,-1
 932 035a 5F4F      		sbci r21,-1
 933               	.LVL36:
 101:lcd.c         **** 			write_data16(pgm_read_word(&bg1_1[x+y*120]));
 934               		.loc 1 101 16 discriminator 3 view .LVU357
 935 035c 0296      		adiw r24,2
 936 035e 4837      		cpi r20,120
GAS LISTING /tmp/cchFZ4o5.s 			page 20


 937 0360 5105      		cpc r21,__zero_reg__
 938 0362 01F4      		brne .L20
 939 0364 C901      		movw r24,r18
 104:lcd.c         **** 		}
 105:lcd.c         **** 		for(x = 0; x <= 119; x++){
 940               		.loc 1 105 9 is_stmt 0 view .LVU358
 941 0366 40E0      		ldi r20,0
 942 0368 50E0      		ldi r21,0
 943               	.LVL37:
 944               	.L21:
 106:lcd.c         **** 			write_data16(pgm_read_word(&bg1_1[x+y*120]));
 945               		.loc 1 106 4 is_stmt 1 discriminator 3 view .LVU359
 946               	.LBB6:
 947               		.loc 1 106 4 discriminator 3 view .LVU360
 948               		.loc 1 106 4 discriminator 3 view .LVU361
 949               		.loc 1 106 4 discriminator 3 view .LVU362
 950 036a FC01      		movw r30,r24
 951               	/* #APP */
 952               	 ;  106 "lcd.c" 1
 953 036c A591      		lpm r26, Z+
 954 036e B491      		lpm r27, Z
 955               		
 956               	 ;  0 "" 2
 957               	.LVL38:
 958               		.loc 1 106 4 discriminator 3 view .LVU363
 959               	/* #NOAPP */
 960               	.LBE6:
 961 0370 B5B9      		out 0x5,r27
 962               		.loc 1 106 4 discriminator 3 view .LVU364
 963 0372 4398      		cbi 0x8,3
 964               		.loc 1 106 4 discriminator 3 view .LVU365
 965 0374 439A      		sbi 0x8,3
 966               		.loc 1 106 4 discriminator 3 view .LVU366
 967               		.loc 1 106 4 discriminator 3 view .LVU367
 968               	.LBB7:
 969               		.loc 1 106 4 discriminator 3 view .LVU368
 970               	.LVL39:
 971               		.loc 1 106 4 discriminator 3 view .LVU369
 972               		.loc 1 106 4 discriminator 3 view .LVU370
 973 0376 FC01      		movw r30,r24
 974               	/* #APP */
 975               	 ;  106 "lcd.c" 1
 976 0378 A591      		lpm r26, Z+
 977 037a B491      		lpm r27, Z
 978               		
 979               	 ;  0 "" 2
 980               	.LVL40:
 981               		.loc 1 106 4 discriminator 3 view .LVU371
 982               	/* #NOAPP */
 983               	.LBE7:
 984 037c A5B9      		out 0x5,r26
 985               		.loc 1 106 4 discriminator 3 view .LVU372
 986 037e 4398      		cbi 0x8,3
 987               		.loc 1 106 4 discriminator 3 view .LVU373
 988 0380 439A      		sbi 0x8,3
 989               		.loc 1 106 4 discriminator 3 view .LVU374
 990               		.loc 1 106 48 discriminator 3 view .LVU375
GAS LISTING /tmp/cchFZ4o5.s 			page 21


 107:lcd.c         **** 			write_data16(pgm_read_word(&bg1_1[x+y*120]));
 991               		.loc 1 107 4 discriminator 3 view .LVU376
 992               	.LBB8:
 993               		.loc 1 107 4 discriminator 3 view .LVU377
 994               	.LVL41:
 995               		.loc 1 107 4 discriminator 3 view .LVU378
 996               		.loc 1 107 4 discriminator 3 view .LVU379
 997 0382 FC01      		movw r30,r24
 998               	/* #APP */
 999               	 ;  107 "lcd.c" 1
 1000 0384 A591      		lpm r26, Z+
 1001 0386 B491      		lpm r27, Z
 1002               		
 1003               	 ;  0 "" 2
 1004               	.LVL42:
 1005               		.loc 1 107 4 discriminator 3 view .LVU380
 1006               	/* #NOAPP */
 1007               	.LBE8:
 1008 0388 B5B9      		out 0x5,r27
 1009               		.loc 1 107 4 discriminator 3 view .LVU381
 1010 038a 4398      		cbi 0x8,3
 1011               		.loc 1 107 4 discriminator 3 view .LVU382
 1012 038c 439A      		sbi 0x8,3
 1013               		.loc 1 107 4 discriminator 3 view .LVU383
 1014               		.loc 1 107 4 discriminator 3 view .LVU384
 1015               	.LBB9:
 1016               		.loc 1 107 4 discriminator 3 view .LVU385
 1017               	.LVL43:
 1018               		.loc 1 107 4 discriminator 3 view .LVU386
 1019               		.loc 1 107 4 discriminator 3 view .LVU387
 1020 038e FC01      		movw r30,r24
 1021               	/* #APP */
 1022               	 ;  107 "lcd.c" 1
 1023 0390 A591      		lpm r26, Z+
 1024 0392 B491      		lpm r27, Z
 1025               		
 1026               	 ;  0 "" 2
 1027               	.LVL44:
 1028               		.loc 1 107 4 discriminator 3 view .LVU388
 1029               	/* #NOAPP */
 1030               	.LBE9:
 1031 0394 A5B9      		out 0x5,r26
 1032               		.loc 1 107 4 discriminator 3 view .LVU389
 1033 0396 4398      		cbi 0x8,3
 1034               		.loc 1 107 4 discriminator 3 view .LVU390
 1035 0398 439A      		sbi 0x8,3
 1036               		.loc 1 107 4 discriminator 3 view .LVU391
 1037               		.loc 1 107 48 discriminator 3 view .LVU392
 105:lcd.c         **** 			write_data16(pgm_read_word(&bg1_1[x+y*120]));
 1038               		.loc 1 105 25 discriminator 3 view .LVU393
 1039 039a 4F5F      		subi r20,-1
 1040 039c 5F4F      		sbci r21,-1
 1041               	.LVL45:
 105:lcd.c         **** 			write_data16(pgm_read_word(&bg1_1[x+y*120]));
 1042               		.loc 1 105 16 discriminator 3 view .LVU394
 1043 039e 0296      		adiw r24,2
 1044 03a0 4837      		cpi r20,120
GAS LISTING /tmp/cchFZ4o5.s 			page 22


 1045 03a2 5105      		cpc r21,__zero_reg__
 1046 03a4 01F4      		brne .L21
 100:lcd.c         **** 		for(x = 0; x <= 119; x++){
 1047               		.loc 1 100 23 discriminator 2 view .LVU395
 100:lcd.c         **** 		for(x = 0; x <= 119; x++){
 1048               		.loc 1 100 15 discriminator 2 view .LVU396
 1049 03a6 2051      		subi r18,16
 1050 03a8 3F4F      		sbci r19,-1
 1051 03aa 6858      		subi r22,-120
 1052 03ac 7F4F      		sbci r23,-1
 1053 03ae 6038      		cpi r22,-128
 1054 03b0 85E2      		ldi r24,37
 1055 03b2 7807      		cpc r23,r24
 1056 03b4 01F0      		breq .+2
 1057 03b6 00C0      		rjmp .L19
 108:lcd.c         **** 		}
 109:lcd.c         **** 	}
 110:lcd.c         **** 	write_cmd(COLUMN_ADDRESS_SET);
 1058               		.loc 1 110 2 view .LVU397
 1059 03b8 4498      		cbi 0x8,4
 1060               		.loc 1 110 2 view .LVU398
 1061 03ba 8AE2      		ldi r24,lo8(42)
 1062 03bc 85B9      		out 0x5,r24
 1063               		.loc 1 110 2 view .LVU399
 1064 03be 4398      		cbi 0x8,3
 1065               		.loc 1 110 2 view .LVU400
 1066 03c0 439A      		sbi 0x8,3
 1067               		.loc 1 110 2 view .LVU401
 1068 03c2 449A      		sbi 0x8,4
 1069               		.loc 1 110 31 view .LVU402
 111:lcd.c         **** 	write_data16(0);
 1070               		.loc 1 111 2 view .LVU403
 1071 03c4 15B8      		out 0x5,__zero_reg__
 1072               		.loc 1 111 2 view .LVU404
 1073 03c6 4398      		cbi 0x8,3
 1074               		.loc 1 111 2 view .LVU405
 1075 03c8 439A      		sbi 0x8,3
 1076               		.loc 1 111 2 view .LVU406
 1077               		.loc 1 111 2 view .LVU407
 1078 03ca 15B8      		out 0x5,__zero_reg__
 1079               		.loc 1 111 2 view .LVU408
 1080 03cc 4398      		cbi 0x8,3
 1081               		.loc 1 111 2 view .LVU409
 1082 03ce 439A      		sbi 0x8,3
 1083               		.loc 1 111 2 view .LVU410
 1084               		.loc 1 111 17 view .LVU411
 112:lcd.c         **** 	write_data16(240);
 1085               		.loc 1 112 2 view .LVU412
 1086 03d0 15B8      		out 0x5,__zero_reg__
 1087               		.loc 1 112 2 view .LVU413
 1088 03d2 4398      		cbi 0x8,3
 1089               		.loc 1 112 2 view .LVU414
 1090 03d4 439A      		sbi 0x8,3
 1091               		.loc 1 112 2 view .LVU415
 1092               		.loc 1 112 2 view .LVU416
 1093 03d6 80EF      		ldi r24,lo8(-16)
 1094 03d8 85B9      		out 0x5,r24
GAS LISTING /tmp/cchFZ4o5.s 			page 23


 1095               		.loc 1 112 2 view .LVU417
 1096 03da 4398      		cbi 0x8,3
 1097               		.loc 1 112 2 view .LVU418
 1098 03dc 439A      		sbi 0x8,3
 1099               		.loc 1 112 2 view .LVU419
 1100               		.loc 1 112 19 view .LVU420
 113:lcd.c         **** 	write_cmd(PAGE_ADDRESS_SET);
 1101               		.loc 1 113 2 view .LVU421
 1102 03de 4498      		cbi 0x8,4
 1103               		.loc 1 113 2 view .LVU422
 1104 03e0 8BE2      		ldi r24,lo8(43)
 1105 03e2 85B9      		out 0x5,r24
 1106               		.loc 1 113 2 view .LVU423
 1107 03e4 4398      		cbi 0x8,3
 1108               		.loc 1 113 2 view .LVU424
 1109 03e6 439A      		sbi 0x8,3
 1110               		.loc 1 113 2 view .LVU425
 1111 03e8 449A      		sbi 0x8,4
 1112               		.loc 1 113 29 view .LVU426
 114:lcd.c         **** 	write_data16(160);
 1113               		.loc 1 114 2 view .LVU427
 1114 03ea 15B8      		out 0x5,__zero_reg__
 1115               		.loc 1 114 2 view .LVU428
 1116 03ec 4398      		cbi 0x8,3
 1117               		.loc 1 114 2 view .LVU429
 1118 03ee 439A      		sbi 0x8,3
 1119               		.loc 1 114 2 view .LVU430
 1120               		.loc 1 114 2 view .LVU431
 1121 03f0 80EA      		ldi r24,lo8(-96)
 1122 03f2 85B9      		out 0x5,r24
 1123               		.loc 1 114 2 view .LVU432
 1124 03f4 4398      		cbi 0x8,3
 1125               		.loc 1 114 2 view .LVU433
 1126 03f6 439A      		sbi 0x8,3
 1127               		.loc 1 114 2 view .LVU434
 1128               		.loc 1 114 19 view .LVU435
 115:lcd.c         **** 	write_data16(320);
 1129               		.loc 1 115 2 view .LVU436
 1130 03f8 81E0      		ldi r24,lo8(1)
 1131 03fa 85B9      		out 0x5,r24
 1132               		.loc 1 115 2 view .LVU437
 1133 03fc 4398      		cbi 0x8,3
 1134               		.loc 1 115 2 view .LVU438
 1135 03fe 439A      		sbi 0x8,3
 1136               		.loc 1 115 2 view .LVU439
 1137               		.loc 1 115 2 view .LVU440
 1138 0400 80E4      		ldi r24,lo8(64)
 1139 0402 85B9      		out 0x5,r24
 1140               		.loc 1 115 2 view .LVU441
 1141 0404 4398      		cbi 0x8,3
 1142               		.loc 1 115 2 view .LVU442
 1143 0406 439A      		sbi 0x8,3
 1144               		.loc 1 115 2 view .LVU443
 1145               		.loc 1 115 19 view .LVU444
 116:lcd.c         **** 	write_cmd(MEMORY_WRITE);
 1146               		.loc 1 116 2 view .LVU445
 1147 0408 4498      		cbi 0x8,4
GAS LISTING /tmp/cchFZ4o5.s 			page 24


 1148               		.loc 1 116 2 view .LVU446
 1149 040a 8CE2      		ldi r24,lo8(44)
 1150 040c 85B9      		out 0x5,r24
 1151               		.loc 1 116 2 view .LVU447
 1152 040e 4398      		cbi 0x8,3
 1153               		.loc 1 116 2 view .LVU448
 1154 0410 439A      		sbi 0x8,3
 1155               		.loc 1 116 2 view .LVU449
 1156 0412 449A      		sbi 0x8,4
 1157               		.loc 1 116 25 view .LVU450
 117:lcd.c         **** 	for(y = 0; y <= 79; y++){
 1158               		.loc 1 117 2 view .LVU451
 1159               	.LVL46:
 1160               		.loc 1 117 15 view .LVU452
 1161 0414 20E0      		ldi r18,lo8(bg1_2)
 1162 0416 30E0      		ldi r19,hi8(bg1_2)
 116:lcd.c         **** 	write_cmd(MEMORY_WRITE);
 1163               		.loc 1 116 2 is_stmt 0 view .LVU453
 1164 0418 60E0      		ldi r22,0
 1165 041a 70E0      		ldi r23,0
 1166               	.LVL47:
 1167               	.L23:
 118:lcd.c         **** 		for(x = 0; x <= 119; x++){
 1168               		.loc 1 118 16 is_stmt 1 view .LVU454
  99:lcd.c         **** 	for(y = 0; y <= 79; y++){
 1169               		.loc 1 99 2 is_stmt 0 view .LVU455
 1170 041c C901      		movw r24,r18
 1171               		.loc 1 118 9 view .LVU456
 1172 041e 40E0      		ldi r20,0
 1173 0420 50E0      		ldi r21,0
 1174               	.LVL48:
 1175               	.L24:
 119:lcd.c         **** 			write_data16(pgm_read_word(&bg1_2[x+y*120]));
 1176               		.loc 1 119 4 is_stmt 1 discriminator 3 view .LVU457
 1177               	.LBB10:
 1178               		.loc 1 119 4 discriminator 3 view .LVU458
 1179               		.loc 1 119 4 discriminator 3 view .LVU459
 1180               		.loc 1 119 4 discriminator 3 view .LVU460
 1181 0422 FC01      		movw r30,r24
 1182               	/* #APP */
 1183               	 ;  119 "lcd.c" 1
 1184 0424 A591      		lpm r26, Z+
 1185 0426 B491      		lpm r27, Z
 1186               		
 1187               	 ;  0 "" 2
 1188               	.LVL49:
 1189               		.loc 1 119 4 discriminator 3 view .LVU461
 1190               	/* #NOAPP */
 1191               	.LBE10:
 1192 0428 B5B9      		out 0x5,r27
 1193               		.loc 1 119 4 discriminator 3 view .LVU462
 1194 042a 4398      		cbi 0x8,3
 1195               		.loc 1 119 4 discriminator 3 view .LVU463
 1196 042c 439A      		sbi 0x8,3
 1197               		.loc 1 119 4 discriminator 3 view .LVU464
 1198               		.loc 1 119 4 discriminator 3 view .LVU465
 1199               	.LBB11:
GAS LISTING /tmp/cchFZ4o5.s 			page 25


 1200               		.loc 1 119 4 discriminator 3 view .LVU466
 1201               	.LVL50:
 1202               		.loc 1 119 4 discriminator 3 view .LVU467
 1203               		.loc 1 119 4 discriminator 3 view .LVU468
 1204 042e FC01      		movw r30,r24
 1205               	/* #APP */
 1206               	 ;  119 "lcd.c" 1
 1207 0430 A591      		lpm r26, Z+
 1208 0432 B491      		lpm r27, Z
 1209               		
 1210               	 ;  0 "" 2
 1211               	.LVL51:
 1212               		.loc 1 119 4 discriminator 3 view .LVU469
 1213               	/* #NOAPP */
 1214               	.LBE11:
 1215 0434 A5B9      		out 0x5,r26
 1216               		.loc 1 119 4 discriminator 3 view .LVU470
 1217 0436 4398      		cbi 0x8,3
 1218               		.loc 1 119 4 discriminator 3 view .LVU471
 1219 0438 439A      		sbi 0x8,3
 1220               		.loc 1 119 4 discriminator 3 view .LVU472
 1221               		.loc 1 119 48 discriminator 3 view .LVU473
 120:lcd.c         **** 			write_data16(pgm_read_word(&bg1_2[x+y*120]));
 1222               		.loc 1 120 4 discriminator 3 view .LVU474
 1223               	.LBB12:
 1224               		.loc 1 120 4 discriminator 3 view .LVU475
 1225               	.LVL52:
 1226               		.loc 1 120 4 discriminator 3 view .LVU476
 1227               		.loc 1 120 4 discriminator 3 view .LVU477
 1228 043a FC01      		movw r30,r24
 1229               	/* #APP */
 1230               	 ;  120 "lcd.c" 1
 1231 043c A591      		lpm r26, Z+
 1232 043e B491      		lpm r27, Z
 1233               		
 1234               	 ;  0 "" 2
 1235               	.LVL53:
 1236               		.loc 1 120 4 discriminator 3 view .LVU478
 1237               	/* #NOAPP */
 1238               	.LBE12:
 1239 0440 B5B9      		out 0x5,r27
 1240               		.loc 1 120 4 discriminator 3 view .LVU479
 1241 0442 4398      		cbi 0x8,3
 1242               		.loc 1 120 4 discriminator 3 view .LVU480
 1243 0444 439A      		sbi 0x8,3
 1244               		.loc 1 120 4 discriminator 3 view .LVU481
 1245               		.loc 1 120 4 discriminator 3 view .LVU482
 1246               	.LBB13:
 1247               		.loc 1 120 4 discriminator 3 view .LVU483
 1248               	.LVL54:
 1249               		.loc 1 120 4 discriminator 3 view .LVU484
 1250               		.loc 1 120 4 discriminator 3 view .LVU485
 1251 0446 FC01      		movw r30,r24
 1252               	/* #APP */
 1253               	 ;  120 "lcd.c" 1
 1254 0448 A591      		lpm r26, Z+
 1255 044a B491      		lpm r27, Z
GAS LISTING /tmp/cchFZ4o5.s 			page 26


 1256               		
 1257               	 ;  0 "" 2
 1258               	.LVL55:
 1259               		.loc 1 120 4 discriminator 3 view .LVU486
 1260               	/* #NOAPP */
 1261               	.LBE13:
 1262 044c A5B9      		out 0x5,r26
 1263               		.loc 1 120 4 discriminator 3 view .LVU487
 1264 044e 4398      		cbi 0x8,3
 1265               		.loc 1 120 4 discriminator 3 view .LVU488
 1266 0450 439A      		sbi 0x8,3
 1267               		.loc 1 120 4 discriminator 3 view .LVU489
 1268               		.loc 1 120 48 discriminator 3 view .LVU490
 118:lcd.c         **** 			write_data16(pgm_read_word(&bg1_2[x+y*120]));
 1269               		.loc 1 118 25 discriminator 3 view .LVU491
 1270 0452 4F5F      		subi r20,-1
 1271 0454 5F4F      		sbci r21,-1
 1272               	.LVL56:
 118:lcd.c         **** 			write_data16(pgm_read_word(&bg1_2[x+y*120]));
 1273               		.loc 1 118 16 discriminator 3 view .LVU492
 1274 0456 0296      		adiw r24,2
 1275 0458 4837      		cpi r20,120
 1276 045a 5105      		cpc r21,__zero_reg__
 1277 045c 01F4      		brne .L24
 1278 045e C901      		movw r24,r18
 121:lcd.c         **** 		}
 122:lcd.c         **** 		for(x = 0; x <= 119; x++){
 1279               		.loc 1 122 9 is_stmt 0 view .LVU493
 1280 0460 40E0      		ldi r20,0
 1281 0462 50E0      		ldi r21,0
 1282               	.LVL57:
 1283               	.L25:
 123:lcd.c         **** 			write_data16(pgm_read_word(&bg1_2[x+y*120]));
 1284               		.loc 1 123 4 is_stmt 1 discriminator 3 view .LVU494
 1285               	.LBB14:
 1286               		.loc 1 123 4 discriminator 3 view .LVU495
 1287               		.loc 1 123 4 discriminator 3 view .LVU496
 1288               		.loc 1 123 4 discriminator 3 view .LVU497
 1289 0464 FC01      		movw r30,r24
 1290               	/* #APP */
 1291               	 ;  123 "lcd.c" 1
 1292 0466 A591      		lpm r26, Z+
 1293 0468 B491      		lpm r27, Z
 1294               		
 1295               	 ;  0 "" 2
 1296               	.LVL58:
 1297               		.loc 1 123 4 discriminator 3 view .LVU498
 1298               	/* #NOAPP */
 1299               	.LBE14:
 1300 046a B5B9      		out 0x5,r27
 1301               		.loc 1 123 4 discriminator 3 view .LVU499
 1302 046c 4398      		cbi 0x8,3
 1303               		.loc 1 123 4 discriminator 3 view .LVU500
 1304 046e 439A      		sbi 0x8,3
 1305               		.loc 1 123 4 discriminator 3 view .LVU501
 1306               		.loc 1 123 4 discriminator 3 view .LVU502
 1307               	.LBB15:
GAS LISTING /tmp/cchFZ4o5.s 			page 27


 1308               		.loc 1 123 4 discriminator 3 view .LVU503
 1309               	.LVL59:
 1310               		.loc 1 123 4 discriminator 3 view .LVU504
 1311               		.loc 1 123 4 discriminator 3 view .LVU505
 1312 0470 FC01      		movw r30,r24
 1313               	/* #APP */
 1314               	 ;  123 "lcd.c" 1
 1315 0472 A591      		lpm r26, Z+
 1316 0474 B491      		lpm r27, Z
 1317               		
 1318               	 ;  0 "" 2
 1319               	.LVL60:
 1320               		.loc 1 123 4 discriminator 3 view .LVU506
 1321               	/* #NOAPP */
 1322               	.LBE15:
 1323 0476 A5B9      		out 0x5,r26
 1324               		.loc 1 123 4 discriminator 3 view .LVU507
 1325 0478 4398      		cbi 0x8,3
 1326               		.loc 1 123 4 discriminator 3 view .LVU508
 1327 047a 439A      		sbi 0x8,3
 1328               		.loc 1 123 4 discriminator 3 view .LVU509
 1329               		.loc 1 123 48 discriminator 3 view .LVU510
 124:lcd.c         **** 			write_data16(pgm_read_word(&bg1_2[x+y*120]));
 1330               		.loc 1 124 4 discriminator 3 view .LVU511
 1331               	.LBB16:
 1332               		.loc 1 124 4 discriminator 3 view .LVU512
 1333               	.LVL61:
 1334               		.loc 1 124 4 discriminator 3 view .LVU513
 1335               		.loc 1 124 4 discriminator 3 view .LVU514
 1336 047c FC01      		movw r30,r24
 1337               	/* #APP */
 1338               	 ;  124 "lcd.c" 1
 1339 047e A591      		lpm r26, Z+
 1340 0480 B491      		lpm r27, Z
 1341               		
 1342               	 ;  0 "" 2
 1343               	.LVL62:
 1344               		.loc 1 124 4 discriminator 3 view .LVU515
 1345               	/* #NOAPP */
 1346               	.LBE16:
 1347 0482 B5B9      		out 0x5,r27
 1348               		.loc 1 124 4 discriminator 3 view .LVU516
 1349 0484 4398      		cbi 0x8,3
 1350               		.loc 1 124 4 discriminator 3 view .LVU517
 1351 0486 439A      		sbi 0x8,3
 1352               		.loc 1 124 4 discriminator 3 view .LVU518
 1353               		.loc 1 124 4 discriminator 3 view .LVU519
 1354               	.LBB17:
 1355               		.loc 1 124 4 discriminator 3 view .LVU520
 1356               	.LVL63:
 1357               		.loc 1 124 4 discriminator 3 view .LVU521
 1358               		.loc 1 124 4 discriminator 3 view .LVU522
 1359 0488 FC01      		movw r30,r24
 1360               	/* #APP */
 1361               	 ;  124 "lcd.c" 1
 1362 048a A591      		lpm r26, Z+
 1363 048c B491      		lpm r27, Z
GAS LISTING /tmp/cchFZ4o5.s 			page 28


 1364               		
 1365               	 ;  0 "" 2
 1366               	.LVL64:
 1367               		.loc 1 124 4 discriminator 3 view .LVU523
 1368               	/* #NOAPP */
 1369               	.LBE17:
 1370 048e A5B9      		out 0x5,r26
 1371               		.loc 1 124 4 discriminator 3 view .LVU524
 1372 0490 4398      		cbi 0x8,3
 1373               		.loc 1 124 4 discriminator 3 view .LVU525
 1374 0492 439A      		sbi 0x8,3
 1375               		.loc 1 124 4 discriminator 3 view .LVU526
 1376               		.loc 1 124 48 discriminator 3 view .LVU527
 122:lcd.c         **** 			write_data16(pgm_read_word(&bg1_2[x+y*120]));
 1377               		.loc 1 122 25 discriminator 3 view .LVU528
 1378 0494 4F5F      		subi r20,-1
 1379 0496 5F4F      		sbci r21,-1
 1380               	.LVL65:
 122:lcd.c         **** 			write_data16(pgm_read_word(&bg1_2[x+y*120]));
 1381               		.loc 1 122 16 discriminator 3 view .LVU529
 1382 0498 0296      		adiw r24,2
 1383 049a 4837      		cpi r20,120
 1384 049c 5105      		cpc r21,__zero_reg__
 1385 049e 01F4      		brne .L25
 117:lcd.c         **** 		for(x = 0; x <= 119; x++){
 1386               		.loc 1 117 23 discriminator 2 view .LVU530
 117:lcd.c         **** 		for(x = 0; x <= 119; x++){
 1387               		.loc 1 117 15 discriminator 2 view .LVU531
 1388 04a0 2051      		subi r18,16
 1389 04a2 3F4F      		sbci r19,-1
 1390 04a4 6858      		subi r22,-120
 1391 04a6 7F4F      		sbci r23,-1
 1392 04a8 6038      		cpi r22,-128
 1393 04aa 85E2      		ldi r24,37
 1394 04ac 7807      		cpc r23,r24
 1395 04ae 01F0      		breq .+2
 1396 04b0 00C0      		rjmp .L23
 1397               	/* epilogue start */
 125:lcd.c         **** 		}
 126:lcd.c         **** 	}
 127:lcd.c         **** }
 1398               		.loc 1 127 1 is_stmt 0 view .LVU532
 1399 04b2 0895      		ret
 1400               		.cfi_endproc
 1401               	.LFE5:
 1402               		.size	init_graphics, .-init_graphics
 1403               	.global	clear_screen
 1404               		.type	clear_screen, @function
 1405               	clear_screen:
 1406               	.LFB6:
 128:lcd.c         **** 
 129:lcd.c         **** 
 130:lcd.c         **** void clear_screen()
 131:lcd.c         **** {
 1407               		.loc 1 131 1 is_stmt 1 view -0
 1408               		.cfi_startproc
 1409 04b4 0F93      		push r16
GAS LISTING /tmp/cchFZ4o5.s 			page 29


 1410               		.cfi_def_cfa_offset 3
 1411               		.cfi_offset 16, -2
 1412 04b6 1F93      		push r17
 1413               		.cfi_def_cfa_offset 4
 1414               		.cfi_offset 17, -3
 1415 04b8 CF93      		push r28
 1416               		.cfi_def_cfa_offset 5
 1417               		.cfi_offset 28, -4
 1418 04ba DF93      		push r29
 1419               		.cfi_def_cfa_offset 6
 1420               		.cfi_offset 29, -5
 1421 04bc CDB7      		in r28,__SP_L__
 1422 04be DEB7      		in r29,__SP_H__
 1423               		.cfi_def_cfa_register 28
 1424 04c0 2897      		sbiw r28,8
 1425               		.cfi_def_cfa_offset 14
 1426 04c2 0FB6      		in __tmp_reg__,__SREG__
 1427 04c4 F894      		cli
 1428 04c6 DEBF      		out __SP_H__,r29
 1429 04c8 0FBE      		out __SREG__,__tmp_reg__
 1430 04ca CDBF      		out __SP_L__,r28
 1431               	/* prologue: function */
 1432               	/* frame size = 8 */
 1433               	/* stack size = 12 */
 1434               	.L__stack_usage = 12
 132:lcd.c         **** 	display.x = 0;
 1435               		.loc 1 132 2 view .LVU534
 1436               		.loc 1 132 12 is_stmt 0 view .LVU535
 1437 04cc E0E0      		ldi r30,lo8(display)
 1438 04ce F0E0      		ldi r31,hi8(display)
 1439 04d0 1782      		std Z+7,__zero_reg__
 1440 04d2 1682      		std Z+6,__zero_reg__
 133:lcd.c         **** 	display.y = 0;
 1441               		.loc 1 133 2 is_stmt 1 view .LVU536
 1442               		.loc 1 133 12 is_stmt 0 view .LVU537
 1443 04d4 1186      		std Z+9,__zero_reg__
 1444 04d6 1086      		std Z+8,__zero_reg__
 134:lcd.c         **** 	rectangle r = {0, display.width-1, 0, display.height-1};
 1445               		.loc 1 134 2 is_stmt 1 view .LVU538
 1446               		.loc 1 134 33 is_stmt 0 view .LVU539
 1447 04d8 8081      		ld r24,Z
 1448 04da 9181      		ldd r25,Z+1
 1449 04dc 0197      		sbiw r24,1
 1450               		.loc 1 134 12 view .LVU540
 1451 04de AC01      		movw r20,r24
 1452               		.loc 1 134 54 view .LVU541
 1453 04e0 A281      		ldd r26,Z+2
 1454 04e2 B381      		ldd r27,Z+3
 1455 04e4 1197      		sbiw r26,1
 135:lcd.c         **** 	fill_rectangle(r, display.background);
 1456               		.loc 1 135 2 is_stmt 1 view .LVU542
 1457 04e6 0485      		ldd r16,Z+12
 1458 04e8 1585      		ldd r17,Z+13
 1459 04ea 20E0      		ldi r18,0
 1460 04ec 30E0      		ldi r19,0
 1461 04ee 60E0      		ldi r22,0
 1462 04f0 70E0      		ldi r23,0
GAS LISTING /tmp/cchFZ4o5.s 			page 30


 1463 04f2 CD01      		movw r24,r26
 1464 04f4 0E94 0000 		call fill_rectangle
 1465               	.LVL66:
 1466               	/* epilogue start */
 136:lcd.c         **** }
 1467               		.loc 1 136 1 is_stmt 0 view .LVU543
 1468 04f8 2896      		adiw r28,8
 1469 04fa 0FB6      		in __tmp_reg__,__SREG__
 1470 04fc F894      		cli
 1471 04fe DEBF      		out __SP_H__,r29
 1472 0500 0FBE      		out __SREG__,__tmp_reg__
 1473 0502 CDBF      		out __SP_L__,r28
 1474 0504 DF91      		pop r29
 1475 0506 CF91      		pop r28
 1476 0508 1F91      		pop r17
 1477 050a 0F91      		pop r16
 1478 050c 0895      		ret
 1479               		.cfi_endproc
 1480               	.LFE6:
 1481               		.size	clear_screen, .-clear_screen
 1482               	.global	display_char
 1483               		.type	display_char, @function
 1484               	display_char:
 1485               	.LVL67:
 1486               	.LFB7:
 137:lcd.c         **** 
 138:lcd.c         **** void display_char(char c)
 139:lcd.c         **** {
 1487               		.loc 1 139 1 is_stmt 1 view -0
 1488               		.cfi_startproc
 1489               		.loc 1 139 1 is_stmt 0 view .LVU545
 1490 050e AF92      		push r10
 1491               		.cfi_def_cfa_offset 3
 1492               		.cfi_offset 10, -2
 1493 0510 BF92      		push r11
 1494               		.cfi_def_cfa_offset 4
 1495               		.cfi_offset 11, -3
 1496 0512 CF92      		push r12
 1497               		.cfi_def_cfa_offset 5
 1498               		.cfi_offset 12, -4
 1499 0514 DF92      		push r13
 1500               		.cfi_def_cfa_offset 6
 1501               		.cfi_offset 13, -5
 1502 0516 EF92      		push r14
 1503               		.cfi_def_cfa_offset 7
 1504               		.cfi_offset 14, -6
 1505 0518 FF92      		push r15
 1506               		.cfi_def_cfa_offset 8
 1507               		.cfi_offset 15, -7
 1508 051a 0F93      		push r16
 1509               		.cfi_def_cfa_offset 9
 1510               		.cfi_offset 16, -8
 1511 051c 1F93      		push r17
 1512               		.cfi_def_cfa_offset 10
 1513               		.cfi_offset 17, -9
 1514 051e CF93      		push r28
 1515               		.cfi_def_cfa_offset 11
GAS LISTING /tmp/cchFZ4o5.s 			page 31


 1516               		.cfi_offset 28, -10
 1517 0520 DF93      		push r29
 1518               		.cfi_def_cfa_offset 12
 1519               		.cfi_offset 29, -11
 1520               	/* prologue: function */
 1521               	/* frame size = 0 */
 1522               	/* stack size = 10 */
 1523               	.L__stack_usage = 10
 140:lcd.c         **** 	uint16_t x, y;
 1524               		.loc 1 140 2 is_stmt 1 view .LVU546
 141:lcd.c         **** 	PGM_P fdata; 
 1525               		.loc 1 141 2 view .LVU547
 142:lcd.c         **** 	uint8_t bits, mask;
 1526               		.loc 1 142 2 view .LVU548
 143:lcd.c         **** 	uint16_t sc=display.x, ec=display.x + 4, sp=display.y, ep=display.y + 7;
 1527               		.loc 1 143 2 view .LVU549
 1528               		.loc 1 143 11 is_stmt 0 view .LVU550
 1529 0522 2091 0000 		lds r18,display+6
 1530 0526 3091 0000 		lds r19,display+6+1
 1531               	.LVL68:
 1532               		.loc 1 143 43 view .LVU551
 1533 052a 4091 0000 		lds r20,display+8
 1534 052e 5091 0000 		lds r21,display+8+1
 1535               	.LVL69:
 144:lcd.c         **** 	if (c < 32 || c > 126) return;
 1536               		.loc 1 144 2 is_stmt 1 view .LVU552
 1537               		.loc 1 144 13 is_stmt 0 view .LVU553
 1538 0532 90EE      		ldi r25,lo8(-32)
 1539 0534 980F      		add r25,r24
 1540 0536 B901      		movw r22,r18
 1541 0538 EA01      		movw r28,r20
 1542               		.loc 1 144 5 view .LVU554
 1543 053a 9F35      		cpi r25,lo8(95)
 1544 053c 00F0      		brlo .+2
 1545 053e 00C0      		rjmp .L32
 143:lcd.c         **** 	uint16_t sc=display.x, ec=display.x + 4, sp=display.y, ep=display.y + 7;
 1546               		.loc 1 143 25 view .LVU555
 1547 0540 8901      		movw r16,r18
 1548 0542 0C5F      		subi r16,-4
 1549 0544 1F4F      		sbci r17,-1
 1550               	.LVL70:
 143:lcd.c         **** 	uint16_t sc=display.x, ec=display.x + 4, sp=display.y, ep=display.y + 7;
 1551               		.loc 1 143 57 view .LVU556
 1552 0546 DA01      		movw r26,r20
 1553 0548 1796      		adiw r26,7
 1554               	.LVL71:
 145:lcd.c         **** 	fdata = (c - ' ')*5 + font5x7;
 1555               		.loc 1 145 2 is_stmt 1 view .LVU557
 146:lcd.c         **** 	write_cmd(PAGE_ADDRESS_SET);
 1556               		.loc 1 146 2 view .LVU558
 1557 054a 4498      		cbi 0x8,4
 1558               		.loc 1 146 2 view .LVU559
 1559 054c 9BE2      		ldi r25,lo8(43)
 1560 054e 95B9      		out 0x5,r25
 1561               		.loc 1 146 2 view .LVU560
 1562 0550 4398      		cbi 0x8,3
 1563               		.loc 1 146 2 view .LVU561
GAS LISTING /tmp/cchFZ4o5.s 			page 32


 1564 0552 439A      		sbi 0x8,3
 1565               		.loc 1 146 2 view .LVU562
 1566 0554 449A      		sbi 0x8,4
 1567               		.loc 1 146 29 view .LVU563
 147:lcd.c         **** 	write_data16(sp);
 1568               		.loc 1 147 2 view .LVU564
 1569 0556 55B9      		out 0x5,r21
 1570               		.loc 1 147 2 view .LVU565
 1571 0558 4398      		cbi 0x8,3
 1572               		.loc 1 147 2 view .LVU566
 1573 055a 439A      		sbi 0x8,3
 1574               		.loc 1 147 2 view .LVU567
 1575               		.loc 1 147 2 view .LVU568
 1576 055c 45B9      		out 0x5,r20
 1577               		.loc 1 147 2 view .LVU569
 1578 055e 4398      		cbi 0x8,3
 1579               		.loc 1 147 2 view .LVU570
 1580 0560 439A      		sbi 0x8,3
 1581               		.loc 1 147 2 view .LVU571
 1582               		.loc 1 147 18 view .LVU572
 148:lcd.c         **** 	write_data16(ep);
 1583               		.loc 1 148 2 view .LVU573
 1584 0562 B5B9      		out 0x5,r27
 1585               		.loc 1 148 2 view .LVU574
 1586 0564 4398      		cbi 0x8,3
 1587               		.loc 1 148 2 view .LVU575
 1588 0566 439A      		sbi 0x8,3
 1589               		.loc 1 148 2 view .LVU576
 1590               		.loc 1 148 2 view .LVU577
 1591 0568 A5B9      		out 0x5,r26
 1592               		.loc 1 148 2 view .LVU578
 1593 056a 4398      		cbi 0x8,3
 1594               		.loc 1 148 2 view .LVU579
 1595 056c 439A      		sbi 0x8,3
 1596               		.loc 1 148 2 view .LVU580
 1597               		.loc 1 148 18 view .LVU581
 149:lcd.c         **** 	for(x=sc; x<=ec; x++) {
 1598               		.loc 1 149 2 view .LVU582
 1599               	.LVL72:
 145:lcd.c         **** 	write_cmd(PAGE_ADDRESS_SET);
 1600               		.loc 1 145 13 is_stmt 0 view .LVU583
 1601 056e 8052      		subi r24,32
 1602 0570 990B      		sbc r25,r25
 1603               	.LVL73:
 145:lcd.c         **** 	write_cmd(PAGE_ADDRESS_SET);
 1604               		.loc 1 145 19 view .LVU584
 1605 0572 E5E0      		ldi r30,lo8(5)
 1606 0574 FE2E      		mov r15,r30
 1607 0576 F89E      		mul r15,r24
 1608 0578 F001      		movw r30,r0
 1609 057a F99E      		mul r15,r25
 1610 057c F00D      		add r31,r0
 1611 057e 1124      		clr __zero_reg__
 145:lcd.c         **** 	write_cmd(PAGE_ADDRESS_SET);
 1612               		.loc 1 145 8 view .LVU585
 1613 0580 E050      		subi r30,lo8(-(font5x7))
 1614 0582 F040      		sbci r31,hi8(-(font5x7))
GAS LISTING /tmp/cchFZ4o5.s 			page 33


 150:lcd.c         **** 		write_cmd(COLUMN_ADDRESS_SET);
 1615               		.loc 1 150 3 view .LVU586
 1616 0584 8AE2      		ldi r24,lo8(42)
 1617 0586 C82E      		mov r12,r24
 151:lcd.c         **** 		write_data16(x);
 152:lcd.c         **** 		write_data16(x);
 153:lcd.c         **** 		write_cmd(MEMORY_WRITE);
 1618               		.loc 1 153 3 view .LVU587
 1619 0588 9CE2      		ldi r25,lo8(44)
 1620 058a B92E      		mov r11,r25
 1621               	.LVL74:
 1622               	.L35:
 149:lcd.c         **** 		write_cmd(COLUMN_ADDRESS_SET);
 1623               		.loc 1 149 13 is_stmt 1 discriminator 1 view .LVU588
 150:lcd.c         **** 		write_cmd(COLUMN_ADDRESS_SET);
 1624               		.loc 1 150 3 is_stmt 0 discriminator 1 view .LVU589
 1625 058c 4498      		cbi 0x8,4
 149:lcd.c         **** 		write_cmd(COLUMN_ADDRESS_SET);
 1626               		.loc 1 149 13 discriminator 1 view .LVU590
 1627 058e 0217      		cp r16,r18
 1628 0590 1307      		cpc r17,r19
 1629 0592 00F4      		brsh .L42
 154:lcd.c         **** 		bits = pgm_read_byte(fdata++);
 155:lcd.c         **** 		for(y=sp, mask=0x01; y<=ep; y++, mask<<=1)
 156:lcd.c         **** 			write_data16((bits & mask) ? display.foreground : display.background);
 157:lcd.c         **** 	}
 158:lcd.c         **** 	write_cmd(COLUMN_ADDRESS_SET);
 1630               		.loc 1 158 2 is_stmt 1 view .LVU591
 1631               		.loc 1 158 2 view .LVU592
 1632 0594 8AE2      		ldi r24,lo8(42)
 1633 0596 85B9      		out 0x5,r24
 1634               		.loc 1 158 2 view .LVU593
 1635 0598 4398      		cbi 0x8,3
 1636               		.loc 1 158 2 view .LVU594
 1637 059a 439A      		sbi 0x8,3
 1638               		.loc 1 158 2 view .LVU595
 1639 059c 449A      		sbi 0x8,4
 1640               		.loc 1 158 31 view .LVU596
 159:lcd.c         **** 	write_data16(x);
 1641               		.loc 1 159 2 view .LVU597
 1642 059e 35B9      		out 0x5,r19
 1643               		.loc 1 159 2 view .LVU598
 1644 05a0 4398      		cbi 0x8,3
 1645               		.loc 1 159 2 view .LVU599
 1646 05a2 439A      		sbi 0x8,3
 1647               		.loc 1 159 2 view .LVU600
 1648               		.loc 1 159 2 view .LVU601
 1649 05a4 25B9      		out 0x5,r18
 1650               		.loc 1 159 2 view .LVU602
 1651 05a6 4398      		cbi 0x8,3
 1652               		.loc 1 159 2 view .LVU603
 1653 05a8 439A      		sbi 0x8,3
 1654               		.loc 1 159 2 view .LVU604
 1655               		.loc 1 159 17 view .LVU605
 160:lcd.c         **** 	write_data16(x);
 1656               		.loc 1 160 2 view .LVU606
 1657 05aa 35B9      		out 0x5,r19
GAS LISTING /tmp/cchFZ4o5.s 			page 34


 1658               		.loc 1 160 2 view .LVU607
 1659 05ac 4398      		cbi 0x8,3
 1660               		.loc 1 160 2 view .LVU608
 1661 05ae 439A      		sbi 0x8,3
 1662               		.loc 1 160 2 view .LVU609
 1663               		.loc 1 160 2 view .LVU610
 1664 05b0 25B9      		out 0x5,r18
 1665               		.loc 1 160 2 view .LVU611
 1666 05b2 4398      		cbi 0x8,3
 1667               		.loc 1 160 2 view .LVU612
 1668 05b4 439A      		sbi 0x8,3
 1669               		.loc 1 160 2 view .LVU613
 1670               		.loc 1 160 17 view .LVU614
 161:lcd.c         **** 	write_cmd(MEMORY_WRITE);
 1671               		.loc 1 161 2 view .LVU615
 1672 05b6 4498      		cbi 0x8,4
 1673               		.loc 1 161 2 view .LVU616
 1674 05b8 8CE2      		ldi r24,lo8(44)
 1675 05ba 85B9      		out 0x5,r24
 1676               		.loc 1 161 2 view .LVU617
 1677 05bc 4398      		cbi 0x8,3
 1678               		.loc 1 161 2 view .LVU618
 1679 05be 439A      		sbi 0x8,3
 1680               		.loc 1 161 2 view .LVU619
 1681 05c0 449A      		sbi 0x8,4
 1682               		.loc 1 161 25 view .LVU620
 162:lcd.c         **** 	for(y=sp; y<=ep; y++)
 1683               		.loc 1 162 2 view .LVU621
 1684               	.LVL75:
 1685               	.L43:
 1686               		.loc 1 162 13 discriminator 1 view .LVU622
 1687 05c2 A417      		cp r26,r20
 1688 05c4 B507      		cpc r27,r21
 1689 05c6 00F0      		brlo .+2
 1690 05c8 00C0      		rjmp .L44
 163:lcd.c         **** 		write_data16(display.background);
 1691               		.loc 1 163 35 view .LVU623
 164:lcd.c         **** 
 165:lcd.c         **** 	display.x += 6;
 1692               		.loc 1 165 2 view .LVU624
 1693               		.loc 1 165 12 is_stmt 0 view .LVU625
 1694 05ca 6A5F      		subi r22,-6
 1695 05cc 7F4F      		sbci r23,-1
 1696               	.LVL76:
 1697               		.loc 1 165 12 view .LVU626
 1698 05ce 7093 0000 		sts display+6+1,r23
 1699 05d2 6093 0000 		sts display+6,r22
 1700               	.LVL77:
 166:lcd.c         **** 	if (display.x >= display.width) { display.x=0; display.y+=8; }
 1701               		.loc 1 166 2 is_stmt 1 view .LVU627
 1702               		.loc 1 166 5 is_stmt 0 view .LVU628
 1703 05d6 2091 0000 		lds r18,display
 1704 05da 3091 0000 		lds r19,display+1
 1705               	.LVL78:
 1706               		.loc 1 166 5 view .LVU629
 1707 05de 6217      		cp r22,r18
 1708 05e0 7307      		cpc r23,r19
GAS LISTING /tmp/cchFZ4o5.s 			page 35


 1709 05e2 00F0      		brlo .L32
 1710               		.loc 1 166 36 is_stmt 1 discriminator 1 view .LVU630
 1711               		.loc 1 166 45 is_stmt 0 discriminator 1 view .LVU631
 1712 05e4 1092 0000 		sts display+6+1,__zero_reg__
 1713 05e8 1092 0000 		sts display+6,__zero_reg__
 1714               		.loc 1 166 49 is_stmt 1 discriminator 1 view .LVU632
 1715               		.loc 1 166 58 is_stmt 0 discriminator 1 view .LVU633
 1716 05ec 2896      		adiw r28,8
 1717               	.LVL79:
 1718               		.loc 1 166 58 discriminator 1 view .LVU634
 1719 05ee D093 0000 		sts display+8+1,r29
 1720 05f2 C093 0000 		sts display+8,r28
 1721               	.LVL80:
 1722               	.L32:
 1723               	/* epilogue start */
 167:lcd.c         **** }
 1724               		.loc 1 167 1 view .LVU635
 1725 05f6 DF91      		pop r29
 1726 05f8 CF91      		pop r28
 1727 05fa 1F91      		pop r17
 1728 05fc 0F91      		pop r16
 1729 05fe FF90      		pop r15
 1730 0600 EF90      		pop r14
 1731 0602 DF90      		pop r13
 1732 0604 CF90      		pop r12
 1733 0606 BF90      		pop r11
 1734 0608 AF90      		pop r10
 1735 060a 0895      		ret
 1736               	.LVL81:
 1737               	.L42:
 150:lcd.c         **** 		write_data16(x);
 1738               		.loc 1 150 3 is_stmt 1 view .LVU636
 150:lcd.c         **** 		write_data16(x);
 1739               		.loc 1 150 3 view .LVU637
 1740 060c C5B8      		out 0x5,r12
 150:lcd.c         **** 		write_data16(x);
 1741               		.loc 1 150 3 view .LVU638
 1742 060e 4398      		cbi 0x8,3
 150:lcd.c         **** 		write_data16(x);
 1743               		.loc 1 150 3 view .LVU639
 1744 0610 439A      		sbi 0x8,3
 150:lcd.c         **** 		write_data16(x);
 1745               		.loc 1 150 3 view .LVU640
 1746 0612 449A      		sbi 0x8,4
 150:lcd.c         **** 		write_data16(x);
 1747               		.loc 1 150 32 view .LVU641
 151:lcd.c         **** 		write_data16(x);
 1748               		.loc 1 151 3 view .LVU642
 1749 0614 35B9      		out 0x5,r19
 151:lcd.c         **** 		write_data16(x);
 1750               		.loc 1 151 3 view .LVU643
 1751 0616 4398      		cbi 0x8,3
 151:lcd.c         **** 		write_data16(x);
 1752               		.loc 1 151 3 view .LVU644
 1753 0618 439A      		sbi 0x8,3
 151:lcd.c         **** 		write_data16(x);
 1754               		.loc 1 151 3 view .LVU645
GAS LISTING /tmp/cchFZ4o5.s 			page 36


 151:lcd.c         **** 		write_data16(x);
 1755               		.loc 1 151 3 view .LVU646
 1756 061a 25B9      		out 0x5,r18
 151:lcd.c         **** 		write_data16(x);
 1757               		.loc 1 151 3 view .LVU647
 1758 061c 4398      		cbi 0x8,3
 151:lcd.c         **** 		write_data16(x);
 1759               		.loc 1 151 3 view .LVU648
 1760 061e 439A      		sbi 0x8,3
 151:lcd.c         **** 		write_data16(x);
 1761               		.loc 1 151 3 view .LVU649
 151:lcd.c         **** 		write_data16(x);
 1762               		.loc 1 151 18 view .LVU650
 152:lcd.c         **** 		write_cmd(MEMORY_WRITE);
 1763               		.loc 1 152 3 view .LVU651
 1764 0620 35B9      		out 0x5,r19
 152:lcd.c         **** 		write_cmd(MEMORY_WRITE);
 1765               		.loc 1 152 3 view .LVU652
 1766 0622 4398      		cbi 0x8,3
 152:lcd.c         **** 		write_cmd(MEMORY_WRITE);
 1767               		.loc 1 152 3 view .LVU653
 1768 0624 439A      		sbi 0x8,3
 152:lcd.c         **** 		write_cmd(MEMORY_WRITE);
 1769               		.loc 1 152 3 view .LVU654
 152:lcd.c         **** 		write_cmd(MEMORY_WRITE);
 1770               		.loc 1 152 3 view .LVU655
 1771 0626 25B9      		out 0x5,r18
 152:lcd.c         **** 		write_cmd(MEMORY_WRITE);
 1772               		.loc 1 152 3 view .LVU656
 1773 0628 4398      		cbi 0x8,3
 152:lcd.c         **** 		write_cmd(MEMORY_WRITE);
 1774               		.loc 1 152 3 view .LVU657
 1775 062a 439A      		sbi 0x8,3
 152:lcd.c         **** 		write_cmd(MEMORY_WRITE);
 1776               		.loc 1 152 3 view .LVU658
 152:lcd.c         **** 		write_cmd(MEMORY_WRITE);
 1777               		.loc 1 152 18 view .LVU659
 153:lcd.c         **** 		bits = pgm_read_byte(fdata++);
 1778               		.loc 1 153 3 view .LVU660
 1779 062c 4498      		cbi 0x8,4
 153:lcd.c         **** 		bits = pgm_read_byte(fdata++);
 1780               		.loc 1 153 3 view .LVU661
 1781 062e B5B8      		out 0x5,r11
 153:lcd.c         **** 		bits = pgm_read_byte(fdata++);
 1782               		.loc 1 153 3 view .LVU662
 1783 0630 4398      		cbi 0x8,3
 153:lcd.c         **** 		bits = pgm_read_byte(fdata++);
 1784               		.loc 1 153 3 view .LVU663
 1785 0632 439A      		sbi 0x8,3
 153:lcd.c         **** 		bits = pgm_read_byte(fdata++);
 1786               		.loc 1 153 3 view .LVU664
 1787 0634 449A      		sbi 0x8,4
 153:lcd.c         **** 		bits = pgm_read_byte(fdata++);
 1788               		.loc 1 153 26 view .LVU665
 154:lcd.c         **** 		for(y=sp, mask=0x01; y<=ep; y++, mask<<=1)
 1789               		.loc 1 154 3 view .LVU666
 1790               	.LBB18:
GAS LISTING /tmp/cchFZ4o5.s 			page 37


 154:lcd.c         **** 		for(y=sp, mask=0x01; y<=ep; y++, mask<<=1)
 1791               		.loc 1 154 10 view .LVU667
 1792               	.LVL82:
 154:lcd.c         **** 		for(y=sp, mask=0x01; y<=ep; y++, mask<<=1)
 1793               		.loc 1 154 10 view .LVU668
 154:lcd.c         **** 		for(y=sp, mask=0x01; y<=ep; y++, mask<<=1)
 1794               		.loc 1 154 10 view .LVU669
 1795               	/* #APP */
 1796               	 ;  154 "lcd.c" 1
 1797 0636 A490      		lpm r10, Z
 1798               		
 1799               	 ;  0 "" 2
 1800               	.LVL83:
 154:lcd.c         **** 		for(y=sp, mask=0x01; y<=ep; y++, mask<<=1)
 1801               		.loc 1 154 10 view .LVU670
 154:lcd.c         **** 		for(y=sp, mask=0x01; y<=ep; y++, mask<<=1)
 1802               		.loc 1 154 10 is_stmt 0 view .LVU671
 1803               	/* #NOAPP */
 1804               	.LBE18:
 155:lcd.c         **** 			write_data16((bits & mask) ? display.foreground : display.background);
 1805               		.loc 1 155 3 is_stmt 1 view .LVU672
 155:lcd.c         **** 			write_data16((bits & mask) ? display.foreground : display.background);
 1806               		.loc 1 155 8 is_stmt 0 view .LVU673
 1807 0638 CA01      		movw r24,r20
 155:lcd.c         **** 			write_data16((bits & mask) ? display.foreground : display.background);
 1808               		.loc 1 155 17 view .LVU674
 1809 063a FF24      		clr r15
 1810 063c F394      		inc r15
 1811               	.LVL84:
 1812               	.L36:
 155:lcd.c         **** 			write_data16((bits & mask) ? display.foreground : display.background);
 1813               		.loc 1 155 25 is_stmt 1 discriminator 2 view .LVU675
 1814 063e A817      		cp r26,r24
 1815 0640 B907      		cpc r27,r25
 1816 0642 00F4      		brsh .L41
 156:lcd.c         **** 	}
 1817               		.loc 1 156 73 discriminator 2 view .LVU676
 149:lcd.c         **** 		write_cmd(COLUMN_ADDRESS_SET);
 1818               		.loc 1 149 20 discriminator 2 view .LVU677
 1819 0644 2F5F      		subi r18,-1
 1820 0646 3F4F      		sbci r19,-1
 1821               	.LVL85:
 149:lcd.c         **** 		write_cmd(COLUMN_ADDRESS_SET);
 1822               		.loc 1 149 20 is_stmt 0 discriminator 2 view .LVU678
 1823 0648 3196      		adiw r30,1
 1824               	.LVL86:
 149:lcd.c         **** 		write_cmd(COLUMN_ADDRESS_SET);
 1825               		.loc 1 149 20 discriminator 2 view .LVU679
 1826 064a 00C0      		rjmp .L35
 1827               	.LVL87:
 1828               	.L41:
 156:lcd.c         **** 	}
 1829               		.loc 1 156 4 is_stmt 1 view .LVU680
 1830 064c EF2C      		mov r14,r15
 1831 064e EA20      		and r14,r10
 1832 0650 D090 0000 		lds r13,display+11
 1833 0654 E110      		cpse r14,__zero_reg__
GAS LISTING /tmp/cchFZ4o5.s 			page 38


 1834 0656 00C0      		rjmp .L38
 156:lcd.c         **** 	}
 1835               		.loc 1 156 4 is_stmt 0 discriminator 2 view .LVU681
 1836 0658 D090 0000 		lds r13,display+13
 1837               	.L38:
 156:lcd.c         **** 	}
 1838               		.loc 1 156 4 discriminator 4 view .LVU682
 1839 065c D5B8      		out 0x5,r13
 156:lcd.c         **** 	}
 1840               		.loc 1 156 4 is_stmt 1 discriminator 4 view .LVU683
 1841 065e 4398      		cbi 0x8,3
 156:lcd.c         **** 	}
 1842               		.loc 1 156 4 discriminator 4 view .LVU684
 1843 0660 439A      		sbi 0x8,3
 156:lcd.c         **** 	}
 1844               		.loc 1 156 4 discriminator 4 view .LVU685
 156:lcd.c         **** 	}
 1845               		.loc 1 156 4 discriminator 4 view .LVU686
 1846 0662 EE20      		tst r14
 1847 0664 01F0      		breq .L39
 156:lcd.c         **** 	}
 1848               		.loc 1 156 4 is_stmt 0 discriminator 5 view .LVU687
 1849 0666 E090 0000 		lds r14,display+10
 1850               	.L40:
 156:lcd.c         **** 	}
 1851               		.loc 1 156 4 discriminator 8 view .LVU688
 1852 066a E5B8      		out 0x5,r14
 156:lcd.c         **** 	}
 1853               		.loc 1 156 4 is_stmt 1 discriminator 8 view .LVU689
 1854 066c 4398      		cbi 0x8,3
 156:lcd.c         **** 	}
 1855               		.loc 1 156 4 discriminator 8 view .LVU690
 1856 066e 439A      		sbi 0x8,3
 156:lcd.c         **** 	}
 1857               		.loc 1 156 4 discriminator 8 view .LVU691
 155:lcd.c         **** 			write_data16((bits & mask) ? display.foreground : display.background);
 1858               		.loc 1 155 34 discriminator 8 view .LVU692
 155:lcd.c         **** 			write_data16((bits & mask) ? display.foreground : display.background);
 1859               		.loc 1 155 32 is_stmt 0 discriminator 8 view .LVU693
 1860 0670 0196      		adiw r24,1
 1861               	.LVL88:
 155:lcd.c         **** 			write_data16((bits & mask) ? display.foreground : display.background);
 1862               		.loc 1 155 40 discriminator 8 view .LVU694
 1863 0672 FF0C      		lsl r15
 1864               	.LVL89:
 155:lcd.c         **** 			write_data16((bits & mask) ? display.foreground : display.background);
 1865               		.loc 1 155 40 discriminator 8 view .LVU695
 1866 0674 00C0      		rjmp .L36
 1867               	.L39:
 156:lcd.c         **** 	}
 1868               		.loc 1 156 4 discriminator 6 view .LVU696
 1869 0676 E090 0000 		lds r14,display+12
 1870 067a 00C0      		rjmp .L40
 1871               	.LVL90:
 1872               	.L44:
 163:lcd.c         **** 
 1873               		.loc 1 163 3 is_stmt 1 discriminator 3 view .LVU697
GAS LISTING /tmp/cchFZ4o5.s 			page 39


 1874 067c 8091 0000 		lds r24,display+13
 1875 0680 85B9      		out 0x5,r24
 163:lcd.c         **** 
 1876               		.loc 1 163 3 discriminator 3 view .LVU698
 1877 0682 4398      		cbi 0x8,3
 163:lcd.c         **** 
 1878               		.loc 1 163 3 discriminator 3 view .LVU699
 1879 0684 439A      		sbi 0x8,3
 163:lcd.c         **** 
 1880               		.loc 1 163 3 discriminator 3 view .LVU700
 163:lcd.c         **** 
 1881               		.loc 1 163 3 discriminator 3 view .LVU701
 1882 0686 8091 0000 		lds r24,display+12
 1883 068a 85B9      		out 0x5,r24
 163:lcd.c         **** 
 1884               		.loc 1 163 3 discriminator 3 view .LVU702
 1885 068c 4398      		cbi 0x8,3
 163:lcd.c         **** 
 1886               		.loc 1 163 3 discriminator 3 view .LVU703
 1887 068e 439A      		sbi 0x8,3
 163:lcd.c         **** 
 1888               		.loc 1 163 3 discriminator 3 view .LVU704
 162:lcd.c         **** 		write_data16(display.background);
 1889               		.loc 1 162 20 discriminator 3 view .LVU705
 1890 0690 4F5F      		subi r20,-1
 1891 0692 5F4F      		sbci r21,-1
 1892               	.LVL91:
 162:lcd.c         **** 		write_data16(display.background);
 1893               		.loc 1 162 20 is_stmt 0 discriminator 3 view .LVU706
 1894 0694 00C0      		rjmp .L43
 1895               		.cfi_endproc
 1896               	.LFE7:
 1897               		.size	display_char, .-display_char
 1898               	.global	display_string
 1899               		.type	display_string, @function
 1900               	display_string:
 1901               	.LVL92:
 1902               	.LFB8:
 168:lcd.c         **** 
 169:lcd.c         **** void display_string(char *str)
 170:lcd.c         **** {
 1903               		.loc 1 170 1 is_stmt 1 view -0
 1904               		.cfi_startproc
 1905               		.loc 1 170 1 is_stmt 0 view .LVU708
 1906 0696 1F93      		push r17
 1907               		.cfi_def_cfa_offset 3
 1908               		.cfi_offset 17, -2
 1909 0698 CF93      		push r28
 1910               		.cfi_def_cfa_offset 4
 1911               		.cfi_offset 28, -3
 1912 069a DF93      		push r29
 1913               		.cfi_def_cfa_offset 5
 1914               		.cfi_offset 29, -4
 1915               	/* prologue: function */
 1916               	/* frame size = 0 */
 1917               	/* stack size = 3 */
 1918               	.L__stack_usage = 3
GAS LISTING /tmp/cchFZ4o5.s 			page 40


 1919 069c EC01      		movw r28,r24
 171:lcd.c         **** 	uint8_t i;
 1920               		.loc 1 171 2 is_stmt 1 view .LVU709
 172:lcd.c         **** 	for(i=0; str[i]; i++) 
 1921               		.loc 1 172 2 view .LVU710
 1922               	.LVL93:
 1923               		.loc 1 172 7 is_stmt 0 view .LVU711
 1924 069e 10E0      		ldi r17,0
 1925               	.LVL94:
 1926               	.L47:
 1927               		.loc 1 172 11 is_stmt 1 discriminator 1 view .LVU712
 1928               		.loc 1 172 14 is_stmt 0 discriminator 1 view .LVU713
 1929 06a0 FE01      		movw r30,r28
 1930 06a2 E10F      		add r30,r17
 1931 06a4 F11D      		adc r31,__zero_reg__
 1932 06a6 8081      		ld r24,Z
 1933               		.loc 1 172 11 discriminator 1 view .LVU714
 1934 06a8 8111      		cpse r24,__zero_reg__
 1935 06aa 00C0      		rjmp .L48
 1936               	/* epilogue start */
 173:lcd.c         **** 		display_char(str[i]);
 174:lcd.c         **** }
 1937               		.loc 1 174 1 view .LVU715
 1938 06ac DF91      		pop r29
 1939 06ae CF91      		pop r28
 1940               	.LVL95:
 1941               		.loc 1 174 1 view .LVU716
 1942 06b0 1F91      		pop r17
 1943               	.LVL96:
 1944               		.loc 1 174 1 view .LVU717
 1945 06b2 0895      		ret
 1946               	.LVL97:
 1947               	.L48:
 173:lcd.c         **** 		display_char(str[i]);
 1948               		.loc 1 173 3 is_stmt 1 discriminator 3 view .LVU718
 1949 06b4 0E94 0000 		call display_char
 1950               	.LVL98:
 172:lcd.c         **** 	for(i=0; str[i]; i++) 
 1951               		.loc 1 172 20 discriminator 3 view .LVU719
 1952 06b8 1F5F      		subi r17,lo8(-(1))
 1953               	.LVL99:
 172:lcd.c         **** 	for(i=0; str[i]; i++) 
 1954               		.loc 1 172 20 is_stmt 0 discriminator 3 view .LVU720
 1955 06ba 00C0      		rjmp .L47
 1956               		.cfi_endproc
 1957               	.LFE8:
 1958               		.size	display_string, .-display_string
 1959               	.global	display
 1960               		.data
 1961               		.type	display, @object
 1962               		.size	display, 14
 1963               	display:
 1964 0000 F000      		.word	240
 1965 0002 4001      		.word	320
 1966 0004 0000      		.word	0
 1967 0006 0000      		.word	0
 1968 0008 0000      		.word	0
GAS LISTING /tmp/cchFZ4o5.s 			page 41


 1969 000a E420      		.word	8420
 1970 000c 99FF      		.word	-103
 1971               		.text
 1972               	.Letext0:
 1973               		.file 2 "/usr/avr/include/stdint.h"
 1974               		.file 3 "font.h"
 1975               		.file 4 "graphics.h"
 1976               		.file 5 "lcd.h"
 1977               		.file 6 "ili934x.h"