GAS LISTING /tmp/cchFZ4o5.s 			page 1


   1               		.file	"lcd.c"
   2               	__SP_H__ = 0x3e
   3               	__SP_L__ = 0x3d
   4               	__SREG__ = 0x3f
   5               	__tmp_reg__ = 0
   6               	__zero_reg__ = 1
   7               		.text
   8               	.Ltext0:
   9               		.cfi_sections	.debug_frame
  10               		.file 0 "/home/kaicho/Documents/Southampton/D5/lcdtest/lcdlib" "lcd.c"
  11               	.global	init_lcd
  12               		.type	init_lcd, @function
  13               	init_lcd:
  14               	.LFB1:
  15               		.file 1 "lcd.c"
   1:lcd.c         **** /*  Author: Steve Gunn
   2:lcd.c         ****  * Licence: This work is licensed under the Creative Commons Attribution License.
   3:lcd.c         ****  *           View this license at http://creativecommons.org/about/licenses/
   4:lcd.c         ****  */
   5:lcd.c         ****  
   6:lcd.c         **** #include "ili934x.h"
   7:lcd.c         **** #include "font.h"
   8:lcd.c         **** #include "graphics.h"
   9:lcd.c         **** #include "lcd.h"
  10:lcd.c         **** 
  11:lcd.c         **** lcd display = {LCDWIDTH, LCDHEIGHT, North, 0, 0, 0x20E4, 0xFF99};
  12:lcd.c         **** 
  13:lcd.c         **** void init_lcd()
  14:lcd.c         **** {
  16               		.loc 1 14 1 view -0
  17               		.cfi_startproc
  18               	/* prologue: function */
  19               	/* frame size = 0 */
  20               	/* stack size = 0 */
  21               	.L__stack_usage = 0
  15:lcd.c         **** 	/* Disable JTAG in software, so that it does not interfere with Port C  */
  16:lcd.c         **** 	/* It will be re-enabled after a power cycle if the JTAGEN fuse is set. */
  17:lcd.c         **** 	MCUCR |= (1<<JTD);
  22               		.loc 1 17 2 view .LVU1
  23 0000 85B7      		in r24,0x35
  24               		.loc 1 17 8 is_stmt 0 view .LVU2
  25 0002 8068      		ori r24,lo8(-128)
  26 0004 85BF      		out 0x35,r24
  18:lcd.c         **** 	MCUCR |= (1<<JTD);
  27               		.loc 1 18 2 is_stmt 1 view .LVU3
  28 0006 85B7      		in r24,0x35
  29               		.loc 1 18 8 is_stmt 0 view .LVU4
  30 0008 8068      		ori r24,lo8(-128)
  31 000a 85BF      		out 0x35,r24
  19:lcd.c         **** 	
  20:lcd.c         **** 	/* Configure ports */
  21:lcd.c         **** 	CTRL_DDR = 0x7F;
  32               		.loc 1 21 2 is_stmt 1 view .LVU5
  33               		.loc 1 21 11 is_stmt 0 view .LVU6
  34 000c 8FE7      		ldi r24,lo8(127)
  35 000e 87B9      		out 0x7,r24
  22:lcd.c         **** 	// PIN 7 on the control port is an input.
GAS LISTING /tmp/cchFZ4o5.s 			page 2


  23:lcd.c         **** 	DATA_DDR = 0xFF;
  36               		.loc 1 23 2 is_stmt 1 view .LVU7
  37               		.loc 1 23 11 is_stmt 0 view .LVU8
  38 0010 8FEF      		ldi r24,lo8(-1)
  39 0012 84B9      		out 0x4,r24
  24:lcd.c         **** 	
  25:lcd.c         **** 	init_display_controller();
  40               		.loc 1 25 2 is_stmt 1 view .LVU9
  41 0014 0C94 0000 		jmp init_display_controller
  42               	.LVL0:
  43               		.cfi_endproc
  44               	.LFE1:
  45               		.size	init_lcd, .-init_lcd
  46               	.global	set_orientation
  47               		.type	set_orientation, @function
  48               	set_orientation:
  49               	.LVL1:
  50               	.LFB2:
  26:lcd.c         **** }
  27:lcd.c         **** 
  28:lcd.c         **** void set_orientation(orientation o)
  29:lcd.c         **** {
  51               		.loc 1 29 1 view -0
  52               		.cfi_startproc
  53               	/* prologue: function */
  54               	/* frame size = 0 */
  55               	/* stack size = 0 */
  56               	.L__stack_usage = 0
  57               		.loc 1 29 1 is_stmt 0 view .LVU11
  58 0018 9C01      		movw r18,r24
  30:lcd.c         **** 	display.orient = o;
  59               		.loc 1 30 2 is_stmt 1 view .LVU12
  60               		.loc 1 30 17 is_stmt 0 view .LVU13
  61 001a 9093 0000 		sts display+4+1,r25
  62 001e 8093 0000 		sts display+4,r24
  31:lcd.c         **** 	write_cmd(MEMORY_ACCESS_CONTROL);
  63               		.loc 1 31 2 is_stmt 1 view .LVU14
  64 0022 4498      		cbi 0x8,4
  65               		.loc 1 31 2 view .LVU15
  66 0024 86E3      		ldi r24,lo8(54)
  67               	.LVL2:
  68               		.loc 1 31 2 is_stmt 0 view .LVU16
  69 0026 85B9      		out 0x5,r24
  70               		.loc 1 31 2 is_stmt 1 view .LVU17
  71 0028 4398      		cbi 0x8,3
  72               		.loc 1 31 2 view .LVU18
  73 002a 439A      		sbi 0x8,3
  74               		.loc 1 31 2 view .LVU19
  75 002c 449A      		sbi 0x8,4
  76               		.loc 1 31 34 view .LVU20
  32:lcd.c         **** 	if (o==North) { 
  77               		.loc 1 32 2 view .LVU21
  78               		.loc 1 32 5 is_stmt 0 view .LVU22
  79 002e 2115      		cp r18,__zero_reg__
  80 0030 3105      		cpc r19,__zero_reg__
  81 0032 01F0      		breq .+2
  82 0034 00C0      		rjmp .L3
GAS LISTING /tmp/cchFZ4o5.s 			page 3


  33:lcd.c         **** 		display.width = LCDWIDTH;
  83               		.loc 1 33 3 is_stmt 1 view .LVU23
  84               		.loc 1 33 17 is_stmt 0 view .LVU24
  85 0036 80EF      		ldi r24,lo8(-16)
  86 0038 90E0      		ldi r25,0
  87 003a 9093 0000 		sts display+1,r25
  88 003e 8093 0000 		sts display,r24
  34:lcd.c         **** 		display.height = LCDHEIGHT;
  89               		.loc 1 34 3 is_stmt 1 view .LVU25
  90               		.loc 1 34 18 is_stmt 0 view .LVU26
  91 0042 80E4      		ldi r24,lo8(64)
  92 0044 91E0      		ldi r25,lo8(1)
  93 0046 9093 0000 		sts display+2+1,r25
  94 004a 8093 0000 		sts display+2,r24
  35:lcd.c         **** 		write_data(0x48);
  95               		.loc 1 35 3 is_stmt 1 view .LVU27
  96 004e 88E4      		ldi r24,lo8(72)
  97               	.L7:
  36:lcd.c         **** 	}
  37:lcd.c         **** 	else if (o==West) {
  38:lcd.c         **** 		display.width = LCDHEIGHT;
  39:lcd.c         **** 		display.height = LCDWIDTH;
  40:lcd.c         **** 		write_data(0xE8);
  41:lcd.c         **** 	}
  42:lcd.c         **** 	else if (o==South) {
  43:lcd.c         **** 		display.width = LCDWIDTH;
  44:lcd.c         **** 		display.height = LCDHEIGHT;
  45:lcd.c         **** 		write_data(0x88);
  46:lcd.c         **** 	}
  47:lcd.c         **** 	else if (o==East) {
  48:lcd.c         **** 		display.width = LCDHEIGHT;
  49:lcd.c         **** 		display.height = LCDWIDTH;
  50:lcd.c         **** 		write_data(0x28);
  98               		.loc 1 50 3 is_stmt 0 view .LVU28
  99 0050 85B9      		out 0x5,r24
 100               		.loc 1 50 3 is_stmt 1 view .LVU29
 101 0052 4398      		cbi 0x8,3
 102               		.loc 1 50 3 view .LVU30
 103 0054 439A      		sbi 0x8,3
 104               	.L4:
 105               		.loc 1 50 19 discriminator 1 view .LVU31
  51:lcd.c         **** 	}
  52:lcd.c         **** 	write_cmd(COLUMN_ADDRESS_SET);
 106               		.loc 1 52 2 discriminator 1 view .LVU32
 107 0056 4498      		cbi 0x8,4
 108               		.loc 1 52 2 discriminator 1 view .LVU33
 109 0058 8AE2      		ldi r24,lo8(42)
 110 005a 85B9      		out 0x5,r24
 111               		.loc 1 52 2 discriminator 1 view .LVU34
 112 005c 4398      		cbi 0x8,3
 113               		.loc 1 52 2 discriminator 1 view .LVU35
 114 005e 439A      		sbi 0x8,3
 115               		.loc 1 52 2 discriminator 1 view .LVU36
 116 0060 449A      		sbi 0x8,4
 117               		.loc 1 52 31 discriminator 1 view .LVU37
  53:lcd.c         **** 	write_data16(0);
 118               		.loc 1 53 2 discriminator 1 view .LVU38
GAS LISTING /tmp/cchFZ4o5.s 			page 4


 119 0062 15B8      		out 0x5,__zero_reg__
 120               		.loc 1 53 2 discriminator 1 view .LVU39
 121 0064 4398      		cbi 0x8,3
 122               		.loc 1 53 2 discriminator 1 view .LVU40
 123 0066 439A      		sbi 0x8,3
 124               		.loc 1 53 2 discriminator 1 view .LVU41
 125               		.loc 1 53 2 discriminator 1 view .LVU42
 126 0068 15B8      		out 0x5,__zero_reg__
 127               		.loc 1 53 2 discriminator 1 view .LVU43
 128 006a 4398      		cbi 0x8,3
 129               		.loc 1 53 2 discriminator 1 view .LVU44
 130 006c 439A      		sbi 0x8,3
 131               		.loc 1 53 2 discriminator 1 view .LVU45
 132               		.loc 1 53 17 discriminator 1 view .LVU46
  54:lcd.c         **** 	write_data16(display.width-1);
 133               		.loc 1 54 2 discriminator 1 view .LVU47
 134 006e 8091 0000 		lds r24,display
 135 0072 9091 0000 		lds r25,display+1
 136 0076 0197      		sbiw r24,1
 137 0078 95B9      		out 0x5,r25
 138               		.loc 1 54 2 discriminator 1 view .LVU48
 139 007a 4398      		cbi 0x8,3
 140               		.loc 1 54 2 discriminator 1 view .LVU49
 141 007c 439A      		sbi 0x8,3
 142               		.loc 1 54 2 discriminator 1 view .LVU50
 143               		.loc 1 54 2 discriminator 1 view .LVU51
 144 007e 8091 0000 		lds r24,display
 145 0082 8150      		subi r24,lo8(-(-1))
 146 0084 85B9      		out 0x5,r24
 147               		.loc 1 54 2 discriminator 1 view .LVU52
 148 0086 4398      		cbi 0x8,3
 149               		.loc 1 54 2 discriminator 1 view .LVU53
 150 0088 439A      		sbi 0x8,3
 151               		.loc 1 54 2 discriminator 1 view .LVU54
 152               		.loc 1 54 31 discriminator 1 view .LVU55
  55:lcd.c         **** 	write_cmd(PAGE_ADDRESS_SET);
 153               		.loc 1 55 2 discriminator 1 view .LVU56
 154 008a 4498      		cbi 0x8,4
 155               		.loc 1 55 2 discriminator 1 view .LVU57
 156 008c 8BE2      		ldi r24,lo8(43)
 157 008e 85B9      		out 0x5,r24
 158               		.loc 1 55 2 discriminator 1 view .LVU58
 159 0090 4398      		cbi 0x8,3
 160               		.loc 1 55 2 discriminator 1 view .LVU59
 161 0092 439A      		sbi 0x8,3
 162               		.loc 1 55 2 discriminator 1 view .LVU60
 163 0094 449A      		sbi 0x8,4
 164               		.loc 1 55 29 discriminator 1 view .LVU61
  56:lcd.c         **** 	write_data16(0);
 165               		.loc 1 56 2 discriminator 1 view .LVU62
 166 0096 15B8      		out 0x5,__zero_reg__
 167               		.loc 1 56 2 discriminator 1 view .LVU63
 168 0098 4398      		cbi 0x8,3
 169               		.loc 1 56 2 discriminator 1 view .LVU64
 170 009a 439A      		sbi 0x8,3
 171               		.loc 1 56 2 discriminator 1 view .LVU65
 172               		.loc 1 56 2 discriminator 1 view .LVU66
GAS LISTING /tmp/cchFZ4o5.s 			page 5


 173 009c 15B8      		out 0x5,__zero_reg__
 174               		.loc 1 56 2 discriminator 1 view .LVU67
 175 009e 4398      		cbi 0x8,3
 176               		.loc 1 56 2 discriminator 1 view .LVU68
 177 00a0 439A      		sbi 0x8,3
 178               		.loc 1 56 2 discriminator 1 view .LVU69
 179               		.loc 1 56 17 discriminator 1 view .LVU70
  57:lcd.c         **** 	write_data16(display.height-1);
 180               		.loc 1 57 2 discriminator 1 view .LVU71
 181 00a2 8091 0000 		lds r24,display+2
 182 00a6 9091 0000 		lds r25,display+2+1
 183 00aa 0197      		sbiw r24,1
 184 00ac 95B9      		out 0x5,r25
 185               		.loc 1 57 2 discriminator 1 view .LVU72
 186 00ae 4398      		cbi 0x8,3
 187               		.loc 1 57 2 discriminator 1 view .LVU73
 188 00b0 439A      		sbi 0x8,3
 189               		.loc 1 57 2 discriminator 1 view .LVU74
 190               		.loc 1 57 2 discriminator 1 view .LVU75
 191 00b2 8091 0000 		lds r24,display+2
 192 00b6 8150      		subi r24,lo8(-(-1))
 193 00b8 85B9      		out 0x5,r24
 194               		.loc 1 57 2 discriminator 1 view .LVU76
 195 00ba 4398      		cbi 0x8,3
 196               		.loc 1 57 2 discriminator 1 view .LVU77
 197 00bc 439A      		sbi 0x8,3
 198               		.loc 1 57 2 discriminator 1 view .LVU78
 199               		.loc 1 57 32 discriminator 1 view .LVU79
 200               	/* epilogue start */
  58:lcd.c         **** }
 201               		.loc 1 58 1 is_stmt 0 discriminator 1 view .LVU80
 202 00be 0895      		ret
 203               	.L3:
  37:lcd.c         **** 		display.width = LCDHEIGHT;
 204               		.loc 1 37 7 is_stmt 1 view .LVU81
  37:lcd.c         **** 		display.width = LCDHEIGHT;
 205               		.loc 1 37 10 is_stmt 0 view .LVU82
 206 00c0 2130      		cpi r18,1
 207 00c2 3105      		cpc r19,__zero_reg__
 208 00c4 01F4      		brne .L5
  38:lcd.c         **** 		display.height = LCDWIDTH;
 209               		.loc 1 38 3 is_stmt 1 view .LVU83
  38:lcd.c         **** 		display.height = LCDWIDTH;
 210               		.loc 1 38 17 is_stmt 0 view .LVU84
 211 00c6 80E4      		ldi r24,lo8(64)
 212 00c8 91E0      		ldi r25,lo8(1)
 213 00ca 9093 0000 		sts display+1,r25
 214 00ce 8093 0000 		sts display,r24
  39:lcd.c         **** 		write_data(0xE8);
 215               		.loc 1 39 3 is_stmt 1 view .LVU85
  39:lcd.c         **** 		write_data(0xE8);
 216               		.loc 1 39 18 is_stmt 0 view .LVU86
 217 00d2 80EF      		ldi r24,lo8(-16)
 218 00d4 90E0      		ldi r25,0
 219 00d6 9093 0000 		sts display+2+1,r25
 220 00da 8093 0000 		sts display+2,r24
  40:lcd.c         **** 	}
GAS LISTING /tmp/cchFZ4o5.s 			page 6


 221               		.loc 1 40 3 is_stmt 1 view .LVU87
 222 00de 88EE      		ldi r24,lo8(-24)
 223 00e0 00C0      		rjmp .L7
 224               	.L5:
  42:lcd.c         **** 		display.width = LCDWIDTH;
 225               		.loc 1 42 7 view .LVU88
  42:lcd.c         **** 		display.width = LCDWIDTH;
 226               		.loc 1 42 10 is_stmt 0 view .LVU89
 227 00e2 2230      		cpi r18,2
 228 00e4 3105      		cpc r19,__zero_reg__
 229 00e6 01F4      		brne .L6
  43:lcd.c         **** 		display.height = LCDHEIGHT;
 230               		.loc 1 43 3 is_stmt 1 view .LVU90
  43:lcd.c         **** 		display.height = LCDHEIGHT;
 231               		.loc 1 43 17 is_stmt 0 view .LVU91
 232 00e8 80EF      		ldi r24,lo8(-16)
 233 00ea 90E0      		ldi r25,0
 234 00ec 9093 0000 		sts display+1,r25
 235 00f0 8093 0000 		sts display,r24
  44:lcd.c         **** 		write_data(0x88);
 236               		.loc 1 44 3 is_stmt 1 view .LVU92
  44:lcd.c         **** 		write_data(0x88);
 237               		.loc 1 44 18 is_stmt 0 view .LVU93
 238 00f4 80E4      		ldi r24,lo8(64)
 239 00f6 91E0      		ldi r25,lo8(1)
 240 00f8 9093 0000 		sts display+2+1,r25
 241 00fc 8093 0000 		sts display+2,r24
  45:lcd.c         **** 	}
 242               		.loc 1 45 3 is_stmt 1 view .LVU94
 243 0100 88E8      		ldi r24,lo8(-120)
 244 0102 00C0      		rjmp .L7
 245               	.L6:
  47:lcd.c         **** 		display.width = LCDHEIGHT;
 246               		.loc 1 47 7 view .LVU95
  47:lcd.c         **** 		display.width = LCDHEIGHT;
 247               		.loc 1 47 10 is_stmt 0 view .LVU96
 248 0104 2330      		cpi r18,3
 249 0106 3105      		cpc r19,__zero_reg__
 250 0108 01F0      		breq .+2
 251 010a 00C0      		rjmp .L4
  48:lcd.c         **** 		display.height = LCDWIDTH;
 252               		.loc 1 48 3 is_stmt 1 view .LVU97
  48:lcd.c         **** 		display.height = LCDWIDTH;
 253               		.loc 1 48 17 is_stmt 0 view .LVU98
 254 010c 80E4      		ldi r24,lo8(64)
 255 010e 91E0      		ldi r25,lo8(1)
 256 0110 9093 0000 		sts display+1,r25
 257 0114 8093 0000 		sts display,r24
  49:lcd.c         **** 		write_data(0x28);
 258               		.loc 1 49 3 is_stmt 1 view .LVU99
  49:lcd.c         **** 		write_data(0x28);
 259               		.loc 1 49 18 is_stmt 0 view .LVU100
 260 0118 80EF      		ldi r24,lo8(-16)
 261 011a 90E0      		ldi r25,0
 262 011c 9093 0000 		sts display+2+1,r25
 263 0120 8093 0000 		sts display+2,r24
  50:lcd.c         **** 	}
GAS LISTING /tmp/cchFZ4o5.s 			page 7


 264               		.loc 1 50 3 is_stmt 1 view .LVU101
 265 0124 88E2      		ldi r24,lo8(40)
 266 0126 00C0      		rjmp .L7
 267               		.cfi_endproc
 268               	.LFE2:
 269               		.size	set_orientation, .-set_orientation
 270               	.global	fill_rectangle
 271               		.type	fill_rectangle, @function
 272               	fill_rectangle:
 273               	.LVL3:
 274               	.LFB3:
  59:lcd.c         **** 
  60:lcd.c         **** void fill_rectangle(rectangle r, uint16_t col)
  61:lcd.c         **** {
 275               		.loc 1 61 1 view -0
 276               		.cfi_startproc
 277               		.loc 1 61 1 is_stmt 0 view .LVU103
 278 0128 0F93      		push r16
 279               		.cfi_def_cfa_offset 3
 280               		.cfi_offset 16, -2
 281 012a 1F93      		push r17
 282               		.cfi_def_cfa_offset 4
 283               		.cfi_offset 17, -3
 284 012c CF93      		push r28
 285               		.cfi_def_cfa_offset 5
 286               		.cfi_offset 28, -4
 287 012e DF93      		push r29
 288               		.cfi_def_cfa_offset 6
 289               		.cfi_offset 29, -5
 290 0130 CDB7      		in r28,__SP_L__
 291 0132 DEB7      		in r29,__SP_H__
 292               		.cfi_def_cfa_register 28
 293 0134 2897      		sbiw r28,8
 294               		.cfi_def_cfa_offset 14
 295 0136 0FB6      		in __tmp_reg__,__SREG__
 296 0138 F894      		cli
 297 013a DEBF      		out __SP_H__,r29
 298 013c 0FBE      		out __SREG__,__tmp_reg__
 299 013e CDBF      		out __SP_L__,r28
 300               	/* prologue: function */
 301               	/* frame size = 8 */
 302               	/* stack size = 12 */
 303               	.L__stack_usage = 12
 304 0140 2983      		std Y+1,r18
 305 0142 3A83      		std Y+2,r19
 306 0144 4B83      		std Y+3,r20
 307 0146 5C83      		std Y+4,r21
 308 0148 462F      		mov r20,r22
 309 014a 6D83      		std Y+5,r22
 310 014c 572F      		mov r21,r23
 311 014e 7E83      		std Y+6,r23
 312 0150 8F83      		std Y+7,r24
 313 0152 9887      		std Y+8,r25
 314 0154 8981      		ldd r24,Y+1
 315 0156 9A81      		ldd r25,Y+2
 316               	.LVL4:
 317               		.loc 1 61 1 view .LVU104
GAS LISTING /tmp/cchFZ4o5.s 			page 8


 318 0158 6B81      		ldd r22,Y+3
 319 015a 7C81      		ldd r23,Y+4
 320               	.LVL5:
 321               		.loc 1 61 1 view .LVU105
 322 015c EF81      		ldd r30,Y+7
 323 015e F885      		ldd r31,Y+8
 324               	.LVL6:
  62:lcd.c         **** 	uint16_t x, y;
 325               		.loc 1 62 2 is_stmt 1 view .LVU106
  63:lcd.c         **** 	write_cmd(COLUMN_ADDRESS_SET);
 326               		.loc 1 63 2 view .LVU107
 327 0160 4498      		cbi 0x8,4
 328               		.loc 1 63 2 view .LVU108
 329 0162 2AE2      		ldi r18,lo8(42)
 330 0164 25B9      		out 0x5,r18
 331               		.loc 1 63 2 view .LVU109
 332 0166 4398      		cbi 0x8,3
 333               		.loc 1 63 2 view .LVU110
 334 0168 439A      		sbi 0x8,3
 335               		.loc 1 63 2 view .LVU111
 336 016a 449A      		sbi 0x8,4
 337               		.loc 1 63 31 view .LVU112
  64:lcd.c         **** 	write_data16(r.left);
 338               		.loc 1 64 2 view .LVU113
 339 016c 95B9      		out 0x5,r25
 340               		.loc 1 64 2 view .LVU114
 341 016e 4398      		cbi 0x8,3
 342               		.loc 1 64 2 view .LVU115
 343 0170 439A      		sbi 0x8,3
 344               		.loc 1 64 2 view .LVU116
 345               		.loc 1 64 2 view .LVU117
 346 0172 85B9      		out 0x5,r24
 347               		.loc 1 64 2 view .LVU118
 348 0174 4398      		cbi 0x8,3
 349               		.loc 1 64 2 view .LVU119
 350 0176 439A      		sbi 0x8,3
 351               		.loc 1 64 2 view .LVU120
 352               		.loc 1 64 22 view .LVU121
  65:lcd.c         **** 	write_data16(r.right);
 353               		.loc 1 65 2 view .LVU122
 354 0178 75B9      		out 0x5,r23
 355               		.loc 1 65 2 view .LVU123
 356 017a 4398      		cbi 0x8,3
 357               		.loc 1 65 2 view .LVU124
 358 017c 439A      		sbi 0x8,3
 359               		.loc 1 65 2 view .LVU125
 360               		.loc 1 65 2 view .LVU126
 361 017e 65B9      		out 0x5,r22
 362               		.loc 1 65 2 view .LVU127
 363 0180 4398      		cbi 0x8,3
 364               		.loc 1 65 2 view .LVU128
 365 0182 439A      		sbi 0x8,3
 366               		.loc 1 65 2 view .LVU129
 367               		.loc 1 65 23 view .LVU130
  66:lcd.c         **** 	write_cmd(PAGE_ADDRESS_SET);
 368               		.loc 1 66 2 view .LVU131
 369 0184 4498      		cbi 0x8,4
GAS LISTING /tmp/cchFZ4o5.s 			page 9


 370               		.loc 1 66 2 view .LVU132
 371 0186 2BE2      		ldi r18,lo8(43)
 372 0188 25B9      		out 0x5,r18
 373               		.loc 1 66 2 view .LVU133
 374 018a 4398      		cbi 0x8,3
 375               		.loc 1 66 2 view .LVU134
 376 018c 439A      		sbi 0x8,3
 377               		.loc 1 66 2 view .LVU135
 378 018e 449A      		sbi 0x8,4
 379               		.loc 1 66 29 view .LVU136
  67:lcd.c         **** 	write_data16(r.top);
 380               		.loc 1 67 2 view .LVU137
 381 0190 55B9      		out 0x5,r21
 382               		.loc 1 67 2 view .LVU138
 383 0192 4398      		cbi 0x8,3
 384               		.loc 1 67 2 view .LVU139
 385 0194 439A      		sbi 0x8,3
 386               		.loc 1 67 2 view .LVU140
 387               		.loc 1 67 2 view .LVU141
 388 0196 45B9      		out 0x5,r20
 389               		.loc 1 67 2 view .LVU142
 390 0198 4398      		cbi 0x8,3
 391               		.loc 1 67 2 view .LVU143
 392 019a 439A      		sbi 0x8,3
 393               		.loc 1 67 2 view .LVU144
 394               		.loc 1 67 21 view .LVU145
  68:lcd.c         **** 	write_data16(r.bottom);
 395               		.loc 1 68 2 view .LVU146
 396 019c F5B9      		out 0x5,r31
 397               		.loc 1 68 2 view .LVU147
 398 019e 4398      		cbi 0x8,3
 399               		.loc 1 68 2 view .LVU148
 400 01a0 439A      		sbi 0x8,3
 401               		.loc 1 68 2 view .LVU149
 402               		.loc 1 68 2 view .LVU150
 403 01a2 E5B9      		out 0x5,r30
 404               		.loc 1 68 2 view .LVU151
 405 01a4 4398      		cbi 0x8,3
 406               		.loc 1 68 2 view .LVU152
 407 01a6 439A      		sbi 0x8,3
 408               		.loc 1 68 2 view .LVU153
 409               		.loc 1 68 24 view .LVU154
  69:lcd.c         **** 	write_cmd(MEMORY_WRITE);
 410               		.loc 1 69 2 view .LVU155
 411 01a8 4498      		cbi 0x8,4
 412               		.loc 1 69 2 view .LVU156
 413 01aa 2CE2      		ldi r18,lo8(44)
 414 01ac 25B9      		out 0x5,r18
 415               		.loc 1 69 2 view .LVU157
 416 01ae 4398      		cbi 0x8,3
 417               		.loc 1 69 2 view .LVU158
 418 01b0 439A      		sbi 0x8,3
 419               		.loc 1 69 2 view .LVU159
 420 01b2 449A      		sbi 0x8,4
 421               		.loc 1 69 25 view .LVU160
  70:lcd.c         **** 	for(x=r.left; x<=r.right; x++)
 422               		.loc 1 70 2 view .LVU161
GAS LISTING /tmp/cchFZ4o5.s 			page 10


 423               	.LVL7:
 424               	.L9:
 425               		.loc 1 70 17 discriminator 1 view .LVU162
 426 01b4 6817      		cp r22,r24
 427 01b6 7907      		cpc r23,r25
 428 01b8 00F4      		brsh .L12
 429               	/* epilogue start */
  71:lcd.c         **** 		for(y=r.top; y<=r.bottom; y++)
  72:lcd.c         **** 			write_data16(col);
  73:lcd.c         **** }
 430               		.loc 1 73 1 is_stmt 0 view .LVU163
 431 01ba 2896      		adiw r28,8
 432 01bc 0FB6      		in __tmp_reg__,__SREG__
 433 01be F894      		cli
 434 01c0 DEBF      		out __SP_H__,r29
 435 01c2 0FBE      		out __SREG__,__tmp_reg__
 436 01c4 CDBF      		out __SP_L__,r28
 437 01c6 DF91      		pop r29
 438 01c8 CF91      		pop r28
 439 01ca 1F91      		pop r17
 440 01cc 0F91      		pop r16
 441               	.LVL8:
 442               		.loc 1 73 1 view .LVU164
 443 01ce 0895      		ret
 444               	.LVL9:
 445               	.L10:
  72:lcd.c         **** }
 446               		.loc 1 72 4 is_stmt 1 discriminator 3 view .LVU165
 447 01d0 15B9      		out 0x5,r17
  72:lcd.c         **** }
 448               		.loc 1 72 4 discriminator 3 view .LVU166
 449 01d2 4398      		cbi 0x8,3
  72:lcd.c         **** }
 450               		.loc 1 72 4 discriminator 3 view .LVU167
 451 01d4 439A      		sbi 0x8,3
  72:lcd.c         **** }
 452               		.loc 1 72 4 discriminator 3 view .LVU168
  72:lcd.c         **** }
 453               		.loc 1 72 4 discriminator 3 view .LVU169
 454 01d6 05B9      		out 0x5,r16
  72:lcd.c         **** }
 455               		.loc 1 72 4 discriminator 3 view .LVU170
 456 01d8 4398      		cbi 0x8,3
  72:lcd.c         **** }
 457               		.loc 1 72 4 discriminator 3 view .LVU171
 458 01da 439A      		sbi 0x8,3
  72:lcd.c         **** }
 459               		.loc 1 72 4 discriminator 3 view .LVU172
  71:lcd.c         **** 		for(y=r.top; y<=r.bottom; y++)
 460               		.loc 1 71 30 discriminator 3 view .LVU173
 461 01dc 2F5F      		subi r18,-1
 462 01de 3F4F      		sbci r19,-1
 463               	.LVL10:
 464               	.L11:
  71:lcd.c         **** 		for(y=r.top; y<=r.bottom; y++)
 465               		.loc 1 71 17 discriminator 1 view .LVU174
 466 01e0 E217      		cp r30,r18
GAS LISTING /tmp/cchFZ4o5.s 			page 11


 467 01e2 F307      		cpc r31,r19
 468 01e4 00F4      		brsh .L10
  70:lcd.c         **** 	for(x=r.left; x<=r.right; x++)
 469               		.loc 1 70 29 discriminator 2 view .LVU175
 470 01e6 0196      		adiw r24,1
 471               	.LVL11:
  70:lcd.c         **** 	for(x=r.left; x<=r.right; x++)
 472               		.loc 1 70 29 is_stmt 0 discriminator 2 view .LVU176
 473 01e8 00C0      		rjmp .L9
 474               	.LVL12:
 475               	.L12:
  71:lcd.c         **** 		for(y=r.top; y<=r.bottom; y++)
 476               		.loc 1 71 8 view .LVU177
 477 01ea 9A01      		movw r18,r20
 478 01ec 00C0      		rjmp .L11
 479               		.cfi_endproc
 480               	.LFE3:
 481               		.size	fill_rectangle, .-fill_rectangle
 482               	.global	fill_rectangle_indexed
 483               		.type	fill_rectangle_indexed, @function
 484               	fill_rectangle_indexed:
 485               	.LVL13:
 486               	.LFB4:
  74:lcd.c         **** 
  75:lcd.c         **** void fill_rectangle_indexed(rectangle r, uint16_t* col)
  76:lcd.c         **** {
 487               		.loc 1 76 1 is_stmt 1 view -0
 488               		.cfi_startproc
 489               		.loc 1 76 1 is_stmt 0 view .LVU179
 490 01ee 0F93      		push r16
 491               		.cfi_def_cfa_offset 3
 492               		.cfi_offset 16, -2
 493 01f0 1F93      		push r17
 494               		.cfi_def_cfa_offset 4
 495               		.cfi_offset 17, -3
 496 01f2 CF93      		push r28
 497               		.cfi_def_cfa_offset 5
 498               		.cfi_offset 28, -4
 499 01f4 DF93      		push r29
 500               		.cfi_def_cfa_offset 6
 501               		.cfi_offset 29, -5
 502 01f6 CDB7      		in r28,__SP_L__
 503 01f8 DEB7      		in r29,__SP_H__
 504               		.cfi_def_cfa_register 28
 505 01fa 2897      		sbiw r28,8
 506               		.cfi_def_cfa_offset 14
 507 01fc 0FB6      		in __tmp_reg__,__SREG__
 508 01fe F894      		cli
 509 0200 DEBF      		out __SP_H__,r29
 510 0202 0FBE      		out __SREG__,__tmp_reg__
 511 0204 CDBF      		out __SP_L__,r28
 512               	/* prologue: function */
 513               	/* frame size = 8 */
 514               	/* stack size = 12 */
 515               	.L__stack_usage = 12
 516 0206 2983      		std Y+1,r18
 517 0208 3A83      		std Y+2,r19
GAS LISTING /tmp/cchFZ4o5.s 			page 12


 518 020a 4B83      		std Y+3,r20
 519 020c 5C83      		std Y+4,r21
 520 020e 562F      		mov r21,r22
 521 0210 6D83      		std Y+5,r22
 522 0212 472F      		mov r20,r23
 523 0214 7E83      		std Y+6,r23
 524 0216 8F83      		std Y+7,r24
 525 0218 9887      		std Y+8,r25
 526 021a 2981      		ldd r18,Y+1
 527 021c 3A81      		ldd r19,Y+2
 528               	.LVL14:
 529               		.loc 1 76 1 view .LVU180
 530 021e AB81      		ldd r26,Y+3
 531 0220 BC81      		ldd r27,Y+4
 532               	.LVL15:
 533               		.loc 1 76 1 view .LVU181
 534 0222 6F81      		ldd r22,Y+7
 535 0224 7885      		ldd r23,Y+8
 536               	.LVL16:
  77:lcd.c         **** 	uint16_t x, y;
 537               		.loc 1 77 2 is_stmt 1 view .LVU182
  78:lcd.c         **** 	write_cmd(COLUMN_ADDRESS_SET);
 538               		.loc 1 78 2 view .LVU183
 539 0226 4498      		cbi 0x8,4
 540               		.loc 1 78 2 view .LVU184
 541 0228 8AE2      		ldi r24,lo8(42)
 542 022a 85B9      		out 0x5,r24
 543               		.loc 1 78 2 view .LVU185
 544 022c 4398      		cbi 0x8,3
 545               		.loc 1 78 2 view .LVU186
 546 022e 439A      		sbi 0x8,3
 547               		.loc 1 78 2 view .LVU187
 548 0230 449A      		sbi 0x8,4
 549               		.loc 1 78 31 view .LVU188
  79:lcd.c         **** 	write_data16(r.left);
 550               		.loc 1 79 2 view .LVU189
 551 0232 35B9      		out 0x5,r19
 552               		.loc 1 79 2 view .LVU190
 553 0234 4398      		cbi 0x8,3
 554               		.loc 1 79 2 view .LVU191
 555 0236 439A      		sbi 0x8,3
 556               		.loc 1 79 2 view .LVU192
 557               		.loc 1 79 2 view .LVU193
 558 0238 25B9      		out 0x5,r18
 559               		.loc 1 79 2 view .LVU194
 560 023a 4398      		cbi 0x8,3
 561               		.loc 1 79 2 view .LVU195
 562 023c 439A      		sbi 0x8,3
 563               		.loc 1 79 2 view .LVU196
 564               		.loc 1 79 22 view .LVU197
  80:lcd.c         **** 	write_data16(r.right);
 565               		.loc 1 80 2 view .LVU198
 566 023e B5B9      		out 0x5,r27
 567               		.loc 1 80 2 view .LVU199
 568 0240 4398      		cbi 0x8,3
 569               		.loc 1 80 2 view .LVU200
 570 0242 439A      		sbi 0x8,3
GAS LISTING /tmp/cchFZ4o5.s 			page 13


 571               		.loc 1 80 2 view .LVU201
 572               		.loc 1 80 2 view .LVU202
 573 0244 A5B9      		out 0x5,r26
 574               		.loc 1 80 2 view .LVU203
 575 0246 4398      		cbi 0x8,3
 576               		.loc 1 80 2 view .LVU204
 577 0248 439A      		sbi 0x8,3
 578               		.loc 1 80 2 view .LVU205
 579               		.loc 1 80 23 view .LVU206
  81:lcd.c         **** 	write_cmd(PAGE_ADDRESS_SET);
 580               		.loc 1 81 2 view .LVU207
 581 024a 4498      		cbi 0x8,4
 582               		.loc 1 81 2 view .LVU208
 583 024c 8BE2      		ldi r24,lo8(43)
 584 024e 85B9      		out 0x5,r24
 585               		.loc 1 81 2 view .LVU209
 586 0250 4398      		cbi 0x8,3
 587               		.loc 1 81 2 view .LVU210
 588 0252 439A      		sbi 0x8,3
 589               		.loc 1 81 2 view .LVU211
 590 0254 449A      		sbi 0x8,4
 591               		.loc 1 81 29 view .LVU212
  82:lcd.c         **** 	write_data16(r.top);
 592               		.loc 1 82 2 view .LVU213
 593 0256 45B9      		out 0x5,r20
 594               		.loc 1 82 2 view .LVU214
 595 0258 4398      		cbi 0x8,3
 596               		.loc 1 82 2 view .LVU215
 597 025a 439A      		sbi 0x8,3
 598               		.loc 1 82 2 view .LVU216
 599               		.loc 1 82 2 view .LVU217
 600 025c 55B9      		out 0x5,r21
 601               		.loc 1 82 2 view .LVU218
 602 025e 4398      		cbi 0x8,3
 603               		.loc 1 82 2 view .LVU219
 604 0260 439A      		sbi 0x8,3
 605               		.loc 1 82 2 view .LVU220
 606               		.loc 1 82 21 view .LVU221
  83:lcd.c         **** 	write_data16(r.bottom);
 607               		.loc 1 83 2 view .LVU222
 608 0262 75B9      		out 0x5,r23
 609               		.loc 1 83 2 view .LVU223
 610 0264 4398      		cbi 0x8,3
 611               		.loc 1 83 2 view .LVU224
 612 0266 439A      		sbi 0x8,3
 613               		.loc 1 83 2 view .LVU225
 614               		.loc 1 83 2 view .LVU226
 615 0268 65B9      		out 0x5,r22
 616               		.loc 1 83 2 view .LVU227
 617 026a 4398      		cbi 0x8,3
 618               		.loc 1 83 2 view .LVU228
 619 026c 439A      		sbi 0x8,3
 620               		.loc 1 83 2 view .LVU229
 621               		.loc 1 83 24 view .LVU230
  84:lcd.c         **** 	write_cmd(MEMORY_WRITE);
 622               		.loc 1 84 2 view .LVU231
 623 026e 4498      		cbi 0x8,4
GAS LISTING /tmp/cchFZ4o5.s 			page 14


 624               		.loc 1 84 2 view .LVU232
 625 0270 8CE2      		ldi r24,lo8(44)
 626 0272 85B9      		out 0x5,r24
 627               		.loc 1 84 2 view .LVU233
 628 0274 4398      		cbi 0x8,3
 629               		.loc 1 84 2 view .LVU234
 630 0276 439A      		sbi 0x8,3
 631               		.loc 1 84 2 view .LVU235
 632 0278 449A      		sbi 0x8,4
 633               		.loc 1 84 25 view .LVU236
  85:lcd.c         **** 	for(x=r.left; x<=r.right; x++)
 634               		.loc 1 85 2 view .LVU237
 635               	.LVL17:
 636               	.L14:
 637               		.loc 1 85 17 discriminator 1 view .LVU238
 638 027a A217      		cp r26,r18
 639 027c B307      		cpc r27,r19
 640 027e 00F0      		brlo .L13
 641               		.loc 1 85 17 is_stmt 0 discriminator 1 view .LVU239
 642 0280 F801      		movw r30,r16
  86:lcd.c         **** 		for(y=r.top; y<=r.bottom; y++)
 643               		.loc 1 86 8 view .LVU240
 644 0282 852F      		mov r24,r21
 645 0284 942F      		mov r25,r20
 646 0286 00C0      		rjmp .L17
 647               	.LVL18:
 648               	.L15:
  87:lcd.c         **** 			write_data16(*col++);
 649               		.loc 1 87 4 is_stmt 1 discriminator 3 view .LVU241
 650               		.loc 1 87 4 is_stmt 0 discriminator 3 view .LVU242
 651 0288 1181      		ldd r17,Z+1
 652 028a 15B9      		out 0x5,r17
 653               		.loc 1 87 4 is_stmt 1 discriminator 3 view .LVU243
 654 028c 4398      		cbi 0x8,3
 655               		.loc 1 87 4 discriminator 3 view .LVU244
 656 028e 439A      		sbi 0x8,3
 657               		.loc 1 87 4 discriminator 3 view .LVU245
 658               		.loc 1 87 4 discriminator 3 view .LVU246
 659               	.LVL19:
 660               		.loc 1 87 4 is_stmt 0 discriminator 3 view .LVU247
 661 0290 1281      		ldd r17,Z+2
 662 0292 15B9      		out 0x5,r17
 663               		.loc 1 87 4 is_stmt 1 discriminator 3 view .LVU248
 664 0294 4398      		cbi 0x8,3
 665               		.loc 1 87 4 discriminator 3 view .LVU249
 666 0296 439A      		sbi 0x8,3
 667               		.loc 1 87 4 discriminator 3 view .LVU250
  86:lcd.c         **** 		for(y=r.top; y<=r.bottom; y++)
 668               		.loc 1 86 30 discriminator 3 view .LVU251
 669 0298 0196      		adiw r24,1
 670               	.LVL20:
  86:lcd.c         **** 		for(y=r.top; y<=r.bottom; y++)
 671               		.loc 1 86 30 is_stmt 0 discriminator 3 view .LVU252
 672 029a 3496      		adiw r30,4
 673               	.LVL21:
 674               	.L17:
  86:lcd.c         **** 		for(y=r.top; y<=r.bottom; y++)
GAS LISTING /tmp/cchFZ4o5.s 			page 15


 675               		.loc 1 86 30 discriminator 3 view .LVU253
 676 029c 8F01      		movw r16,r30
 677               	.LVL22:
  86:lcd.c         **** 		for(y=r.top; y<=r.bottom; y++)
 678               		.loc 1 86 17 is_stmt 1 discriminator 1 view .LVU254
 679 029e 6817      		cp r22,r24
 680 02a0 7907      		cpc r23,r25
 681 02a2 00F4      		brsh .L15
  85:lcd.c         **** 	for(x=r.left; x<=r.right; x++)
 682               		.loc 1 85 29 discriminator 2 view .LVU255
 683 02a4 2F5F      		subi r18,-1
 684 02a6 3F4F      		sbci r19,-1
 685               	.LVL23:
  85:lcd.c         **** 	for(x=r.left; x<=r.right; x++)
 686               		.loc 1 85 29 is_stmt 0 discriminator 2 view .LVU256
 687 02a8 00C0      		rjmp .L14
 688               	.LVL24:
 689               	.L13:
 690               	/* epilogue start */
  88:lcd.c         **** }
 691               		.loc 1 88 1 view .LVU257
 692 02aa 2896      		adiw r28,8
 693 02ac 0FB6      		in __tmp_reg__,__SREG__
 694 02ae F894      		cli
 695 02b0 DEBF      		out __SP_H__,r29
 696 02b2 0FBE      		out __SREG__,__tmp_reg__
 697 02b4 CDBF      		out __SP_L__,r28
 698 02b6 DF91      		pop r29
 699 02b8 CF91      		pop r28
 700 02ba 1F91      		pop r17
 701               	.LVL25:
 702               		.loc 1 88 1 view .LVU258
 703 02bc 0F91      		pop r16
 704               		.loc 1 88 1 view .LVU259
 705 02be 0895      		ret
 706               		.cfi_endproc
 707               	.LFE4:
 708               		.size	fill_rectangle_indexed, .-fill_rectangle_indexed
 709               	.global	init_graphics
 710               		.type	init_graphics, @function
 711               	init_graphics:
 712               	.LFB5:
  89:lcd.c         **** 
  90:lcd.c         **** void init_graphics()
  91:lcd.c         **** {
 713               		.loc 1 91 1 is_stmt 1 view -0
 714               		.cfi_startproc
 715               	/* prologue: function */
 716               	/* frame size = 0 */
 717               	/* stack size = 0 */
 718               	.L__stack_usage = 0
  92:lcd.c         **** 	uint16_t x, y;
 719               		.loc 1 92 2 view .LVU261
  93:lcd.c         **** 	write_cmd(COLUMN_ADDRESS_SET);
 720               		.loc 1 93 2 view .LVU262
 721 02c0 4498      		cbi 0x8,4
 722               		.loc 1 93 2 view .LVU263
GAS LISTING /tmp/cchFZ4o5.s 			page 16


 723 02c2 8AE2      		ldi r24,lo8(42)
 724 02c4 85B9      		out 0x5,r24
 725               		.loc 1 93 2 view .LVU264
 726 02c6 4398      		cbi 0x8,3
 727               		.loc 1 93 2 view .LVU265
 728 02c8 439A      		sbi 0x8,3
 729               		.loc 1 93 2 view .LVU266
 730 02ca 449A      		sbi 0x8,4
 731               		.loc 1 93 31 view .LVU267
  94:lcd.c         **** 	write_data16(0);
 732               		.loc 1 94 2 view .LVU268
 733 02cc 15B8      		out 0x5,__zero_reg__
 734               		.loc 1 94 2 view .LVU269
 735 02ce 4398      		cbi 0x8,3
 736               		.loc 1 94 2 view .LVU270
 737 02d0 439A      		sbi 0x8,3
 738               		.loc 1 94 2 view .LVU271
 739               		.loc 1 94 2 view .LVU272
 740 02d2 15B8      		out 0x5,__zero_reg__
 741               		.loc 1 94 2 view .LVU273
 742 02d4 4398      		cbi 0x8,3
 743               		.loc 1 94 2 view .LVU274
 744 02d6 439A      		sbi 0x8,3
 745               		.loc 1 94 2 view .LVU275
 746               		.loc 1 94 17 view .LVU276
  95:lcd.c         **** 	write_data16(240);
 747               		.loc 1 95 2 view .LVU277
 748 02d8 15B8      		out 0x5,__zero_reg__
 749               		.loc 1 95 2 view .LVU278
 750 02da 4398      		cbi 0x8,3
 751               		.loc 1 95 2 view .LVU279
 752 02dc 439A      		sbi 0x8,3
 753               		.loc 1 95 2 view .LVU280
 754               		.loc 1 95 2 view .LVU281
 755 02de 80EF      		ldi r24,lo8(-16)
 756 02e0 85B9      		out 0x5,r24
 757               		.loc 1 95 2 view .LVU282
 758 02e2 4398      		cbi 0x8,3
 759               		.loc 1 95 2 view .LVU283
 760 02e4 439A      		sbi 0x8,3
 761               		.loc 1 95 2 view .LVU284
 762               		.loc 1 95 19 view .LVU285
  96:lcd.c         **** 	write_cmd(PAGE_ADDRESS_SET);
 763               		.loc 1 96 2 view .LVU286
 764 02e6 4498      		cbi 0x8,4
 765               		.loc 1 96 2 view .LVU287
 766 02e8 8BE2      		ldi r24,lo8(43)
 767 02ea 85B9      		out 0x5,r24
 768               		.loc 1 96 2 view .LVU288
 769 02ec 4398      		cbi 0x8,3
 770               		.loc 1 96 2 view .LVU289
 771 02ee 439A      		sbi 0x8,3
 772               		.loc 1 96 2 view .LVU290
 773 02f0 449A      		sbi 0x8,4
 774               		.loc 1 96 29 view .LVU291
  97:lcd.c         **** 	write_data16(0);
 775               		.loc 1 97 2 view .LVU292
GAS LISTING /tmp/cchFZ4o5.s 			page 17


 776 02f2 15B8      		out 0x5,__zero_reg__
 777               		.loc 1 97 2 view .LVU293
 778 02f4 4398      		cbi 0x8,3
 779               		.loc 1 97 2 view .LVU294
 780 02f6 439A      		sbi 0x8,3
 781               		.loc 1 97 2 view .LVU295
 782               		.loc 1 97 2 view .LVU296
 783 02f8 15B8      		out 0x5,__zero_reg__
 784               		.loc 1 97 2 view .LVU297
 785 02fa 4398      		cbi 0x8,3
 786               		.loc 1 97 2 view .LVU298
 787 02fc 439A      		sbi 0x8,3
 788               		.loc 1 97 2 view .LVU299
 789               		.loc 1 97 17 view .LVU300
  98:lcd.c         **** 	write_data16(320);
 790               		.loc 1 98 2 view .LVU301
 791 02fe 81E0      		ldi r24,lo8(1)
 792 0300 85B9      		out 0x5,r24
 793               		.loc 1 98 2 view .LVU302
 794 0302 4398      		cbi 0x8,3
 795               		.loc 1 98 2 view .LVU303
 796 0304 439A      		sbi 0x8,3
 797               		.loc 1 98 2 view .LVU304
 798               		.loc 1 98 2 view .LVU305
 799 0306 80E4      		ldi r24,lo8(64)
 800 0308 85B9      		out 0x5,r24
 801               		.loc 1 98 2 view .LVU306
 802 030a 4398      		cbi 0x8,3
 803               		.loc 1 98 2 view .LVU307
 804 030c 439A      		sbi 0x8,3
 805               		.loc 1 98 2 view .LVU308
 806               		.loc 1 98 19 view .LVU309
  99:lcd.c         **** 	write_cmd(MEMORY_WRITE);
 807               		.loc 1 99 2 view .LVU310
 808 030e 4498      		cbi 0x8,4
 809               		.loc 1 99 2 view .LVU311
 810 0310 8CE2      		ldi r24,lo8(44)
 811 0312 85B9      		out 0x5,r24
 812               		.loc 1 99 2 view .LVU312
 813 0314 4398      		cbi 0x8,3
 814               		.loc 1 99 2 view .LVU313
 815 0316 439A      		sbi 0x8,3
 816               		.loc 1 99 2 view .LVU314
 817 0318 449A      		sbi 0x8,4
 818               		.loc 1 99 25 view .LVU315
 100:lcd.c         **** 	for(y = 0; y <= 79; y++){
 819               		.loc 1 100 2 view .LVU316
 820               	.LVL26:
 821               		.loc 1 100 15 view .LVU317
 822 031a 20E0      		ldi r18,lo8(bg1_1)
 823 031c 30E0      		ldi r19,hi8(bg1_1)
  99:lcd.c         **** 	write_cmd(MEMORY_WRITE);
 824               		.loc 1 99 2 is_stmt 0 view .LVU318
 825 031e 60E0      		ldi r22,0
 826 0320 70E0      		ldi r23,0
 827               	.LVL27:
 828               	.L19:
GAS LISTING /tmp/cchFZ4o5.s 			page 18


 101:lcd.c         **** 		for(x = 0; x <= 119; x++){
 829               		.loc 1 101 16 is_stmt 1 view .LVU319
  91:lcd.c         **** 	uint16_t x, y;
 830               		.loc 1 91 1 is_stmt 0 view .LVU320
 831 0322 C901      		movw r24,r18
 832               		.loc 1 101 9 view .LVU321
 833 0324 40E0      		ldi r20,0
 834 0326 50E0      		ldi r21,0
 835               	.LVL28:
 836               	.L20:
 102:lcd.c         **** 			write_data16(pgm_read_word(&bg1_1[x+y*120]));
 837               		.loc 1 102 4 is_stmt 1 discriminator 3 view .LVU322
 838               	.LBB2:
 839               		.loc 1 102 4 discriminator 3 view .LVU323
 840               		.loc 1 102 4 discriminator 3 view .LVU324
 841               		.loc 1 102 4 discriminator 3 view .LVU325
 842 0328 FC01      		movw r30,r24
 843               	/* #APP */
 844               	 ;  102 "lcd.c" 1
 845 032a A591      		lpm r26, Z+
 846 032c B491      		lpm r27, Z
 847               		
 848               	 ;  0 "" 2
 849               	.LVL29:
 850               		.loc 1 102 4 discriminator 3 view .LVU326
 851               	/* #NOAPP */
 852               	.LBE2:
 853 032e B5B9      		out 0x5,r27
 854               		.loc 1 102 4 discriminator 3 view .LVU327
 855 0330 4398      		cbi 0x8,3
 856               		.loc 1 102 4 discriminator 3 view .LVU328
 857 0332 439A      		sbi 0x8,3
 858               		.loc 1 102 4 discriminator 3 view .LVU329
 859               		.loc 1 102 4 discriminator 3 view .LVU330
 860               	.LBB3:
 861               		.loc 1 102 4 discriminator 3 view .LVU331
 862               	.LVL30:
 863               		.loc 1 102 4 discriminator 3 view .LVU332
 864               		.loc 1 102 4 discriminator 3 view .LVU333
 865 0334 FC01      		movw r30,r24
 866               	/* #APP */
 867               	 ;  102 "lcd.c" 1
 868 0336 A591      		lpm r26, Z+
 869 0338 B491      		lpm r27, Z
 870               		
 871               	 ;  0 "" 2
 872               	.LVL31:
 873               		.loc 1 102 4 discriminator 3 view .LVU334
 874               	/* #NOAPP */
 875               	.LBE3:
 876 033a A5B9      		out 0x5,r26
 877               		.loc 1 102 4 discriminator 3 view .LVU335
 878 033c 4398      		cbi 0x8,3
 879               		.loc 1 102 4 discriminator 3 view .LVU336
 880 033e 439A      		sbi 0x8,3
 881               		.loc 1 102 4 discriminator 3 view .LVU337
 882               		.loc 1 102 48 discriminator 3 view .LVU338
GAS LISTING /tmp/cchFZ4o5.s 			page 19


 103:lcd.c         **** 			write_data16(pgm_read_word(&bg1_1[x+y*120]));
 883               		.loc 1 103 4 discriminator 3 view .LVU339
 884               	.LBB4:
 885               		.loc 1 103 4 discriminator 3 view .LVU340
 886               	.LVL32:
 887               		.loc 1 103 4 discriminator 3 view .LVU341
 888               		.loc 1 103 4 discriminator 3 view .LVU342
 889 0340 FC01      		movw r30,r24
 890               	/* #APP */
 891               	 ;  103 "lcd.c" 1
 892 0342 A591      		lpm r26, Z+
 893 0344 B491      		lpm r27, Z
 894               		
 895               	 ;  0 "" 2
 896               	.LVL33:
 897               		.loc 1 103 4 discriminator 3 view .LVU343
 898               	/* #NOAPP */
 899               	.LBE4:
 900 0346 B5B9      		out 0x5,r27
 901               		.loc 1 103 4 discriminator 3 view .LVU344
 902 0348 4398      		cbi 0x8,3
 903               		.loc 1 103 4 discriminator 3 view .LVU345
 904 034a 439A      		sbi 0x8,3
 905               		.loc 1 103 4 discriminator 3 view .LVU346
 906               		.loc 1 103 4 discriminator 3 view .LVU347
 907               	.LBB5:
 908               		.loc 1 103 4 discriminator 3 view .LVU348
 909               	.LVL34:
 910               		.loc 1 103 4 discriminator 3 view .LVU349
 911               		.loc 1 103 4 discriminator 3 view .LVU350
 912 034c FC01      		movw r30,r24
 913               	/* #APP */
 914               	 ;  103 "lcd.c" 1
 915 034e A591      		lpm r26, Z+
 916 0350 B491      		lpm r27, Z
 917               		
 918               	 ;  0 "" 2
 919               	.LVL35:
 920               		.loc 1 103 4 discriminator 3 view .LVU351
 921               	/* #NOAPP */
 922               	.LBE5:
 923 0352 A5B9      		out 0x5,r26
 924               		.loc 1 103 4 discriminator 3 view .LVU352
 925 0354 4398      		cbi 0x8,3
 926               		.loc 1 103 4 discriminator 3 view .LVU353
 927 0356 439A      		sbi 0x8,3
 928               		.loc 1 103 4 discriminator 3 view .LVU354
 929               		.loc 1 103 48 discriminator 3 view .LVU355
 101:lcd.c         **** 			write_data16(pgm_read_word(&bg1_1[x+y*120]));
 930               		.loc 1 101 25 discriminator 3 view .LVU356
 931 0358 4F5F      		subi r20,-1
 932 035a 5F4F      		sbci r21,-1
 933               	.LVL36:
 101:lcd.c         **** 			write_data16(pgm_read_word(&bg1_1[x+y*120]));
 934               		.loc 1 101 16 discriminator 3 view .LVU357
 935 035c 0296      		adiw r24,2
 936 035e 4837      		cpi r20,120
GAS LISTING /tmp/cchFZ4o5.s 			page 20


 937 0360 5105      		cpc r21,__zero_reg__
 938 0362 01F4      		brne .L20
 939 0364 C901      		movw r24,r18
 104:lcd.c         **** 		}
 105:lcd.c         **** 		for(x = 0; x <= 119; x++){
 940               		.loc 1 105 9 is_stmt 0 view .LVU358
 941 0366 40E0      		ldi r20,0
 942 0368 50E0      		ldi r21,0
 943               	.LVL37:
 944               	.L21:
 106:lcd.c         **** 			write_data16(pgm_read_word(&bg1_1[x+y*120]));
 945               		.loc 1 106 4 is_stmt 1 discriminator 3 view .LVU359
 946               	.LBB6:
 947               		.loc 1 106 4 discriminator 3 view .LVU360
 948               		.loc 1 106 4 discriminator 3 view .LVU361
 949               		.loc 1 106 4 discriminator 3 view .LVU362
 950 036a FC01      		movw r30,r24
 951               	/* #APP */
 952               	 ;  106 "lcd.c" 1
 953 036c A591      		lpm r26, Z+
 954 036e B491      		lpm r27, Z
 955               		
 956               	 ;  0 "" 2
 957               	.LVL38:
 958               		.loc 1 106 4 discriminator 3 view .LVU363
 959               	/* #NOAPP */
 960               	.LBE6:
 961 0370 B5B9      		out 0x5,r27
 962               		.loc 1 106 4 discriminator 3 view .LVU364
 963 0372 4398      		cbi 0x8,3
 964               		.loc 1 106 4 discriminator 3 view .LVU365
 965 0374 439A      		sbi 0x8,3
 966               		.loc 1 106 4 discriminator 3 view .LVU366
 967               		.loc 1 106 4 discriminator 3 view .LVU367
 968               	.LBB7:
 969               		.loc 1 106 4 discriminator 3 view .LVU368
 970               	.LVL39:
 971               		.loc 1 106 4 discriminator 3 view .LVU369
 972               		.loc 1 106 4 discriminator 3 view .LVU370
 973 0376 FC01      		movw r30,r24
 974               	/* #APP */
 975               	 ;  106 "lcd.c" 1
 976 0378 A591      		lpm r26, Z+
 977 037a B491      		lpm r27, Z
 978               		
 979               	 ;  0 "" 2
 980               	.LVL40:
 981               		.loc 1 106 4 discriminator 3 view .LVU371
 982               	/* #NOAPP */
 983               	.LBE7:
 984 037c A5B9      		out 0x5,r26
 985               		.loc 1 106 4 discriminator 3 view .LVU372
 986 037e 4398      		cbi 0x8,3
 987               		.loc 1 106 4 discriminator 3 view .LVU373
 988 0380 439A      		sbi 0x8,3
 989               		.loc 1 106 4 discriminator 3 view .LVU374
 990               		.loc 1 106 48 discriminator 3 view .LVU375
GAS LISTING /tmp/cchFZ4o5.s 			page 21


 107:lcd.c         **** 			write_data16(pgm_read_word(&bg1_1[x+y*120]));
 991               		.loc 1 107 4 discriminator 3 view .LVU376
 992               	.LBB8:
 993               		.loc 1 107 4 discriminator 3 view .LVU377
 994               	.LVL41:
 995               		.loc 1 107 4 discriminator 3 view .LVU378
 996               		.loc 1 107 4 discriminator 3 view .LVU379
 997 0382 FC01      		movw r30,r24
 998               	/* #APP */
 999               	 ;  107 "lcd.c" 1
 1000 0384 A591      		lpm r26, Z+
 1001 0386 B491      		lpm r27, Z
 1002               		
 1003               	 ;  0 "" 2
 1004               	.LVL42:
 1005               		.loc 1 107 4 discriminator 3 view .LVU380
 1006               	/* #NOAPP */
 1007               	.LBE8:
 1008 0388 B5B9      		out 0x5,r27
 1009               		.loc 1 107 4 discriminator 3 view .LVU381
 1010 038a 4398      		cbi 0x8,3
 1011               		.loc 1 107 4 discriminator 3 view .LVU382
 1012 038c 439A      		sbi 0x8,3
 1013               		.loc 1 107 4 discriminator 3 view .LVU383
 1014               		.loc 1 107 4 discriminator 3 view .LVU384
 1015               	.LBB9:
 1016               		.loc 1 107 4 discriminator 3 view .LVU385
 1017               	.LVL43:
 1018               		.loc 1 107 4 discriminator 3 view .LVU386
 1019               		.loc 1 107 4 discriminator 3 view .LVU387
 1020 038e FC01      		movw r30,r24
 1021               	/* #APP */
 1022               	 ;  107 "lcd.c" 1
 1023 0390 A591      		lpm r26, Z+
 1024 0392 B491      		lpm r27, Z
 1025               		
 1026               	 ;  0 "" 2
 1027               	.LVL44:
 1028               		.loc 1 107 4 discriminator 3 view .LVU388
 1029               	/* #NOAPP */
 1030               	.LBE9:
 1031 0394 A5B9      		out 0x5,r26
 1032               		.loc 1 107 4 discriminator 3 view .LVU389
 1033 0396 4398      		cbi 0x8,3
 1034               		.loc 1 107 4 discriminator 3 view .LVU390
 1035 0398 439A      		sbi 0x8,3
 1036               		.loc 1 107 4 discriminator 3 view .LVU391
 1037               		.loc 1 107 48 discriminator 3 view .LVU392
 105:lcd.c         **** 			write_data16(pgm_read_word(&bg1_1[x+y*120]));
 1038               		.loc 1 105 25 discriminator 3 view .LVU393
 1039 039a 4F5F      		subi r20,-1
 1040 039c 5F4F      		sbci r21,-1
 1041               	.LVL45:
 105:lcd.c         **** 			write_data16(pgm_read_word(&bg1_1[x+y*120]));
 1042               		.loc 1 105 16 discriminator 3 view .LVU394
 1043 039e 0296      		adiw r24,2
 1044 03a0 4837      		cpi r20,120
GAS LISTING /tmp/cchFZ4o5.s 			page 22


 1045 03a2 5105      		cpc r21,__zero_reg__
 1046 03a4 01F4      		brne .L21
 100:lcd.c         **** 		for(x = 0; x <= 119; x++){
 1047               		.loc 1 100 23 discriminator 2 view .LVU395
 100:lcd.c         **** 		for(x = 0; x <= 119; x++){
 1048               		.loc 1 100 15 discriminator 2 view .LVU396
 1049 03a6 2051      		subi r18,16
 1050 03a8 3F4F      		sbci r19,-1
 1051 03aa 6858      		subi r22,-120
 1052 03ac 7F4F      		sbci r23,-1
 1053 03ae 6038      		cpi r22,-128
 1054 03b0 85E2      		ldi r24,37
 1055 03b2 7807      		cpc r23,r24
 1056 03b4 01F0      		breq .+2
 1057 03b6 00C0      		rjmp .L19
 108:lcd.c         **** 		}
 109:lcd.c         **** 	}
 110:lcd.c         **** 	write_cmd(COLUMN_ADDRESS_SET);
 1058               		.loc 1 110 2 view .LVU397
 1059 03b8 4498      		cbi 0x8,4
 1060               		.loc 1 110 2 view .LVU398
 1061 03ba 8AE2      		ldi r24,lo8(42)
 1062 03bc 85B9      		out 0x5,r24
 1063               		.loc 1 110 2 view .LVU399
 1064 03be 4398      		cbi 0x8,3
 1065               		.loc 1 110 2 view .LVU400
 1066 03c0 439A      		sbi 0x8,3
 1067               		.loc 1 110 2 view .LVU401
 1068 03c2 449A      		sbi 0x8,4
 1069               		.loc 1 110 31 view .LVU402
 111:lcd.c         **** 	write_data16(0);
 1070               		.loc 1 111 2 view .LVU403
 1071 03c4 15B8      		out 0x5,__zero_reg__
 1072               		.loc 1 111 2 view .LVU404
 1073 03c6 4398      		cbi 0x8,3
 1074               		.loc 1 111 2 view .LVU405
 1075 03c8 439A      		sbi 0x8,3
 1076               		.loc 1 111 2 view .LVU406
 1077               		.loc 1 111 2 view .LVU407
 1078 03ca 15B8      		out 0x5,__zero_reg__
 1079               		.loc 1 111 2 view .LVU408
 1080 03cc 4398      		cbi 0x8,3
 1081               		.loc 1 111 2 view .LVU409
 1082 03ce 439A      		sbi 0x8,3
 1083               		.loc 1 111 2 view .LVU410
 1084               		.loc 1 111 17 view .LVU411
 112:lcd.c         **** 	write_data16(240);
 1085               		.loc 1 112 2 view .LVU412
 1086 03d0 15B8      		out 0x5,__zero_reg__
 1087               		.loc 1 112 2 view .LVU413
 1088 03d2 4398      		cbi 0x8,3
 1089               		.loc 1 112 2 view .LVU414
 1090 03d4 439A      		sbi 0x8,3
 1091               		.loc 1 112 2 view .LVU415
 1092               		.loc 1 112 2 view .LVU416
 1093 03d6 80EF      		ldi r24,lo8(-16)
 1094 03d8 85B9      		out 0x5,r24
GAS LISTING /tmp/cchFZ4o5.s 			page 23


 1095               		.loc 1 112 2 view .LVU417
 1096 03da 4398      		cbi 0x8,3
 1097               		.loc 1 112 2 view .LVU418
 1098 03dc 439A      		sbi 0x8,3
 1099               		.loc 1 112 2 view .LVU419
 1100               		.loc 1 112 19 view .LVU420
 113:lcd.c         **** 	write_cmd(PAGE_ADDRESS_SET);
 1101               		.loc 1 113 2 view .LVU421
 1102 03de 4498      		cbi 0x8,4
 1103               		.loc 1 113 2 view .LVU422
 1104 03e0 8BE2      		ldi r24,lo8(43)
 1105 03e2 85B9      		out 0x5,r24
 1106               		.loc 1 113 2 view .LVU423
 1107 03e4 4398      		cbi 0x8,3
 1108               		.loc 1 113 2 view .LVU424
 1109 03e6 439A      		sbi 0x8,3
 1110               		.loc 1 113 2 view .LVU425
 1111 03e8 449A      		sbi 0x8,4
 1112               		.loc 1 113 29 view .LVU426
 114:lcd.c         **** 	write_data16(160);
 1113               		.loc 1 114 2 view .LVU427
 1114 03ea 15B8      		out 0x5,__zero_reg__
 1115               		.loc 1 114 2 view .LVU428
 1116 03ec 4398      		cbi 0x8,3
 1117               		.loc 1 114 2 view .LVU429
 1118 03ee 439A      		sbi 0x8,3
 1119               		.loc 1 114 2 view .LVU430
 1120               		.loc 1 114 2 view .LVU431
 1121 03f0 80EA      		ldi r24,lo8(-96)
 1122 03f2 85B9      		out 0x5,r24
 1123               		.loc 1 114 2 view .LVU432
 1124 03f4 4398      		cbi 0x8,3
 1125               		.loc 1 114 2 view .LVU433
 1126 03f6 439A      		sbi 0x8,3
 1127               		.loc 1 114 2 view .LVU434
 1128               		.loc 1 114 19 view .LVU435
 115:lcd.c         **** 	write_data16(320);
 1129               		.loc 1 115 2 view .LVU436
 1130 03f8 81E0      		ldi r24,lo8(1)
 1131 03fa 85B9      		out 0x5,r24
 1132               		.loc 1 115 2 view .LVU437
 1133 03fc 4398      		cbi 0x8,3
 1134               		.loc 1 115 2 view .LVU438
 1135 03fe 439A      		sbi 0x8,3
 1136               		.loc 1 115 2 view .LVU439
 1137               		.loc 1 115 2 view .LVU440
 1138 0400 80E4      		ldi r24,lo8(64)
 1139 0402 85B9      		out 0x5,r24
 1140               		.loc 1 115 2 view .LVU441
 1141 0404 4398      		cbi 0x8,3
 1142               		.loc 1 115 2 view .LVU442
 1143 0406 439A      		sbi 0x8,3
 1144               		.loc 1 115 2 view .LVU443
 1145               		.loc 1 115 19 view .LVU444
 116:lcd.c         **** 	write_cmd(MEMORY_WRITE);
 1146               		.loc 1 116 2 view .LVU445
 1147 0408 4498      		cbi 0x8,4
GAS LISTING /tmp/cchFZ4o5.s 			page 24


 1148               		.loc 1 116 2 view .LVU446
 1149 040a 8CE2      		ldi r24,lo8(44)
 1150 040c 85B9      		out 0x5,r24
 1151               		.loc 1 116 2 view .LVU447
 1152 040e 4398      		cbi 0x8,3
 1153               		.loc 1 116 2 view .LVU448
 1154 0410 439A      		sbi 0x8,3
 1155               		.loc 1 116 2 view .LVU449
 1156 0412 449A      		sbi 0x8,4
 1157               		.loc 1 116 25 view .LVU450
 117:lcd.c         **** 	for(y = 0; y <= 79; y++){
 1158               		.loc 1 117 2 view .LVU451
 1159               	.LVL46:
 1160               		.loc 1 117 15 view .LVU452
 1161 0414 20E0      		ldi r18,lo8(bg1_2)
 1162 0416 30E0      		ldi r19,hi8(bg1_2)
 116:lcd.c         **** 	write_cmd(MEMORY_WRITE);
 1163               		.loc 1 116 2 is_stmt 0 view .LVU453
 1164 0418 60E0      		ldi r22,0
 1165 041a 70E0      		ldi r23,0
 1166               	.LVL47:
 1167               	.L23:
 118:lcd.c         **** 		for(x = 0; x <= 119; x++){
 1168               		.loc 1 118 16 is_stmt 1 view .LVU454
  99:lcd.c         **** 	for(y = 0; y <= 79; y++){
 1169               		.loc 1 99 2 is_stmt 0 view .LVU455
 1170 041c C901      		movw r24,r18
 1171               		.loc 1 118 9 view .LVU456
 1172 041e 40E0      		ldi r20,0
 1173 0420 50E0      		ldi r21,0
 1174               	.LVL48:
 1175               	.L24:
 119:lcd.c         **** 			write_data16(pgm_read_word(&bg1_2[x+y*120]));
 1176               		.loc 1 119 4 is_stmt 1 discriminator 3 view .LVU457
 1177               	.LBB10:
 1178               		.loc 1 119 4 discriminator 3 view .LVU458
 1179               		.loc 1 119 4 discriminator 3 view .LVU459
 1180               		.loc 1 119 4 discriminator 3 view .LVU460
 1181 0422 FC01      		movw r30,r24
 1182               	/* #APP */
 1183               	 ;  119 "lcd.c" 1
 1184 0424 A591      		lpm r26, Z+
 1185 0426 B491      		lpm r27, Z
 1186               		
 1187               	 ;  0 "" 2
 1188               	.LVL49:
 1189               		.loc 1 119 4 discriminator 3 view .LVU461
 1190               	/* #NOAPP */
 1191               	.LBE10:
 1192 0428 B5B9      		out 0x5,r27
 1193               		.loc 1 119 4 discriminator 3 view .LVU462
 1194 042a 4398      		cbi 0x8,3
 1195               		.loc 1 119 4 discriminator 3 view .LVU463
 1196 042c 439A      		sbi 0x8,3
 1197               		.loc 1 119 4 discriminator 3 view .LVU464
 1198               		.loc 1 119 4 discriminator 3 view .LVU465
 1199               	.LBB11:
GAS LISTING /tmp/cchFZ4o5.s 			page 25


 1200               		.loc 1 119 4 discriminator 3 view .LVU466
 1201               	.LVL50:
 1202               		.loc 1 119 4 discriminator 3 view .LVU467
 1203               		.loc 1 119 4 discriminator 3 view .LVU468
 1204 042e FC01      		movw r30,r24
 1205               	/* #APP */
 1206               	 ;  119 "lcd.c" 1
 1207 0430 A591      		lpm r26, Z+
 1208 0432 B491      		lpm r27, Z
 1209               		
 1210               	 ;  0 "" 2
 1211               	.LVL51:
 1212               		.loc 1 119 4 discriminator 3 view .LVU469
 1213               	/* #NOAPP */
 1214               	.LBE11:
 1215 0434 A5B9      		out 0x5,r26
 1216               		.loc 1 119 4 discriminator 3 view .LVU470
 1217 0436 4398      		cbi 0x8,3
 1218               		.loc 1 119 4 discriminator 3 view .LVU471
 1219 0438 439A      		sbi 0x8,3
 1220               		.loc 1 119 4 discriminator 3 view .LVU472
 1221               		.loc 1 119 48 discriminator 3 view .LVU473
 120:lcd.c         **** 			write_data16(pgm_read_word(&bg1_2[x+y*120]));
 1222               		.loc 1 120 4 discriminator 3 view .LVU474
 1223               	.LBB12:
 1224               		.loc 1 120 4 discriminator 3 view .LVU475
 1225               	.LVL52:
 1226               		.loc 1 120 4 discriminator 3 view .LVU476
 1227               		.loc 1 120 4 discriminator 3 view .LVU477
 1228 043a FC01      		movw r30,r24
 1229               	/* #APP */
 1230               	 ;  120 "lcd.c" 1
 1231 043c A591      		lpm r26, Z+
 1232 043e B491      		lpm r27, Z
 1233               		
 1234               	 ;  0 "" 2
 1235               	.LVL53:
 1236               		.loc 1 120 4 discriminator 3 view .LVU478
 1237               	/* #NOAPP */
 1238               	.LBE12:
 1239 0440 B5B9      		out 0x5,r27
 1240               		.loc 1 120 4 discriminator 3 view .LVU479
 1241 0442 4398      		cbi 0x8,3
 1242               		.loc 1 120 4 discriminator 3 view .LVU480
 1243 0444 439A      		sbi 0x8,3
 1244               		.loc 1 120 4 discriminator 3 view .LVU481
 1245               		.loc 1 120 4 discriminator 3 view .LVU482
 1246               	.LBB13:
 1247               		.loc 1 120 4 discriminator 3 view .LVU483
 1248               	.LVL54:
 1249               		.loc 1 120 4 discriminator 3 view .LVU484
 1250               		.loc 1 120 4 discriminator 3 view .LVU485
 1251 0446 FC01      		movw r30,r24
 1252               	/* #APP */
 1253               	 ;  120 "lcd.c" 1
 1254 0448 A591      		lpm r26, Z+
 1255 044a B491      		lpm r27, Z
GAS LISTING /tmp/cchFZ4o5.s 			page 26


 1256               		
 1257               	 ;  0 "" 2
 1258               	.LVL55:
 1259               		.loc 1 120 4 discriminator 3 view .LVU486
 1260               	/* #NOAPP */
 1261               	.LBE13:
 1262 044c A5B9      		out 0x5,r26
 1263               		.loc 1 120 4 discriminator 3 view .LVU487
 1264 044e 4398      		cbi 0x8,3
 1265               		.loc 1 120 4 discriminator 3 view .LVU488
 1266 0450 439A      		sbi 0x8,3
 1267               		.loc 1 120 4 discriminator 3 view .LVU489
 1268               		.loc 1 120 48 discriminator 3 view .LVU490
 118:lcd.c         **** 			write_data16(pgm_read_word(&bg1_2[x+y*120]));
 1269               		.loc 1 118 25 discriminator 3 view .LVU491
 1270 0452 4F5F      		subi r20,-1
 1271 0454 5F4F      		sbci r21,-1
 1272               	.LVL56:
 118:lcd.c         **** 			write_data16(pgm_read_word(&bg1_2[x+y*120]));
 1273               		.loc 1 118 16 discriminator 3 view .LVU492
 1274 0456 0296      		adiw r24,2
 1275 0458 4837      		cpi r20,120
 1276 045a 5105      		cpc r21,__zero_reg__
 1277 045c 01F4      		brne .L24
 1278 045e C901      		movw r24,r18
 121:lcd.c         **** 		}
 122:lcd.c         **** 		for(x = 0; x <= 119; x++){
 1279               		.loc 1 122 9 is_stmt 0 view .LVU493
 1280 0460 40E0      		ldi r20,0
 1281 0462 50E0      		ldi r21,0
 1282               	.LVL57:
 1283               	.L25:
 123:lcd.c         **** 			write_data16(pgm_read_word(&bg1_2[x+y*120]));
 1284               		.loc 1 123 4 is_stmt 1 discriminator 3 view .LVU494
 1285               	.LBB14:
 1286               		.loc 1 123 4 discriminator 3 view .LVU495
 1287               		.loc 1 123 4 discriminator 3 view .LVU496
 1288               		.loc 1 123 4 discriminator 3 view .LVU497
 1289 0464 FC01      		movw r30,r24
 1290               	/* #APP */
 1291               	 ;  123 "lcd.c" 1
 1292 0466 A591      		lpm r26, Z+
 1293 0468 B491      		lpm r27, Z
 1294               		
 1295               	 ;  0 "" 2
 1296               	.LVL58:
 1297               		.loc 1 123 4 discriminator 3 view .LVU498
 1298               	/* #NOAPP */
 1299               	.LBE14:
 1300 046a B5B9      		out 0x5,r27
 1301               		.loc 1 123 4 discriminator 3 view .LVU499
 1302 046c 4398      		cbi 0x8,3
 1303               		.loc 1 123 4 discriminator 3 view .LVU500
 1304 046e 439A      		sbi 0x8,3
 1305               		.loc 1 123 4 discriminator 3 view .LVU501
 1306               		.loc 1 123 4 discriminator 3 view .LVU502
 1307               	.LBB15:
GAS LISTING /tmp/cchFZ4o5.s 			page 27


 1308               		.loc 1 123 4 discriminator 3 view .LVU503
 1309               	.LVL59:
 1310               		.loc 1 123 4 discriminator 3 view .LVU504
 1311               		.loc 1 123 4 discriminator 3 view .LVU505
 1312 0470 FC01      		movw r30,r24
 1313               	/* #APP */
 1314               	 ;  123 "lcd.c" 1
 1315 0472 A591      		lpm r26, Z+
 1316 0474 B491      		lpm r27, Z
 1317               		
 1318               	 ;  0 "" 2
 1319               	.LVL60:
 1320               		.loc 1 123 4 discriminator 3 view .LVU506
 1321               	/* #NOAPP */
 1322               	.LBE15:
 1323 0476 A5B9      		out 0x5,r26
 1324               		.loc 1 123 4 discriminator 3 view .LVU507
 1325 0478 4398      		cbi 0x8,3
 1326               		.loc 1 123 4 discriminator 3 view .LVU508
 1327 047a 439A      		sbi 0x8,3
 1328               		.loc 1 123 4 discriminator 3 view .LVU509
 1329               		.loc 1 123 48 discriminator 3 view .LVU510
 124:lcd.c         **** 			write_data16(pgm_read_word(&bg1_2[x+y*120]));
 1330               		.loc 1 124 4 discriminator 3 view .LVU511
 1331               	.LBB16:
 1332               		.loc 1 124 4 discriminator 3 view .LVU512
 1333               	.LVL61:
 1334               		.loc 1 124 4 discriminator 3 view .LVU513
 1335               		.loc 1 124 4 discriminator 3 view .LVU514
 1336 047c FC01      		movw r30,r24
 1337               	/* #APP */
 1338               	 ;  124 "lcd.c" 1
 1339 047e A591      		lpm r26, Z+
 1340 0480 B491      		lpm r27, Z
 1341               		
 1342               	 ;  0 "" 2
 1343               	.LVL62:
 1344               		.loc 1 124 4 discriminator 3 view .LVU515
 1345               	/* #NOAPP */
 1346               	.LBE16:
 1347 0482 B5B9      		out 0x5,r27
 1348               		.loc 1 124 4 discriminator 3 view .LVU516
 1349 0484 4398      		cbi 0x8,3
 1350               		.loc 1 124 4 discriminator 3 view .LVU517
 1351 0486 439A      		sbi 0x8,3
 1352               		.loc 1 124 4 discriminator 3 view .LVU518
 1353               		.loc 1 124 4 discriminator 3 view .LVU519
 1354               	.LBB17:
 1355               		.loc 1 124 4 discriminator 3 view .LVU520
 1356               	.LVL63:
 1357               		.loc 1 124 4 discriminator 3 view .LVU521
 1358               		.loc 1 124 4 discriminator 3 view .LVU522
 1359 0488 FC01      		movw r30,r24
 1360               	/* #APP */
 1361               	 ;  124 "lcd.c" 1
 1362 048a A591      		lpm r26, Z+
 1363 048c B491      		lpm r27, Z
GAS LISTING /tmp/cchFZ4o5.s 			page 28


 1364               		
 1365               	 ;  0 "" 2
 1366               	.LVL64:
 1367               		.loc 1 124 4 discriminator 3 view .LVU523
 1368               	/* #NOAPP */
 1369               	.LBE17:
 1370 048e A5B9      		out 0x5,r26
 1371               		.loc 1 124 4 discriminator 3 view .LVU524
 1372 0490 4398      		cbi 0x8,3
 1373               		.loc 1 124 4 discriminator 3 view .LVU525
 1374 0492 439A      		sbi 0x8,3
 1375               		.loc 1 124 4 discriminator 3 view .LVU526
 1376               		.loc 1 124 48 discriminator 3 view .LVU527
 122:lcd.c         **** 			write_data16(pgm_read_word(&bg1_2[x+y*120]));
 1377               		.loc 1 122 25 discriminator 3 view .LVU528
 1378 0494 4F5F      		subi r20,-1
 1379 0496 5F4F      		sbci r21,-1
 1380               	.LVL65:
 122:lcd.c         **** 			write_data16(pgm_read_word(&bg1_2[x+y*120]));
 1381               		.loc 1 122 16 discriminator 3 view .LVU529
 1382 0498 0296      		adiw r24,2
 1383 049a 4837      		cpi r20,120
 1384 049c 5105      		cpc r21,__zero_reg__
 1385 049e 01F4      		brne .L25
 117:lcd.c         **** 		for(x = 0; x <= 119; x++){
 1386               		.loc 1 117 23 discriminator 2 view .LVU530
 117:lcd.c         **** 		for(x = 0; x <= 119; x++){
 1387               		.loc 1 117 15 discriminator 2 view .LVU531
 1388 04a0 2051      		subi r18,16
 1389 04a2 3F4F      		sbci r19,-1
 1390 04a4 6858      		subi r22,-120
 1391 04a6 7F4F      		sbci r23,-1
 1392 04a8 6038      		cpi r22,-128
 1393 04aa 85E2      		ldi r24,37
 1394 04ac 7807      		cpc r23,r24
 1395 04ae 01F0      		breq .+2
 1396 04b0 00C0      		rjmp .L23
 1397               	/* epilogue start */
 125:lcd.c         **** 		}
 126:lcd.c         **** 	}
 127:lcd.c         **** }
 1398               		.loc 1 127 1 is_stmt 0 view .LVU532
 1399 04b2 0895      		ret
 1400               		.cfi_endproc
 1401               	.LFE5:
 1402               		.size	init_graphics, .-init_graphics
 1403               	.global	clear_screen
 1404               		.type	clear_screen, @function
 1405               	clear_screen:
 1406               	.LFB6:
 128:lcd.c         **** 
 129:lcd.c         **** 
 130:lcd.c         **** void clear_screen()
 131:lcd.c         **** {
 1407               		.loc 1 131 1 is_stmt 1 view -0
 1408               		.cfi_startproc
 1409 04b4 0F93      		push r16
GAS LISTING /tmp/cchFZ4o5.s 			page 29


 1410               		.cfi_def_cfa_offset 3
 1411               		.cfi_offset 16, -2
 1412 04b6 1F93      		push r17
 1413               		.cfi_def_cfa_offset 4
 1414               		.cfi_offset 17, -3
 1415 04b8 CF93      		push r28
 1416               		.cfi_def_cfa_offset 5
 1417               		.cfi_offset 28, -4
 1418 04ba DF93      		push r29
 1419               		.cfi_def_cfa_offset 6
 1420               		.cfi_offset 29, -5
 1421 04bc CDB7      		in r28,__SP_L__
 1422 04be DEB7      		in r29,__SP_H__
 1423               		.cfi_def_cfa_register 28
 1424 04c0 2897      		sbiw r28,8
 1425               		.cfi_def_cfa_offset 14
 1426 04c2 0FB6      		in __tmp_reg__,__SREG__
 1427 04c4 F894      		cli
 1428 04c6 DEBF      		out __SP_H__,r29
 1429 04c8 0FBE      		out __SREG__,__tmp_reg__
 1430 04ca CDBF      		out __SP_L__,r28
 1431               	/* prologue: function */
 1432               	/* frame size = 8 */
 1433               	/* stack size = 12 */
 1434               	.L__stack_usage = 12
 132:lcd.c         **** 	display.x = 0;
 1435               		.loc 1 132 2 view .LVU534
 1436               		.loc 1 132 12 is_stmt 0 view .LVU535
 1437 04cc E0E0      		ldi r30,lo8(display)
 1438 04ce F0E0      		ldi r31,hi8(display)
 1439 04d0 1782      		std Z+7,__zero_reg__
 1440 04d2 1682      		std Z+6,__zero_reg__
 133:lcd.c         **** 	display.y = 0;
 1441               		.loc 1 133 2 is_stmt 1 view .LVU536
 1442               		.loc 1 133 12 is_stmt 0 view .LVU537
 1443 04d4 1186      		std Z+9,__zero_reg__
 1444 04d6 1086      		std Z+8,__zero_reg__
 134:lcd.c         **** 	rectangle r = {0, display.width-1, 0, display.height-1};
 1445               		.loc 1 134 2 is_stmt 1 view .LVU538
 1446               		.loc 1 134 33 is_stmt 0 view .LVU539
 1447 04d8 8081      		ld r24,Z
 1448 04da 9181      		ldd r25,Z+1
 1449 04dc 0197      		sbiw r24,1
 1450               		.loc 1 134 12 view .LVU540
 1451 04de AC01      		movw r20,r24
 1452               		.loc 1 134 54 view .LVU541
 1453 04e0 A281      		ldd r26,Z+2
 1454 04e2 B381      		ldd r27,Z+3
 1455 04e4 1197      		sbiw r26,1
 135:lcd.c         **** 	fill_rectangle(r, display.background);
 1456               		.loc 1 135 2 is_stmt 1 view .LVU542
 1457 04e6 0485      		ldd r16,Z+12
 1458 04e8 1585      		ldd r17,Z+13
 1459 04ea 20E0      		ldi r18,0
 1460 04ec 30E0      		ldi r19,0
 1461 04ee 60E0      		ldi r22,0
 1462 04f0 70E0      		ldi r23,0
GAS LISTING /tmp/cchFZ4o5.s 			page 30


 1463 04f2 CD01      		movw r24,r26
 1464 04f4 0E94 0000 		call fill_rectangle
 1465               	.LVL66:
 1466               	/* epilogue start */
 136:lcd.c         **** }
 1467               		.loc 1 136 1 is_stmt 0 view .LVU543
 1468 04f8 2896      		adiw r28,8
 1469 04fa 0FB6      		in __tmp_reg__,__SREG__
 1470 04fc F894      		cli
 1471 04fe DEBF      		out __SP_H__,r29
 1472 0500 0FBE      		out __SREG__,__tmp_reg__
 1473 0502 CDBF      		out __SP_L__,r28
 1474 0504 DF91      		pop r29
 1475 0506 CF91      		pop r28
 1476 0508 1F91      		pop r17
 1477 050a 0F91      		pop r16
 1478 050c 0895      		ret
 1479               		.cfi_endproc
 1480               	.LFE6:
 1481               		.size	clear_screen, .-clear_screen
 1482               	.global	display_char
 1483               		.type	display_char, @function
 1484               	display_char:
 1485               	.LVL67:
 1486               	.LFB7:
 137:lcd.c         **** 
 138:lcd.c         **** void display_char(char c)
 139:lcd.c         **** {
 1487               		.loc 1 139 1 is_stmt 1 view -0
 1488               		.cfi_startproc
 1489               		.loc 1 139 1 is_stmt 0 view .LVU545
 1490 050e AF92      		push r10
 1491               		.cfi_def_cfa_offset 3
 1492               		.cfi_offset 10, -2
 1493 0510 BF92      		push r11
 1494               		.cfi_def_cfa_offset 4
 1495               		.cfi_offset 11, -3
 1496 0512 CF92      		push r12
 1497               		.cfi_def_cfa_offset 5
 1498               		.cfi_offset 12, -4
 1499 0514 DF92      		push r13
 1500               		.cfi_def_cfa_offset 6
 1501               		.cfi_offset 13, -5
 1502 0516 EF92      		push r14
 1503               		.cfi_def_cfa_offset 7
 1504               		.cfi_offset 14, -6
 1505 0518 FF92      		push r15
 1506               		.cfi_def_cfa_offset 8
 1507               		.cfi_offset 15, -7
 1508 051a 0F93      		push r16
 1509               		.cfi_def_cfa_offset 9
 1510               		.cfi_offset 16, -8
 1511 051c 1F93      		push r17
 1512               		.cfi_def_cfa_offset 10
 1513               		.cfi_offset 17, -9
 1514 051e CF93      		push r28
 1515               		.cfi_def_cfa_offset 11
GAS LISTING /tmp/cchFZ4o5.s 			page 31


 1516               		.cfi_offset 28, -10
 1517 0520 DF93      		push r29
 1518               		.cfi_def_cfa_offset 12
 1519               		.cfi_offset 29, -11
 1520               	/* prologue: function */
 1521               	/* frame size = 0 */
 1522               	/* stack size = 10 */
 1523               	.L__stack_usage = 10
 140:lcd.c         **** 	uint16_t x, y;
 1524               		.loc 1 140 2 is_stmt 1 view .LVU546
 141:lcd.c         **** 	PGM_P fdata; 
 1525               		.loc 1 141 2 view .LVU547
 142:lcd.c         **** 	uint8_t bits, mask;
 1526               		.loc 1 142 2 view .LVU548
 143:lcd.c         **** 	uint16_t sc=display.x, ec=display.x + 4, sp=display.y, ep=display.y + 7;
 1527               		.loc 1 143 2 view .LVU549
 1528               		.loc 1 143 11 is_stmt 0 view .LVU550
 1529 0522 2091 0000 		lds r18,display+6
 1530 0526 3091 0000 		lds r19,display+6+1
 1531               	.LVL68:
 1532               		.loc 1 143 43 view .LVU551
 1533 052a 4091 0000 		lds r20,display+8
 1534 052e 5091 0000 		lds r21,display+8+1
 1535               	.LVL69:
 144:lcd.c         **** 	if (c < 32 || c > 126) return;
 1536               		.loc 1 144 2 is_stmt 1 view .LVU552
 1537               		.loc 1 144 13 is_stmt 0 view .LVU553
 1538 0532 90EE      		ldi r25,lo8(-32)
 1539 0534 980F      		add r25,r24
 1540 0536 B901      		movw r22,r18
 1541 0538 EA01      		movw r28,r20
 1542               		.loc 1 144 5 view .LVU554
 1543 053a 9F35      		cpi r25,lo8(95)
 1544 053c 00F0      		brlo .+2
 1545 053e 00C0      		rjmp .L32
 143:lcd.c         **** 	uint16_t sc=display.x, ec=display.x + 4, sp=display.y, ep=display.y + 7;
 1546               		.loc 1 143 25 view .LVU555
 1547 0540 8901      		movw r16,r18
 1548 0542 0C5F      		subi r16,-4
 1549 0544 1F4F      		sbci r17,-1
 1550               	.LVL70:
 143:lcd.c         **** 	uint16_t sc=display.x, ec=display.x + 4, sp=display.y, ep=display.y + 7;
 1551               		.loc 1 143 57 view .LVU556
 1552 0546 DA01      		movw r26,r20
 1553 0548 1796      		adiw r26,7
 1554               	.LVL71:
 145:lcd.c         **** 	fdata = (c - ' ')*5 + font5x7;
 1555               		.loc 1 145 2 is_stmt 1 view .LVU557
 146:lcd.c         **** 	write_cmd(PAGE_ADDRESS_SET);
 1556               		.loc 1 146 2 view .LVU558
 1557 054a 4498      		cbi 0x8,4
 1558               		.loc 1 146 2 view .LVU559
 1559 054c 9BE2      		ldi r25,lo8(43)
 1560 054e 95B9      		out 0x5,r25
 1561               		.loc 1 146 2 view .LVU560
 1562 0550 4398      		cbi 0x8,3
 1563               		.loc 1 146 2 view .LVU561
GAS LISTING /tmp/cchFZ4o5.s 			page 32


 1564 0552 439A      		sbi 0x8,3
 1565               		.loc 1 146 2 view .LVU562
 1566 0554 449A      		sbi 0x8,4
 1567               		.loc 1 146 29 view .LVU563
 147:lcd.c         **** 	write_data16(sp);
 1568               		.loc 1 147 2 view .LVU564
 1569 0556 55B9      		out 0x5,r21
 1570               		.loc 1 147 2 view .LVU565
 1571 0558 4398      		cbi 0x8,3
 1572               		.loc 1 147 2 view .LVU566
 1573 055a 439A      		sbi 0x8,3
 1574               		.loc 1 147 2 view .LVU567
 1575               		.loc 1 147 2 view .LVU568
 1576 055c 45B9      		out 0x5,r20
 1577               		.loc 1 147 2 view .LVU569
 1578 055e 4398      		cbi 0x8,3
 1579               		.loc 1 147 2 view .LVU570
 1580 0560 439A      		sbi 0x8,3
 1581               		.loc 1 147 2 view .LVU571
 1582               		.loc 1 147 18 view .LVU572
 148:lcd.c         **** 	write_data16(ep);
 1583               		.loc 1 148 2 view .LVU573
 1584 0562 B5B9      		out 0x5,r27
 1585               		.loc 1 148 2 view .LVU574
 1586 0564 4398      		cbi 0x8,3
 1587               		.loc 1 148 2 view .LVU575
 1588 0566 439A      		sbi 0x8,3
 1589               		.loc 1 148 2 view .LVU576
 1590               		.loc 1 148 2 view .LVU577
 1591 0568 A5B9      		out 0x5,r26
 1592               		.loc 1 148 2 view .LVU578
 1593 056a 4398      		cbi 0x8,3
 1594               		.loc 1 148 2 view .LVU579
 1595 056c 439A      		sbi 0x8,3
 1596               		.loc 1 148 2 view .LVU580
 1597               		.loc 1 148 18 view .LVU581
 149:lcd.c         **** 	for(x=sc; x<=ec; x++) {
 1598               		.loc 1 149 2 view .LVU582
 1599               	.LVL72:
 145:lcd.c         **** 	write_cmd(PAGE_ADDRESS_SET);
 1600               		.loc 1 145 13 is_stmt 0 view .LVU583
 1601 056e 8052      		subi r24,32
 1602 0570 990B      		sbc r25,r25
 1603               	.LVL73:
 145:lcd.c         **** 	write_cmd(PAGE_ADDRESS_SET);
 1604               		.loc 1 145 19 view .LVU584
 1605 0572 E5E0      		ldi r30,lo8(5)
 1606 0574 FE2E      		mov r15,r30
 1607 0576 F89E      		mul r15,r24
 1608 0578 F001      		movw r30,r0
 1609 057a F99E      		mul r15,r25
 1610 057c F00D      		add r31,r0
 1611 057e 1124      		clr __zero_reg__
 145:lcd.c         **** 	write_cmd(PAGE_ADDRESS_SET);
 1612               		.loc 1 145 8 view .LVU585
 1613 0580 E050      		subi r30,lo8(-(font5x7))
 1614 0582 F040      		sbci r31,hi8(-(font5x7))
GAS LISTING /tmp/cchFZ4o5.s 			page 33


 150:lcd.c         **** 		write_cmd(COLUMN_ADDRESS_SET);
 1615               		.loc 1 150 3 view .LVU586
 1616 0584 8AE2      		ldi r24,lo8(42)
 1617 0586 C82E      		mov r12,r24
 151:lcd.c         **** 		write_data16(x);
 152:lcd.c         **** 		write_data16(x);
 153:lcd.c         **** 		write_cmd(MEMORY_WRITE);
 1618               		.loc 1 153 3 view .LVU587
 1619 0588 9CE2      		ldi r25,lo8(44)
 1620 058a B92E      		mov r11,r25
 1621               	.LVL74:
 1622               	.L35:
 149:lcd.c         **** 		write_cmd(COLUMN_ADDRESS_SET);
 1623               		.loc 1 149 13 is_stmt 1 discriminator 1 view .LVU588
 150:lcd.c         **** 		write_cmd(COLUMN_ADDRESS_SET);
 1624               		.loc 1 150 3 is_stmt 0 discriminator 1 view .LVU589
 1625 058c 4498      		cbi 0x8,4
 149:lcd.c         **** 		write_cmd(COLUMN_ADDRESS_SET);
 1626               		.loc 1 149 13 discriminator 1 view .LVU590
 1627 058e 0217      		cp r16,r18
 1628 0590 1307      		cpc r17,r19
 1629 0592 00F4      		brsh .L42
 154:lcd.c         **** 		bits = pgm_read_byte(fdata++);
 155:lcd.c         **** 		for(y=sp, mask=0x01; y<=ep; y++, mask<<=1)
 156:lcd.c         **** 			write_data16((bits & mask) ? display.foreground : display.background);
 157:lcd.c         **** 	}
 158:lcd.c         **** 	write_cmd(COLUMN_ADDRESS_SET);
 1630               		.loc 1 158 2 is_stmt 1 view .LVU591
 1631               		.loc 1 158 2 view .LVU592
 1632 0594 8AE2      		ldi r24,lo8(42)
 1633 0596 85B9      		out 0x5,r24
 1634               		.loc 1 158 2 view .LVU593
 1635 0598 4398      		cbi 0x8,3
 1636               		.loc 1 158 2 view .LVU594
 1637 059a 439A      		sbi 0x8,3
 1638               		.loc 1 158 2 view .LVU595
 1639 059c 449A      		sbi 0x8,4
 1640               		.loc 1 158 31 view .LVU596
 159:lcd.c         **** 	write_data16(x);
 1641               		.loc 1 159 2 view .LVU597
 1642 059e 35B9      		out 0x5,r19
 1643               		.loc 1 159 2 view .LVU598
 1644 05a0 4398      		cbi 0x8,3
 1645               		.loc 1 159 2 view .LVU599
 1646 05a2 439A      		sbi 0x8,3
 1647               		.loc 1 159 2 view .LVU600
 1648               		.loc 1 159 2 view .LVU601
 1649 05a4 25B9      		out 0x5,r18
 1650               		.loc 1 159 2 view .LVU602
 1651 05a6 4398      		cbi 0x8,3
 1652               		.loc 1 159 2 view .LVU603
 1653 05a8 439A      		sbi 0x8,3
 1654               		.loc 1 159 2 view .LVU604
 1655               		.loc 1 159 17 view .LVU605
 160:lcd.c         **** 	write_data16(x);
 1656               		.loc 1 160 2 view .LVU606
 1657 05aa 35B9      		out 0x5,r19
GAS LISTING /tmp/cchFZ4o5.s 			page 34


 1658               		.loc 1 160 2 view .LVU607
 1659 05ac 4398      		cbi 0x8,3
 1660               		.loc 1 160 2 view .LVU608
 1661 05ae 439A      		sbi 0x8,3
 1662               		.loc 1 160 2 view .LVU609
 1663               		.loc 1 160 2 view .LVU610
 1664 05b0 25B9      		out 0x5,r18
 1665               		.loc 1 160 2 view .LVU611
 1666 05b2 4398      		cbi 0x8,3
 1667               		.loc 1 160 2 view .LVU612
 1668 05b4 439A      		sbi 0x8,3
 1669               		.loc 1 160 2 view .LVU613
 1670               		.loc 1 160 17 view .LVU614
 161:lcd.c         **** 	write_cmd(MEMORY_WRITE);
 1671               		.loc 1 161 2 view .LVU615
 1672 05b6 4498      		cbi 0x8,4
 1673               		.loc 1 161 2 view .LVU616
 1674 05b8 8CE2      		ldi r24,lo8(44)
 1675 05ba 85B9      		out 0x5,r24
 1676               		.loc 1 161 2 view .LVU617
 1677 05bc 4398      		cbi 0x8,3
 1678               		.loc 1 161 2 view .LVU618
 1679 05be 439A      		sbi 0x8,3
 1680               		.loc 1 161 2 view .LVU619
 1681 05c0 449A      		sbi 0x8,4
 1682               		.loc 1 161 25 view .LVU620
 162:lcd.c         **** 	for(y=sp; y<=ep; y++)
 1683               		.loc 1 162 2 view .LVU621
 1684               	.LVL75:
 1685               	.L43:
 1686               		.loc 1 162 13 discriminator 1 view .LVU622
 1687 05c2 A417      		cp r26,r20
 1688 05c4 B507      		cpc r27,r21
 1689 05c6 00F0      		brlo .+2
 1690 05c8 00C0      		rjmp .L44
 163:lcd.c         **** 		write_data16(display.background);
 1691               		.loc 1 163 35 view .LVU623
 164:lcd.c         **** 
 165:lcd.c         **** 	display.x += 6;
 1692               		.loc 1 165 2 view .LVU624
 1693               		.loc 1 165 12 is_stmt 0 view .LVU625
 1694 05ca 6A5F      		subi r22,-6
 1695 05cc 7F4F      		sbci r23,-1
 1696               	.LVL76:
 1697               		.loc 1 165 12 view .LVU626
 1698 05ce 7093 0000 		sts display+6+1,r23
 1699 05d2 6093 0000 		sts display+6,r22
 1700               	.LVL77:
 166:lcd.c         **** 	if (display.x >= display.width) { display.x=0; display.y+=8; }
 1701               		.loc 1 166 2 is_stmt 1 view .LVU627
 1702               		.loc 1 166 5 is_stmt 0 view .LVU628
 1703 05d6 2091 0000 		lds r18,display
 1704 05da 3091 0000 		lds r19,display+1
 1705               	.LVL78:
 1706               		.loc 1 166 5 view .LVU629
 1707 05de 6217      		cp r22,r18
 1708 05e0 7307      		cpc r23,r19
GAS LISTING /tmp/cchFZ4o5.s 			page 35


 1709 05e2 00F0      		brlo .L32
 1710               		.loc 1 166 36 is_stmt 1 discriminator 1 view .LVU630
 1711               		.loc 1 166 45 is_stmt 0 discriminator 1 view .LVU631
 1712 05e4 1092 0000 		sts display+6+1,__zero_reg__
 1713 05e8 1092 0000 		sts display+6,__zero_reg__
 1714               		.loc 1 166 49 is_stmt 1 discriminator 1 view .LVU632
 1715               		.loc 1 166 58 is_stmt 0 discriminator 1 view .LVU633
 1716 05ec 2896      		adiw r28,8
 1717               	.LVL79:
 1718               		.loc 1 166 58 discriminator 1 view .LVU634
 1719 05ee D093 0000 		sts display+8+1,r29
 1720 05f2 C093 0000 		sts display+8,r28
 1721               	.LVL80:
 1722               	.L32:
 1723               	/* epilogue start */
 167:lcd.c         **** }
 1724               		.loc 1 167 1 view .LVU635
 1725 05f6 DF91      		pop r29
 1726 05f8 CF91      		pop r28
 1727 05fa 1F91      		pop r17
 1728 05fc 0F91      		pop r16
 1729 05fe FF90      		pop r15
 1730 0600 EF90      		pop r14
 1731 0602 DF90      		pop r13
 1732 0604 CF90      		pop r12
 1733 0606 BF90      		pop r11
 1734 0608 AF90      		pop r10
 1735 060a 0895      		ret
 1736               	.LVL81:
 1737               	.L42:
 150:lcd.c         **** 		write_data16(x);
 1738               		.loc 1 150 3 is_stmt 1 view .LVU636
 150:lcd.c         **** 		write_data16(x);
 1739               		.loc 1 150 3 view .LVU637
 1740 060c C5B8      		out 0x5,r12
 150:lcd.c         **** 		write_data16(x);
 1741               		.loc 1 150 3 view .LVU638
 1742 060e 4398      		cbi 0x8,3
 150:lcd.c         **** 		write_data16(x);
 1743               		.loc 1 150 3 view .LVU639
 1744 0610 439A      		sbi 0x8,3
 150:lcd.c         **** 		write_data16(x);
 1745               		.loc 1 150 3 view .LVU640
 1746 0612 449A      		sbi 0x8,4
 150:lcd.c         **** 		write_data16(x);
 1747               		.loc 1 150 32 view .LVU641
 151:lcd.c         **** 		write_data16(x);
 1748               		.loc 1 151 3 view .LVU642
 1749 0614 35B9      		out 0x5,r19
 151:lcd.c         **** 		write_data16(x);
 1750               		.loc 1 151 3 view .LVU643
 1751 0616 4398      		cbi 0x8,3
 151:lcd.c         **** 		write_data16(x);
 1752               		.loc 1 151 3 view .LVU644
 1753 0618 439A      		sbi 0x8,3
 151:lcd.c         **** 		write_data16(x);
 1754               		.loc 1 151 3 view .LVU645
GAS LISTING /tmp/cchFZ4o5.s 			page 36


 151:lcd.c         **** 		write_data16(x);
 1755               		.loc 1 151 3 view .LVU646
 1756 061a 25B9      		out 0x5,r18
 151:lcd.c         **** 		write_data16(x);
 1757               		.loc 1 151 3 view .LVU647
 1758 061c 4398      		cbi 0x8,3
 151:lcd.c         **** 		write_data16(x);
 1759               		.loc 1 151 3 view .LVU648
 1760 061e 439A      		sbi 0x8,3
 151:lcd.c         **** 		write_data16(x);
 1761               		.loc 1 151 3 view .LVU649
 151:lcd.c         **** 		write_data16(x);
 1762               		.loc 1 151 18 view .LVU650
 152:lcd.c         **** 		write_cmd(MEMORY_WRITE);
 1763               		.loc 1 152 3 view .LVU651
 1764 0620 35B9      		out 0x5,r19
 152:lcd.c         **** 		write_cmd(MEMORY_WRITE);
 1765               		.loc 1 152 3 view .LVU652
 1766 0622 4398      		cbi 0x8,3
 152:lcd.c         **** 		write_cmd(MEMORY_WRITE);
 1767               		.loc 1 152 3 view .LVU653
 1768 0624 439A      		sbi 0x8,3
 152:lcd.c         **** 		write_cmd(MEMORY_WRITE);
 1769               		.loc 1 152 3 view .LVU654
 152:lcd.c         **** 		write_cmd(MEMORY_WRITE);
 1770               		.loc 1 152 3 view .LVU655
 1771 0626 25B9      		out 0x5,r18
 152:lcd.c         **** 		write_cmd(MEMORY_WRITE);
 1772               		.loc 1 152 3 view .LVU656
 1773 0628 4398      		cbi 0x8,3
 152:lcd.c         **** 		write_cmd(MEMORY_WRITE);
 1774               		.loc 1 152 3 view .LVU657
 1775 062a 439A      		sbi 0x8,3
 152:lcd.c         **** 		write_cmd(MEMORY_WRITE);
 1776               		.loc 1 152 3 view .LVU658
 152:lcd.c         **** 		write_cmd(MEMORY_WRITE);
 1777               		.loc 1 152 18 view .LVU659
 153:lcd.c         **** 		bits = pgm_read_byte(fdata++);
 1778               		.loc 1 153 3 view .LVU660
 1779 062c 4498      		cbi 0x8,4
 153:lcd.c         **** 		bits = pgm_read_byte(fdata++);
 1780               		.loc 1 153 3 view .LVU661
 1781 062e B5B8      		out 0x5,r11
 153:lcd.c         **** 		bits = pgm_read_byte(fdata++);
 1782               		.loc 1 153 3 view .LVU662
 1783 0630 4398      		cbi 0x8,3
 153:lcd.c         **** 		bits = pgm_read_byte(fdata++);
 1784               		.loc 1 153 3 view .LVU663
 1785 0632 439A      		sbi 0x8,3
 153:lcd.c         **** 		bits = pgm_read_byte(fdata++);
 1786               		.loc 1 153 3 view .LVU664
 1787 0634 449A      		sbi 0x8,4
 153:lcd.c         **** 		bits = pgm_read_byte(fdata++);
 1788               		.loc 1 153 26 view .LVU665
 154:lcd.c         **** 		for(y=sp, mask=0x01; y<=ep; y++, mask<<=1)
 1789               		.loc 1 154 3 view .LVU666
 1790               	.LBB18:
GAS LISTING /tmp/cchFZ4o5.s 			page 37


 154:lcd.c         **** 		for(y=sp, mask=0x01; y<=ep; y++, mask<<=1)
 1791               		.loc 1 154 10 view .LVU667
 1792               	.LVL82:
 154:lcd.c         **** 		for(y=sp, mask=0x01; y<=ep; y++, mask<<=1)
 1793               		.loc 1 154 10 view .LVU668
 154:lcd.c         **** 		for(y=sp, mask=0x01; y<=ep; y++, mask<<=1)
 1794               		.loc 1 154 10 view .LVU669
 1795               	/* #APP */
 1796               	 ;  154 "lcd.c" 1
 1797 0636 A490      		lpm r10, Z
 1798               		
 1799               	 ;  0 "" 2
 1800               	.LVL83:
 154:lcd.c         **** 		for(y=sp, mask=0x01; y<=ep; y++, mask<<=1)
 1801               		.loc 1 154 10 view .LVU670
 154:lcd.c         **** 		for(y=sp, mask=0x01; y<=ep; y++, mask<<=1)
 1802               		.loc 1 154 10 is_stmt 0 view .LVU671
 1803               	/* #NOAPP */
 1804               	.LBE18:
 155:lcd.c         **** 			write_data16((bits & mask) ? display.foreground : display.background);
 1805               		.loc 1 155 3 is_stmt 1 view .LVU672
 155:lcd.c         **** 			write_data16((bits & mask) ? display.foreground : display.background);
 1806               		.loc 1 155 8 is_stmt 0 view .LVU673
 1807 0638 CA01      		movw r24,r20
 155:lcd.c         **** 			write_data16((bits & mask) ? display.foreground : display.background);
 1808               		.loc 1 155 17 view .LVU674
 1809 063a FF24      		clr r15
 1810 063c F394      		inc r15
 1811               	.LVL84:
 1812               	.L36:
 155:lcd.c         **** 			write_data16((bits & mask) ? display.foreground : display.background);
 1813               		.loc 1 155 25 is_stmt 1 discriminator 2 view .LVU675
 1814 063e A817      		cp r26,r24
 1815 0640 B907      		cpc r27,r25
 1816 0642 00F4      		brsh .L41
 156:lcd.c         **** 	}
 1817               		.loc 1 156 73 discriminator 2 view .LVU676
 149:lcd.c         **** 		write_cmd(COLUMN_ADDRESS_SET);
 1818               		.loc 1 149 20 discriminator 2 view .LVU677
 1819 0644 2F5F      		subi r18,-1
 1820 0646 3F4F      		sbci r19,-1
 1821               	.LVL85:
 149:lcd.c         **** 		write_cmd(COLUMN_ADDRESS_SET);
 1822               		.loc 1 149 20 is_stmt 0 discriminator 2 view .LVU678
 1823 0648 3196      		adiw r30,1
 1824               	.LVL86:
 149:lcd.c         **** 		write_cmd(COLUMN_ADDRESS_SET);
 1825               		.loc 1 149 20 discriminator 2 view .LVU679
 1826 064a 00C0      		rjmp .L35
 1827               	.LVL87:
 1828               	.L41:
 156:lcd.c         **** 	}
 1829               		.loc 1 156 4 is_stmt 1 view .LVU680
 1830 064c EF2C      		mov r14,r15
 1831 064e EA20      		and r14,r10
 1832 0650 D090 0000 		lds r13,display+11
 1833 0654 E110      		cpse r14,__zero_reg__
GAS LISTING /tmp/cchFZ4o5.s 			page 38


 1834 0656 00C0      		rjmp .L38
 156:lcd.c         **** 	}
 1835               		.loc 1 156 4 is_stmt 0 discriminator 2 view .LVU681
 1836 0658 D090 0000 		lds r13,display+13
 1837               	.L38:
 156:lcd.c         **** 	}
 1838               		.loc 1 156 4 discriminator 4 view .LVU682
 1839 065c D5B8      		out 0x5,r13
 156:lcd.c         **** 	}
 1840               		.loc 1 156 4 is_stmt 1 discriminator 4 view .LVU683
 1841 065e 4398      		cbi 0x8,3
 156:lcd.c         **** 	}
 1842               		.loc 1 156 4 discriminator 4 view .LVU684
 1843 0660 439A      		sbi 0x8,3
 156:lcd.c         **** 	}
 1844               		.loc 1 156 4 discriminator 4 view .LVU685
 156:lcd.c         **** 	}
 1845               		.loc 1 156 4 discriminator 4 view .LVU686
 1846 0662 EE20      		tst r14
 1847 0664 01F0      		breq .L39
 156:lcd.c         **** 	}
 1848               		.loc 1 156 4 is_stmt 0 discriminator 5 view .LVU687
 1849 0666 E090 0000 		lds r14,display+10
 1850               	.L40:
 156:lcd.c         **** 	}
 1851               		.loc 1 156 4 discriminator 8 view .LVU688
 1852 066a E5B8      		out 0x5,r14
 156:lcd.c         **** 	}
 1853               		.loc 1 156 4 is_stmt 1 discriminator 8 view .LVU689
 1854 066c 4398      		cbi 0x8,3
 156:lcd.c         **** 	}
 1855               		.loc 1 156 4 discriminator 8 view .LVU690
 1856 066e 439A      		sbi 0x8,3
 156:lcd.c         **** 	}
 1857               		.loc 1 156 4 discriminator 8 view .LVU691
 155:lcd.c         **** 			write_data16((bits & mask) ? display.foreground : display.background);
 1858               		.loc 1 155 34 discriminator 8 view .LVU692
 155:lcd.c         **** 			write_data16((bits & mask) ? display.foreground : display.background);
 1859               		.loc 1 155 32 is_stmt 0 discriminator 8 view .LVU693
 1860 0670 0196      		adiw r24,1
 1861               	.LVL88:
 155:lcd.c         **** 			write_data16((bits & mask) ? display.foreground : display.background);
 1862               		.loc 1 155 40 discriminator 8 view .LVU694
 1863 0672 FF0C      		lsl r15
 1864               	.LVL89:
 155:lcd.c         **** 			write_data16((bits & mask) ? display.foreground : display.background);
 1865               		.loc 1 155 40 discriminator 8 view .LVU695
 1866 0674 00C0      		rjmp .L36
 1867               	.L39:
 156:lcd.c         **** 	}
 1868               		.loc 1 156 4 discriminator 6 view .LVU696
 1869 0676 E090 0000 		lds r14,display+12
 1870 067a 00C0      		rjmp .L40
 1871               	.LVL90:
 1872               	.L44:
 163:lcd.c         **** 
 1873               		.loc 1 163 3 is_stmt 1 discriminator 3 view .LVU697
GAS LISTING /tmp/cchFZ4o5.s 			page 39


 1874 067c 8091 0000 		lds r24,display+13
 1875 0680 85B9      		out 0x5,r24
 163:lcd.c         **** 
 1876               		.loc 1 163 3 discriminator 3 view .LVU698
 1877 0682 4398      		cbi 0x8,3
 163:lcd.c         **** 
 1878               		.loc 1 163 3 discriminator 3 view .LVU699
 1879 0684 439A      		sbi 0x8,3
 163:lcd.c         **** 
 1880               		.loc 1 163 3 discriminator 3 view .LVU700
 163:lcd.c         **** 
 1881               		.loc 1 163 3 discriminator 3 view .LVU701
 1882 0686 8091 0000 		lds r24,display+12
 1883 068a 85B9      		out 0x5,r24
 163:lcd.c         **** 
 1884               		.loc 1 163 3 discriminator 3 view .LVU702
 1885 068c 4398      		cbi 0x8,3
 163:lcd.c         **** 
 1886               		.loc 1 163 3 discriminator 3 view .LVU703
 1887 068e 439A      		sbi 0x8,3
 163:lcd.c         **** 
 1888               		.loc 1 163 3 discriminator 3 view .LVU704
 162:lcd.c         **** 		write_data16(display.background);
 1889               		.loc 1 162 20 discriminator 3 view .LVU705
 1890 0690 4F5F      		subi r20,-1
 1891 0692 5F4F      		sbci r21,-1
 1892               	.LVL91:
 162:lcd.c         **** 		write_data16(display.background);
 1893               		.loc 1 162 20 is_stmt 0 discriminator 3 view .LVU706
 1894 0694 00C0      		rjmp .L43
 1895               		.cfi_endproc
 1896               	.LFE7:
 1897               		.size	display_char, .-display_char
 1898               	.global	display_string
 1899               		.type	display_string, @function
 1900               	display_string:
 1901               	.LVL92:
 1902               	.LFB8:
 168:lcd.c         **** 
 169:lcd.c         **** void display_string(char *str)
 170:lcd.c         **** {
 1903               		.loc 1 170 1 is_stmt 1 view -0
 1904               		.cfi_startproc
 1905               		.loc 1 170 1 is_stmt 0 view .LVU708
 1906 0696 1F93      		push r17
 1907               		.cfi_def_cfa_offset 3
 1908               		.cfi_offset 17, -2
 1909 0698 CF93      		push r28
 1910               		.cfi_def_cfa_offset 4
 1911               		.cfi_offset 28, -3
 1912 069a DF93      		push r29
 1913               		.cfi_def_cfa_offset 5
 1914               		.cfi_offset 29, -4
 1915               	/* prologue: function */
 1916               	/* frame size = 0 */
 1917               	/* stack size = 3 */
 1918               	.L__stack_usage = 3
GAS LISTING /tmp/cchFZ4o5.s 			page 40


 1919 069c EC01      		movw r28,r24
 171:lcd.c         **** 	uint8_t i;
 1920               		.loc 1 171 2 is_stmt 1 view .LVU709
 172:lcd.c         **** 	for(i=0; str[i]; i++) 
 1921               		.loc 1 172 2 view .LVU710
 1922               	.LVL93:
 1923               		.loc 1 172 7 is_stmt 0 view .LVU711
 1924 069e 10E0      		ldi r17,0
 1925               	.LVL94:
 1926               	.L47:
 1927               		.loc 1 172 11 is_stmt 1 discriminator 1 view .LVU712
 1928               		.loc 1 172 14 is_stmt 0 discriminator 1 view .LVU713
 1929 06a0 FE01      		movw r30,r28
 1930 06a2 E10F      		add r30,r17
 1931 06a4 F11D      		adc r31,__zero_reg__
 1932 06a6 8081      		ld r24,Z
 1933               		.loc 1 172 11 discriminator 1 view .LVU714
 1934 06a8 8111      		cpse r24,__zero_reg__
 1935 06aa 00C0      		rjmp .L48
 1936               	/* epilogue start */
 173:lcd.c         **** 		display_char(str[i]);
 174:lcd.c         **** }
 1937               		.loc 1 174 1 view .LVU715
 1938 06ac DF91      		pop r29
 1939 06ae CF91      		pop r28
 1940               	.LVL95:
 1941               		.loc 1 174 1 view .LVU716
 1942 06b0 1F91      		pop r17
 1943               	.LVL96:
 1944               		.loc 1 174 1 view .LVU717
 1945 06b2 0895      		ret
 1946               	.LVL97:
 1947               	.L48:
 173:lcd.c         **** 		display_char(str[i]);
 1948               		.loc 1 173 3 is_stmt 1 discriminator 3 view .LVU718
 1949 06b4 0E94 0000 		call display_char
 1950               	.LVL98:
 172:lcd.c         **** 	for(i=0; str[i]; i++) 
 1951               		.loc 1 172 20 discriminator 3 view .LVU719
 1952 06b8 1F5F      		subi r17,lo8(-(1))
 1953               	.LVL99:
 172:lcd.c         **** 	for(i=0; str[i]; i++) 
 1954               		.loc 1 172 20 is_stmt 0 discriminator 3 view .LVU720
 1955 06ba 00C0      		rjmp .L47
 1956               		.cfi_endproc
 1957               	.LFE8:
 1958               		.size	display_string, .-display_string
 1959               	.global	display
 1960               		.data
 1961               		.type	display, @object
 1962               		.size	display, 14
 1963               	display:
 1964 0000 F000      		.word	240
 1965 0002 4001      		.word	320
 1966 0004 0000      		.word	0
 1967 0006 0000      		.word	0
 1968 0008 0000      		.word	0
GAS LISTING /tmp/cchFZ4o5.s 			page 41


 1969 000a E420      		.word	8420
 1970 000c 99FF      		.word	-103
 1971               		.text
 1972               	.Letext0:
 1973               		.file 2 "/usr/avr/include/stdint.h"
 1974               		.file 3 "font.h"
 1975               		.file 4 "graphics.h"
 1976               		.file 5 "lcd.h"
 1977               		.file 6 "ili934x.h"
 1978               		.section	.debug_info,"",@progbits
 1979               	.Ldebug_info0:
 1980 0000 3407 0000 		.long	0x734
 1981 0004 0500      		.word	0x5
 1982 0006 01        		.byte	0x1
 1983 0007 04        		.byte	0x4
 1984 0008 0000 0000 		.long	.Ldebug_abbrev0
 1985 000c 14        		.uleb128 0x14
 1986 000d 0000 0000 		.long	.LASF42
 1987 0011 1D        		.byte	0x1d
 1988 0012 0000 0000 		.long	.LASF0
 1989 0016 0000 0000 		.long	.LASF1
 1990 001a 0000 0000 		.long	.Ltext0
 1991 001e BC06 0000 		.long	.Letext0-.Ltext0
 1992 0022 0000 0000 		.long	.Ldebug_line0
 1993 0026 05        		.uleb128 0x5
 1994 0027 01        		.byte	0x1
 1995 0028 06        		.byte	0x6
 1996 0029 0000 0000 		.long	.LASF2
 1997 002d 0A        		.uleb128 0xa
 1998 002e 0000 0000 		.long	.LASF4
 1999 0032 02        		.byte	0x2
 2000 0033 7E        		.byte	0x7e
 2001 0034 16        		.byte	0x16
 2002 0035 3E00 0000 		.long	0x3e
 2003 0039 08        		.uleb128 0x8
 2004 003a 2D00 0000 		.long	0x2d
 2005 003e 05        		.uleb128 0x5
 2006 003f 01        		.byte	0x1
 2007 0040 08        		.byte	0x8
 2008 0041 0000 0000 		.long	.LASF3
 2009 0045 15        		.uleb128 0x15
 2010 0046 02        		.byte	0x2
 2011 0047 05        		.byte	0x5
 2012 0048 696E 7400 		.string	"int"
 2013 004c 0A        		.uleb128 0xa
 2014 004d 0000 0000 		.long	.LASF5
 2015 0051 02        		.byte	0x2
 2016 0052 80        		.byte	0x80
 2017 0053 16        		.byte	0x16
 2018 0054 5D00 0000 		.long	0x5d
 2019 0058 08        		.uleb128 0x8
 2020 0059 4C00 0000 		.long	0x4c
 2021 005d 05        		.uleb128 0x5
 2022 005e 02        		.byte	0x2
 2023 005f 07        		.byte	0x7
 2024 0060 0000 0000 		.long	.LASF6
 2025 0064 05        		.uleb128 0x5
GAS LISTING /tmp/cchFZ4o5.s 			page 42


 2026 0065 04        		.byte	0x4
 2027 0066 05        		.byte	0x5
 2028 0067 0000 0000 		.long	.LASF7
 2029 006b 05        		.uleb128 0x5
 2030 006c 04        		.byte	0x4
 2031 006d 07        		.byte	0x7
 2032 006e 0000 0000 		.long	.LASF8
 2033 0072 05        		.uleb128 0x5
 2034 0073 08        		.byte	0x8
 2035 0074 05        		.byte	0x5
 2036 0075 0000 0000 		.long	.LASF9
 2037 0079 05        		.uleb128 0x5
 2038 007a 08        		.byte	0x8
 2039 007b 07        		.byte	0x7
 2040 007c 0000 0000 		.long	.LASF10
 2041 0080 0F        		.uleb128 0xf
 2042 0081 3900 0000 		.long	0x39
 2043 0085 8B00 0000 		.long	0x8b
 2044 0089 10        		.uleb128 0x10
 2045 008a 00        		.byte	0
 2046 008b 08        		.uleb128 0x8
 2047 008c 8000 0000 		.long	0x80
 2048 0090 0B        		.uleb128 0xb
 2049 0091 0000 0000 		.long	.LASF11
 2050 0095 03        		.byte	0x3
 2051 0096 0C        		.byte	0xc
 2052 0097 16        		.byte	0x16
 2053 0098 8B00 0000 		.long	0x8b
 2054 009c 0F        		.uleb128 0xf
 2055 009d 5800 0000 		.long	0x58
 2056 00a1 A700 0000 		.long	0xa7
 2057 00a5 10        		.uleb128 0x10
 2058 00a6 00        		.byte	0
 2059 00a7 08        		.uleb128 0x8
 2060 00a8 9C00 0000 		.long	0x9c
 2061 00ac 0B        		.uleb128 0xb
 2062 00ad 0000 0000 		.long	.LASF12
 2063 00b1 04        		.byte	0x4
 2064 00b2 03        		.byte	0x3
 2065 00b3 17        		.byte	0x17
 2066 00b4 A700 0000 		.long	0xa7
 2067 00b8 0B        		.uleb128 0xb
 2068 00b9 0000 0000 		.long	.LASF13
 2069 00bd 04        		.byte	0x4
 2070 00be 04        		.byte	0x4
 2071 00bf 17        		.byte	0x17
 2072 00c0 A700 0000 		.long	0xa7
 2073 00c4 16        		.uleb128 0x16
 2074 00c5 07        		.byte	0x7
 2075 00c6 02        		.byte	0x2
 2076 00c7 5D00 0000 		.long	0x5d
 2077 00cb 05        		.byte	0x5
 2078 00cc 15        		.byte	0x15
 2079 00cd 0E        		.byte	0xe
 2080 00ce EB00 0000 		.long	0xeb
 2081 00d2 0C        		.uleb128 0xc
 2082 00d3 0000 0000 		.long	.LASF14
GAS LISTING /tmp/cchFZ4o5.s 			page 43


 2083 00d7 00        		.byte	0
 2084 00d8 0C        		.uleb128 0xc
 2085 00d9 0000 0000 		.long	.LASF15
 2086 00dd 01        		.byte	0x1
 2087 00de 0C        		.uleb128 0xc
 2088 00df 0000 0000 		.long	.LASF16
 2089 00e3 02        		.byte	0x2
 2090 00e4 0C        		.uleb128 0xc
 2091 00e5 0000 0000 		.long	.LASF17
 2092 00e9 03        		.byte	0x3
 2093 00ea 00        		.byte	0
 2094 00eb 0A        		.uleb128 0xa
 2095 00ec 0000 0000 		.long	.LASF18
 2096 00f0 05        		.byte	0x5
 2097 00f1 15        		.byte	0x15
 2098 00f2 29        		.byte	0x29
 2099 00f3 C400 0000 		.long	0xc4
 2100 00f7 11        		.uleb128 0x11
 2101 00f8 0E        		.byte	0xe
 2102 00f9 17        		.byte	0x17
 2103 00fa 4F01 0000 		.long	0x14f
 2104 00fe 06        		.uleb128 0x6
 2105 00ff 0000 0000 		.long	.LASF19
 2106 0103 18        		.byte	0x18
 2107 0104 0B        		.byte	0xb
 2108 0105 4C00 0000 		.long	0x4c
 2109 0109 00        		.byte	0
 2110 010a 06        		.uleb128 0x6
 2111 010b 0000 0000 		.long	.LASF20
 2112 010f 18        		.byte	0x18
 2113 0110 12        		.byte	0x12
 2114 0111 4C00 0000 		.long	0x4c
 2115 0115 02        		.byte	0x2
 2116 0116 06        		.uleb128 0x6
 2117 0117 0000 0000 		.long	.LASF21
 2118 011b 19        		.byte	0x19
 2119 011c 0E        		.byte	0xe
 2120 011d EB00 0000 		.long	0xeb
 2121 0121 04        		.byte	0x4
 2122 0122 0D        		.uleb128 0xd
 2123 0123 7800      		.string	"x"
 2124 0125 1A        		.byte	0x1a
 2125 0126 0B        		.byte	0xb
 2126 0127 4C00 0000 		.long	0x4c
 2127 012b 06        		.byte	0x6
 2128 012c 0D        		.uleb128 0xd
 2129 012d 7900      		.string	"y"
 2130 012f 1A        		.byte	0x1a
 2131 0130 0E        		.byte	0xe
 2132 0131 4C00 0000 		.long	0x4c
 2133 0135 08        		.byte	0x8
 2134 0136 06        		.uleb128 0x6
 2135 0137 0000 0000 		.long	.LASF22
 2136 013b 1B        		.byte	0x1b
 2137 013c 0B        		.byte	0xb
 2138 013d 4C00 0000 		.long	0x4c
 2139 0141 0A        		.byte	0xa
GAS LISTING /tmp/cchFZ4o5.s 			page 44


 2140 0142 06        		.uleb128 0x6
 2141 0143 0000 0000 		.long	.LASF23
 2142 0147 1B        		.byte	0x1b
 2143 0148 17        		.byte	0x17
 2144 0149 4C00 0000 		.long	0x4c
 2145 014d 0C        		.byte	0xc
 2146 014e 00        		.byte	0
 2147 014f 17        		.uleb128 0x17
 2148 0150 6C63 6400 		.string	"lcd"
 2149 0154 05        		.byte	0x5
 2150 0155 1C        		.byte	0x1c
 2151 0156 03        		.byte	0x3
 2152 0157 F700 0000 		.long	0xf7
 2153 015b 0B        		.uleb128 0xb
 2154 015c 0000 0000 		.long	.LASF24
 2155 0160 05        		.byte	0x5
 2156 0161 1E        		.byte	0x1e
 2157 0162 0C        		.byte	0xc
 2158 0163 4F01 0000 		.long	0x14f
 2159 0167 11        		.uleb128 0x11
 2160 0168 08        		.byte	0x8
 2161 0169 20        		.byte	0x20
 2162 016a 9F01 0000 		.long	0x19f
 2163 016e 06        		.uleb128 0x6
 2164 016f 0000 0000 		.long	.LASF25
 2165 0173 21        		.byte	0x21
 2166 0174 0B        		.byte	0xb
 2167 0175 4C00 0000 		.long	0x4c
 2168 0179 00        		.byte	0
 2169 017a 06        		.uleb128 0x6
 2170 017b 0000 0000 		.long	.LASF26
 2171 017f 21        		.byte	0x21
 2172 0180 11        		.byte	0x11
 2173 0181 4C00 0000 		.long	0x4c
 2174 0185 02        		.byte	0x2
 2175 0186 0D        		.uleb128 0xd
 2176 0187 746F 7000 		.string	"top"
 2177 018b 22        		.byte	0x22
 2178 018c 0B        		.byte	0xb
 2179 018d 4C00 0000 		.long	0x4c
 2180 0191 04        		.byte	0x4
 2181 0192 06        		.uleb128 0x6
 2182 0193 0000 0000 		.long	.LASF27
 2183 0197 22        		.byte	0x22
 2184 0198 10        		.byte	0x10
 2185 0199 4C00 0000 		.long	0x4c
 2186 019d 06        		.byte	0x6
 2187 019e 00        		.byte	0
 2188 019f 0A        		.uleb128 0xa
 2189 01a0 0000 0000 		.long	.LASF28
 2190 01a4 05        		.byte	0x5
 2191 01a5 23        		.byte	0x23
 2192 01a6 03        		.byte	0x3
 2193 01a7 6701 0000 		.long	0x167
 2194 01ab 18        		.uleb128 0x18
 2195 01ac 5B01 0000 		.long	0x15b
 2196 01b0 01        		.byte	0x1
GAS LISTING /tmp/cchFZ4o5.s 			page 45


 2197 01b1 0B        		.byte	0xb
 2198 01b2 05        		.byte	0x5
 2199 01b3 05        		.uleb128 0x5
 2200 01b4 03        		.byte	0x3
 2201 01b5 0000 0000 		.long	display
 2202 01b9 19        		.uleb128 0x19
 2203 01ba 0000 0000 		.long	.LASF43
 2204 01be 06        		.byte	0x6
 2205 01bf 7E        		.byte	0x7e
 2206 01c0 06        		.byte	0x6
 2207 01c1 C701 0000 		.long	0x1c7
 2208 01c5 1A        		.uleb128 0x1a
 2209 01c6 00        		.byte	0
 2210 01c7 09        		.uleb128 0x9
 2211 01c8 0000 0000 		.long	.LASF30
 2212 01cc A9        		.byte	0xa9
 2213 01cd 0000 0000 		.long	.LFB8
 2214 01d1 2600 0000 		.long	.LFE8-.LFB8
 2215 01d5 01        		.uleb128 0x1
 2216 01d6 9C        		.byte	0x9c
 2217 01d7 0902 0000 		.long	0x209
 2218 01db 07        		.uleb128 0x7
 2219 01dc 7374 7200 		.string	"str"
 2220 01e0 A9        		.byte	0xa9
 2221 01e1 1B        		.byte	0x1b
 2222 01e2 0902 0000 		.long	0x209
 2223 01e6 0000 0000 		.long	.LLST38
 2224 01ea 0000 0000 		.long	.LVUS38
 2225 01ee 04        		.uleb128 0x4
 2226 01ef 6900      		.string	"i"
 2227 01f1 AB        		.byte	0xab
 2228 01f2 0A        		.byte	0xa
 2229 01f3 2D00 0000 		.long	0x2d
 2230 01f7 0000 0000 		.long	.LLST39
 2231 01fb 0000 0000 		.long	.LVUS39
 2232 01ff 1B        		.uleb128 0x1b
 2233 0200 0000 0000 		.long	.LVL98
 2234 0204 1A02 0000 		.long	0x21a
 2235 0208 00        		.byte	0
 2236 0209 0E        		.uleb128 0xe
 2237 020a 0E02 0000 		.long	0x20e
 2238 020e 05        		.uleb128 0x5
 2239 020f 01        		.byte	0x1
 2240 0210 08        		.byte	0x8
 2241 0211 0000 0000 		.long	.LASF29
 2242 0215 08        		.uleb128 0x8
 2243 0216 0E02 0000 		.long	0x20e
 2244 021a 09        		.uleb128 0x9
 2245 021b 0000 0000 		.long	.LASF31
 2246 021f 8A        		.byte	0x8a
 2247 0220 0000 0000 		.long	.LFB7
 2248 0224 8801 0000 		.long	.LFE7-.LFB7
 2249 0228 01        		.uleb128 0x1
 2250 0229 9C        		.byte	0x9c
 2251 022a 0B03 0000 		.long	0x30b
 2252 022e 07        		.uleb128 0x7
 2253 022f 6300      		.string	"c"
GAS LISTING /tmp/cchFZ4o5.s 			page 46


 2254 0231 8A        		.byte	0x8a
 2255 0232 18        		.byte	0x18
 2256 0233 0E02 0000 		.long	0x20e
 2257 0237 0000 0000 		.long	.LLST27
 2258 023b 0000 0000 		.long	.LVUS27
 2259 023f 04        		.uleb128 0x4
 2260 0240 7800      		.string	"x"
 2261 0242 8C        		.byte	0x8c
 2262 0243 0B        		.byte	0xb
 2263 0244 4C00 0000 		.long	0x4c
 2264 0248 0000 0000 		.long	.LLST28
 2265 024c 0000 0000 		.long	.LVUS28
 2266 0250 04        		.uleb128 0x4
 2267 0251 7900      		.string	"y"
 2268 0253 8C        		.byte	0x8c
 2269 0254 0E        		.byte	0xe
 2270 0255 4C00 0000 		.long	0x4c
 2271 0259 0000 0000 		.long	.LLST29
 2272 025d 0000 0000 		.long	.LVUS29
 2273 0261 02        		.uleb128 0x2
 2274 0262 0000 0000 		.long	.LASF38
 2275 0266 8D        		.byte	0x8d
 2276 0267 08        		.byte	0x8
 2277 0268 0B03 0000 		.long	0x30b
 2278 026c 01        		.uleb128 0x1
 2279 026d 0000 0000 		.long	.LASF32
 2280 0271 8E        		.byte	0x8e
 2281 0272 0A        		.byte	0xa
 2282 0273 2D00 0000 		.long	0x2d
 2283 0277 0000 0000 		.long	.LLST30
 2284 027b 0000 0000 		.long	.LVUS30
 2285 027f 01        		.uleb128 0x1
 2286 0280 0000 0000 		.long	.LASF33
 2287 0284 8E        		.byte	0x8e
 2288 0285 10        		.byte	0x10
 2289 0286 2D00 0000 		.long	0x2d
 2290 028a 0000 0000 		.long	.LLST31
 2291 028e 0000 0000 		.long	.LVUS31
 2292 0292 04        		.uleb128 0x4
 2293 0293 7363 00   		.string	"sc"
 2294 0296 8F        		.byte	0x8f
 2295 0297 0B        		.byte	0xb
 2296 0298 4C00 0000 		.long	0x4c
 2297 029c 0000 0000 		.long	.LLST32
 2298 02a0 0000 0000 		.long	.LVUS32
 2299 02a4 04        		.uleb128 0x4
 2300 02a5 6563 00   		.string	"ec"
 2301 02a8 8F        		.byte	0x8f
 2302 02a9 19        		.byte	0x19
 2303 02aa 4C00 0000 		.long	0x4c
 2304 02ae 0000 0000 		.long	.LLST33
 2305 02b2 0000 0000 		.long	.LVUS33
 2306 02b6 04        		.uleb128 0x4
 2307 02b7 7370 00   		.string	"sp"
 2308 02ba 8F        		.byte	0x8f
 2309 02bb 2B        		.byte	0x2b
 2310 02bc 4C00 0000 		.long	0x4c
GAS LISTING /tmp/cchFZ4o5.s 			page 47


 2311 02c0 0000 0000 		.long	.LLST34
 2312 02c4 0000 0000 		.long	.LVUS34
 2313 02c8 04        		.uleb128 0x4
 2314 02c9 6570 00   		.string	"ep"
 2315 02cc 8F        		.byte	0x8f
 2316 02cd 39        		.byte	0x39
 2317 02ce 4C00 0000 		.long	0x4c
 2318 02d2 0000 0000 		.long	.LLST35
 2319 02d6 0000 0000 		.long	.LVUS35
 2320 02da 12        		.uleb128 0x12
 2321 02db 0000 0000 		.long	.LBB18
 2322 02df 0200 0000 		.long	.LBE18-.LBB18
 2323 02e3 01        		.uleb128 0x1
 2324 02e4 0000 0000 		.long	.LASF34
 2325 02e8 9A        		.byte	0x9a
 2326 02e9 0A        		.byte	0xa
 2327 02ea 4C00 0000 		.long	0x4c
 2328 02ee 0000 0000 		.long	.LLST36
 2329 02f2 0000 0000 		.long	.LVUS36
 2330 02f6 01        		.uleb128 0x1
 2331 02f7 0000 0000 		.long	.LASF35
 2332 02fb 9A        		.byte	0x9a
 2333 02fc 0A        		.byte	0xa
 2334 02fd 2D00 0000 		.long	0x2d
 2335 0301 0000 0000 		.long	.LLST37
 2336 0305 0000 0000 		.long	.LVUS37
 2337 0309 00        		.byte	0
 2338 030a 00        		.byte	0
 2339 030b 0E        		.uleb128 0xe
 2340 030c 1502 0000 		.long	0x215
 2341 0310 13        		.uleb128 0x13
 2342 0311 0000 0000 		.long	.LASF36
 2343 0315 82        		.byte	0x82
 2344 0316 0000 0000 		.long	.LFB6
 2345 031a 5A00 0000 		.long	.LFE6-.LFB6
 2346 031e 01        		.uleb128 0x1
 2347 031f 9C        		.byte	0x9c
 2348 0320 4703 0000 		.long	0x347
 2349 0324 1C        		.uleb128 0x1c
 2350 0325 7200      		.string	"r"
 2351 0327 01        		.byte	0x1
 2352 0328 86        		.byte	0x86
 2353 0329 0C        		.byte	0xc
 2354 032a 9F01 0000 		.long	0x19f
 2355 032e 02        		.uleb128 0x2
 2356 032f 8C        		.byte	0x8c
 2357 0330 01        		.sleb128 1
 2358 0331 1D        		.uleb128 0x1d
 2359 0332 0000 0000 		.long	.LVL66
 2360 0336 9A06 0000 		.long	0x69a
 2361 033a 1E        		.uleb128 0x1e
 2362 033b 06        		.uleb128 0x6
 2363 033c 60        		.byte	0x60
 2364 033d 93        		.byte	0x93
 2365 033e 01        		.uleb128 0x1
 2366 033f 61        		.byte	0x61
 2367 0340 93        		.byte	0x93
GAS LISTING /tmp/cchFZ4o5.s 			page 48


 2368 0341 01        		.uleb128 0x1
 2369 0342 02        		.uleb128 0x2
 2370 0343 80        		.byte	0x80
 2371 0344 00        		.sleb128 0
 2372 0345 00        		.byte	0
 2373 0346 00        		.byte	0
 2374 0347 13        		.uleb128 0x13
 2375 0348 0000 0000 		.long	.LASF37
 2376 034c 5A        		.byte	0x5a
 2377 034d 0000 0000 		.long	.LFB5
 2378 0351 F401 0000 		.long	.LFE5-.LFB5
 2379 0355 01        		.uleb128 0x1
 2380 0356 9C        		.byte	0x9c
 2381 0357 3A06 0000 		.long	0x63a
 2382 035b 04        		.uleb128 0x4
 2383 035c 7800      		.string	"x"
 2384 035e 5C        		.byte	0x5c
 2385 035f 0B        		.byte	0xb
 2386 0360 4C00 0000 		.long	0x4c
 2387 0364 0000 0000 		.long	.LLST9
 2388 0368 0000 0000 		.long	.LVUS9
 2389 036c 04        		.uleb128 0x4
 2390 036d 7900      		.string	"y"
 2391 036f 5C        		.byte	0x5c
 2392 0370 0E        		.byte	0xe
 2393 0371 4C00 0000 		.long	0x4c
 2394 0375 0000 0000 		.long	.LLST10
 2395 0379 0000 0000 		.long	.LVUS10
 2396 037d 03        		.uleb128 0x3
 2397 037e 0000 0000 		.long	.LBB2
 2398 0382 0600 0000 		.long	.LBE2-.LBB2
 2399 0386 A903 0000 		.long	0x3a9
 2400 038a 01        		.uleb128 0x1
 2401 038b 0000 0000 		.long	.LASF34
 2402 038f 66        		.byte	0x66
 2403 0390 04        		.byte	0x4
 2404 0391 4C00 0000 		.long	0x4c
 2405 0395 0000 0000 		.long	.LLST11
 2406 0399 0000 0000 		.long	.LVUS11
 2407 039d 02        		.uleb128 0x2
 2408 039e 0000 0000 		.long	.LASF35
 2409 03a2 66        		.byte	0x66
 2410 03a3 04        		.byte	0x4
 2411 03a4 4C00 0000 		.long	0x4c
 2412 03a8 00        		.byte	0
 2413 03a9 03        		.uleb128 0x3
 2414 03aa 0000 0000 		.long	.LBB3
 2415 03ae 0600 0000 		.long	.LBE3-.LBB3
 2416 03b2 D503 0000 		.long	0x3d5
 2417 03b6 01        		.uleb128 0x1
 2418 03b7 0000 0000 		.long	.LASF34
 2419 03bb 66        		.byte	0x66
 2420 03bc 04        		.byte	0x4
 2421 03bd 4C00 0000 		.long	0x4c
 2422 03c1 0000 0000 		.long	.LLST12
 2423 03c5 0000 0000 		.long	.LVUS12
 2424 03c9 02        		.uleb128 0x2
GAS LISTING /tmp/cchFZ4o5.s 			page 49


 2425 03ca 0000 0000 		.long	.LASF35
 2426 03ce 66        		.byte	0x66
 2427 03cf 04        		.byte	0x4
 2428 03d0 4C00 0000 		.long	0x4c
 2429 03d4 00        		.byte	0
 2430 03d5 03        		.uleb128 0x3
 2431 03d6 0000 0000 		.long	.LBB4
 2432 03da 0600 0000 		.long	.LBE4-.LBB4
 2433 03de 0104 0000 		.long	0x401
 2434 03e2 01        		.uleb128 0x1
 2435 03e3 0000 0000 		.long	.LASF34
 2436 03e7 67        		.byte	0x67
 2437 03e8 04        		.byte	0x4
 2438 03e9 4C00 0000 		.long	0x4c
 2439 03ed 0000 0000 		.long	.LLST13
 2440 03f1 0000 0000 		.long	.LVUS13
 2441 03f5 02        		.uleb128 0x2
 2442 03f6 0000 0000 		.long	.LASF35
 2443 03fa 67        		.byte	0x67
 2444 03fb 04        		.byte	0x4
 2445 03fc 4C00 0000 		.long	0x4c
 2446 0400 00        		.byte	0
 2447 0401 03        		.uleb128 0x3
 2448 0402 0000 0000 		.long	.LBB5
 2449 0406 0600 0000 		.long	.LBE5-.LBB5
 2450 040a 2D04 0000 		.long	0x42d
 2451 040e 01        		.uleb128 0x1
 2452 040f 0000 0000 		.long	.LASF34
 2453 0413 67        		.byte	0x67
 2454 0414 04        		.byte	0x4
 2455 0415 4C00 0000 		.long	0x4c
 2456 0419 0000 0000 		.long	.LLST14
 2457 041d 0000 0000 		.long	.LVUS14
 2458 0421 02        		.uleb128 0x2
 2459 0422 0000 0000 		.long	.LASF35
 2460 0426 67        		.byte	0x67
 2461 0427 04        		.byte	0x4
 2462 0428 4C00 0000 		.long	0x4c
 2463 042c 00        		.byte	0
 2464 042d 03        		.uleb128 0x3
 2465 042e 0000 0000 		.long	.LBB6
 2466 0432 0600 0000 		.long	.LBE6-.LBB6
 2467 0436 5904 0000 		.long	0x459
 2468 043a 01        		.uleb128 0x1
 2469 043b 0000 0000 		.long	.LASF34
 2470 043f 6A        		.byte	0x6a
 2471 0440 04        		.byte	0x4
 2472 0441 4C00 0000 		.long	0x4c
 2473 0445 0000 0000 		.long	.LLST15
 2474 0449 0000 0000 		.long	.LVUS15
 2475 044d 02        		.uleb128 0x2
 2476 044e 0000 0000 		.long	.LASF35
 2477 0452 6A        		.byte	0x6a
 2478 0453 04        		.byte	0x4
 2479 0454 4C00 0000 		.long	0x4c
 2480 0458 00        		.byte	0
 2481 0459 03        		.uleb128 0x3
GAS LISTING /tmp/cchFZ4o5.s 			page 50


 2482 045a 0000 0000 		.long	.LBB7
 2483 045e 0600 0000 		.long	.LBE7-.LBB7
 2484 0462 8504 0000 		.long	0x485
 2485 0466 01        		.uleb128 0x1
 2486 0467 0000 0000 		.long	.LASF34
 2487 046b 6A        		.byte	0x6a
 2488 046c 04        		.byte	0x4
 2489 046d 4C00 0000 		.long	0x4c
 2490 0471 0000 0000 		.long	.LLST16
 2491 0475 0000 0000 		.long	.LVUS16
 2492 0479 02        		.uleb128 0x2
 2493 047a 0000 0000 		.long	.LASF35
 2494 047e 6A        		.byte	0x6a
 2495 047f 04        		.byte	0x4
 2496 0480 4C00 0000 		.long	0x4c
 2497 0484 00        		.byte	0
 2498 0485 03        		.uleb128 0x3
 2499 0486 0000 0000 		.long	.LBB8
 2500 048a 0600 0000 		.long	.LBE8-.LBB8
 2501 048e B104 0000 		.long	0x4b1
 2502 0492 01        		.uleb128 0x1
 2503 0493 0000 0000 		.long	.LASF34
 2504 0497 6B        		.byte	0x6b
 2505 0498 04        		.byte	0x4
 2506 0499 4C00 0000 		.long	0x4c
 2507 049d 0000 0000 		.long	.LLST17
 2508 04a1 0000 0000 		.long	.LVUS17
 2509 04a5 02        		.uleb128 0x2
 2510 04a6 0000 0000 		.long	.LASF35
 2511 04aa 6B        		.byte	0x6b
 2512 04ab 04        		.byte	0x4
 2513 04ac 4C00 0000 		.long	0x4c
 2514 04b0 00        		.byte	0
 2515 04b1 03        		.uleb128 0x3
 2516 04b2 0000 0000 		.long	.LBB9
 2517 04b6 0600 0000 		.long	.LBE9-.LBB9
 2518 04ba DD04 0000 		.long	0x4dd
 2519 04be 01        		.uleb128 0x1
 2520 04bf 0000 0000 		.long	.LASF34
 2521 04c3 6B        		.byte	0x6b
 2522 04c4 04        		.byte	0x4
 2523 04c5 4C00 0000 		.long	0x4c
 2524 04c9 0000 0000 		.long	.LLST18
 2525 04cd 0000 0000 		.long	.LVUS18
 2526 04d1 02        		.uleb128 0x2
 2527 04d2 0000 0000 		.long	.LASF35
 2528 04d6 6B        		.byte	0x6b
 2529 04d7 04        		.byte	0x4
 2530 04d8 4C00 0000 		.long	0x4c
 2531 04dc 00        		.byte	0
 2532 04dd 03        		.uleb128 0x3
 2533 04de 0000 0000 		.long	.LBB10
 2534 04e2 0600 0000 		.long	.LBE10-.LBB10
 2535 04e6 0905 0000 		.long	0x509
 2536 04ea 01        		.uleb128 0x1
 2537 04eb 0000 0000 		.long	.LASF34
 2538 04ef 77        		.byte	0x77
GAS LISTING /tmp/cchFZ4o5.s 			page 51


 2539 04f0 04        		.byte	0x4
 2540 04f1 4C00 0000 		.long	0x4c
 2541 04f5 0000 0000 		.long	.LLST19
 2542 04f9 0000 0000 		.long	.LVUS19
 2543 04fd 02        		.uleb128 0x2
 2544 04fe 0000 0000 		.long	.LASF35
 2545 0502 77        		.byte	0x77
 2546 0503 04        		.byte	0x4
 2547 0504 4C00 0000 		.long	0x4c
 2548 0508 00        		.byte	0
 2549 0509 03        		.uleb128 0x3
 2550 050a 0000 0000 		.long	.LBB11
 2551 050e 0600 0000 		.long	.LBE11-.LBB11
 2552 0512 3505 0000 		.long	0x535
 2553 0516 01        		.uleb128 0x1
 2554 0517 0000 0000 		.long	.LASF34
 2555 051b 77        		.byte	0x77
 2556 051c 04        		.byte	0x4
 2557 051d 4C00 0000 		.long	0x4c
 2558 0521 0000 0000 		.long	.LLST20
 2559 0525 0000 0000 		.long	.LVUS20
 2560 0529 02        		.uleb128 0x2
 2561 052a 0000 0000 		.long	.LASF35
 2562 052e 77        		.byte	0x77
 2563 052f 04        		.byte	0x4
 2564 0530 4C00 0000 		.long	0x4c
 2565 0534 00        		.byte	0
 2566 0535 03        		.uleb128 0x3
 2567 0536 0000 0000 		.long	.LBB12
 2568 053a 0600 0000 		.long	.LBE12-.LBB12
 2569 053e 6105 0000 		.long	0x561
 2570 0542 01        		.uleb128 0x1
 2571 0543 0000 0000 		.long	.LASF34
 2572 0547 78        		.byte	0x78
 2573 0548 04        		.byte	0x4
 2574 0549 4C00 0000 		.long	0x4c
 2575 054d 0000 0000 		.long	.LLST21
 2576 0551 0000 0000 		.long	.LVUS21
 2577 0555 02        		.uleb128 0x2
 2578 0556 0000 0000 		.long	.LASF35
 2579 055a 78        		.byte	0x78
 2580 055b 04        		.byte	0x4
 2581 055c 4C00 0000 		.long	0x4c
 2582 0560 00        		.byte	0
 2583 0561 03        		.uleb128 0x3
 2584 0562 0000 0000 		.long	.LBB13
 2585 0566 0600 0000 		.long	.LBE13-.LBB13
 2586 056a 8D05 0000 		.long	0x58d
 2587 056e 01        		.uleb128 0x1
 2588 056f 0000 0000 		.long	.LASF34
 2589 0573 78        		.byte	0x78
 2590 0574 04        		.byte	0x4
 2591 0575 4C00 0000 		.long	0x4c
 2592 0579 0000 0000 		.long	.LLST22
 2593 057d 0000 0000 		.long	.LVUS22
 2594 0581 02        		.uleb128 0x2
 2595 0582 0000 0000 		.long	.LASF35
GAS LISTING /tmp/cchFZ4o5.s 			page 52


 2596 0586 78        		.byte	0x78
 2597 0587 04        		.byte	0x4
 2598 0588 4C00 0000 		.long	0x4c
 2599 058c 00        		.byte	0
 2600 058d 03        		.uleb128 0x3
 2601 058e 0000 0000 		.long	.LBB14
 2602 0592 0600 0000 		.long	.LBE14-.LBB14
 2603 0596 B905 0000 		.long	0x5b9
 2604 059a 01        		.uleb128 0x1
 2605 059b 0000 0000 		.long	.LASF34
 2606 059f 7B        		.byte	0x7b
 2607 05a0 04        		.byte	0x4
 2608 05a1 4C00 0000 		.long	0x4c
 2609 05a5 0000 0000 		.long	.LLST23
 2610 05a9 0000 0000 		.long	.LVUS23
 2611 05ad 02        		.uleb128 0x2
 2612 05ae 0000 0000 		.long	.LASF35
 2613 05b2 7B        		.byte	0x7b
 2614 05b3 04        		.byte	0x4
 2615 05b4 4C00 0000 		.long	0x4c
 2616 05b8 00        		.byte	0
 2617 05b9 03        		.uleb128 0x3
 2618 05ba 0000 0000 		.long	.LBB15
 2619 05be 0600 0000 		.long	.LBE15-.LBB15
 2620 05c2 E505 0000 		.long	0x5e5
 2621 05c6 01        		.uleb128 0x1
 2622 05c7 0000 0000 		.long	.LASF34
 2623 05cb 7B        		.byte	0x7b
 2624 05cc 04        		.byte	0x4
 2625 05cd 4C00 0000 		.long	0x4c
 2626 05d1 0000 0000 		.long	.LLST24
 2627 05d5 0000 0000 		.long	.LVUS24
 2628 05d9 02        		.uleb128 0x2
 2629 05da 0000 0000 		.long	.LASF35
 2630 05de 7B        		.byte	0x7b
 2631 05df 04        		.byte	0x4
 2632 05e0 4C00 0000 		.long	0x4c
 2633 05e4 00        		.byte	0
 2634 05e5 03        		.uleb128 0x3
 2635 05e6 0000 0000 		.long	.LBB16
 2636 05ea 0600 0000 		.long	.LBE16-.LBB16
 2637 05ee 1106 0000 		.long	0x611
 2638 05f2 01        		.uleb128 0x1
 2639 05f3 0000 0000 		.long	.LASF34
 2640 05f7 7C        		.byte	0x7c
 2641 05f8 04        		.byte	0x4
 2642 05f9 4C00 0000 		.long	0x4c
 2643 05fd 0000 0000 		.long	.LLST25
 2644 0601 0000 0000 		.long	.LVUS25
 2645 0605 02        		.uleb128 0x2
 2646 0606 0000 0000 		.long	.LASF35
 2647 060a 7C        		.byte	0x7c
 2648 060b 04        		.byte	0x4
 2649 060c 4C00 0000 		.long	0x4c
 2650 0610 00        		.byte	0
 2651 0611 12        		.uleb128 0x12
 2652 0612 0000 0000 		.long	.LBB17
GAS LISTING /tmp/cchFZ4o5.s 			page 53


 2653 0616 0600 0000 		.long	.LBE17-.LBB17
 2654 061a 01        		.uleb128 0x1
 2655 061b 0000 0000 		.long	.LASF34
 2656 061f 7C        		.byte	0x7c
 2657 0620 04        		.byte	0x4
 2658 0621 4C00 0000 		.long	0x4c
 2659 0625 0000 0000 		.long	.LLST26
 2660 0629 0000 0000 		.long	.LVUS26
 2661 062d 02        		.uleb128 0x2
 2662 062e 0000 0000 		.long	.LASF35
 2663 0632 7C        		.byte	0x7c
 2664 0633 04        		.byte	0x4
 2665 0634 4C00 0000 		.long	0x4c
 2666 0638 00        		.byte	0
 2667 0639 00        		.byte	0
 2668 063a 09        		.uleb128 0x9
 2669 063b 0000 0000 		.long	.LASF39
 2670 063f 4B        		.byte	0x4b
 2671 0640 0000 0000 		.long	.LFB4
 2672 0644 D200 0000 		.long	.LFE4-.LFB4
 2673 0648 01        		.uleb128 0x1
 2674 0649 9C        		.byte	0x9c
 2675 064a 9506 0000 		.long	0x695
 2676 064e 07        		.uleb128 0x7
 2677 064f 7200      		.string	"r"
 2678 0651 4B        		.byte	0x4b
 2679 0652 27        		.byte	0x27
 2680 0653 9F01 0000 		.long	0x19f
 2681 0657 0000 0000 		.long	.LLST5
 2682 065b 0000 0000 		.long	.LVUS5
 2683 065f 07        		.uleb128 0x7
 2684 0660 636F 6C00 		.string	"col"
 2685 0664 4B        		.byte	0x4b
 2686 0665 34        		.byte	0x34
 2687 0666 9506 0000 		.long	0x695
 2688 066a 0000 0000 		.long	.LLST6
 2689 066e 0000 0000 		.long	.LVUS6
 2690 0672 04        		.uleb128 0x4
 2691 0673 7800      		.string	"x"
 2692 0675 4D        		.byte	0x4d
 2693 0676 0B        		.byte	0xb
 2694 0677 4C00 0000 		.long	0x4c
 2695 067b 0000 0000 		.long	.LLST7
 2696 067f 0000 0000 		.long	.LVUS7
 2697 0683 04        		.uleb128 0x4
 2698 0684 7900      		.string	"y"
 2699 0686 4D        		.byte	0x4d
 2700 0687 0E        		.byte	0xe
 2701 0688 4C00 0000 		.long	0x4c
 2702 068c 0000 0000 		.long	.LLST8
 2703 0690 0000 0000 		.long	.LVUS8
 2704 0694 00        		.byte	0
 2705 0695 0E        		.uleb128 0xe
 2706 0696 4C00 0000 		.long	0x4c
 2707 069a 09        		.uleb128 0x9
 2708 069b 0000 0000 		.long	.LASF40
 2709 069f 3C        		.byte	0x3c
GAS LISTING /tmp/cchFZ4o5.s 			page 54


 2710 06a0 0000 0000 		.long	.LFB3
 2711 06a4 C600 0000 		.long	.LFE3-.LFB3
 2712 06a8 01        		.uleb128 0x1
 2713 06a9 9C        		.byte	0x9c
 2714 06aa F506 0000 		.long	0x6f5
 2715 06ae 07        		.uleb128 0x7
 2716 06af 7200      		.string	"r"
 2717 06b1 3C        		.byte	0x3c
 2718 06b2 1F        		.byte	0x1f
 2719 06b3 9F01 0000 		.long	0x19f
 2720 06b7 0000 0000 		.long	.LLST1
 2721 06bb 0000 0000 		.long	.LVUS1
 2722 06bf 07        		.uleb128 0x7
 2723 06c0 636F 6C00 		.string	"col"
 2724 06c4 3C        		.byte	0x3c
 2725 06c5 2B        		.byte	0x2b
 2726 06c6 4C00 0000 		.long	0x4c
 2727 06ca 0000 0000 		.long	.LLST2
 2728 06ce 0000 0000 		.long	.LVUS2
 2729 06d2 04        		.uleb128 0x4
 2730 06d3 7800      		.string	"x"
 2731 06d5 3E        		.byte	0x3e
 2732 06d6 0B        		.byte	0xb
 2733 06d7 4C00 0000 		.long	0x4c
 2734 06db 0000 0000 		.long	.LLST3
 2735 06df 0000 0000 		.long	.LVUS3
 2736 06e3 04        		.uleb128 0x4
 2737 06e4 7900      		.string	"y"
 2738 06e6 3E        		.byte	0x3e
 2739 06e7 0E        		.byte	0xe
 2740 06e8 4C00 0000 		.long	0x4c
 2741 06ec 0000 0000 		.long	.LLST4
 2742 06f0 0000 0000 		.long	.LVUS4
 2743 06f4 00        		.byte	0
 2744 06f5 09        		.uleb128 0x9
 2745 06f6 0000 0000 		.long	.LASF41
 2746 06fa 1C        		.byte	0x1c
 2747 06fb 0000 0000 		.long	.LFB2
 2748 06ff 1001 0000 		.long	.LFE2-.LFB2
 2749 0703 01        		.uleb128 0x1
 2750 0704 9C        		.byte	0x9c
 2751 0705 1B07 0000 		.long	0x71b
 2752 0709 07        		.uleb128 0x7
 2753 070a 6F00      		.string	"o"
 2754 070c 1C        		.byte	0x1c
 2755 070d 22        		.byte	0x22
 2756 070e EB00 0000 		.long	0xeb
 2757 0712 0000 0000 		.long	.LLST0
 2758 0716 0000 0000 		.long	.LVUS0
 2759 071a 00        		.byte	0
 2760 071b 1F        		.uleb128 0x1f
 2761 071c 0000 0000 		.long	.LASF44
 2762 0720 01        		.byte	0x1
 2763 0721 0D        		.byte	0xd
 2764 0722 06        		.byte	0x6
 2765 0723 0000 0000 		.long	.LFB1
 2766 0727 1800 0000 		.long	.LFE1-.LFB1
GAS LISTING /tmp/cchFZ4o5.s 			page 55


 2767 072b 01        		.uleb128 0x1
 2768 072c 9C        		.byte	0x9c
 2769 072d 20        		.uleb128 0x20
 2770 072e 0000 0000 		.long	.LVL0
 2771 0732 B901 0000 		.long	0x1b9
 2772 0736 00        		.byte	0
 2773 0737 00        		.byte	0
 2774               		.section	.debug_abbrev,"",@progbits
 2775               	.Ldebug_abbrev0:
 2776 0000 01        		.uleb128 0x1
 2777 0001 34        		.uleb128 0x34
 2778 0002 00        		.byte	0
 2779 0003 03        		.uleb128 0x3
 2780 0004 0E        		.uleb128 0xe
 2781 0005 3A        		.uleb128 0x3a
 2782 0006 21        		.uleb128 0x21
 2783 0007 01        		.sleb128 1
 2784 0008 3B        		.uleb128 0x3b
 2785 0009 0B        		.uleb128 0xb
 2786 000a 39        		.uleb128 0x39
 2787 000b 0B        		.uleb128 0xb
 2788 000c 49        		.uleb128 0x49
 2789 000d 13        		.uleb128 0x13
 2790 000e 02        		.uleb128 0x2
 2791 000f 17        		.uleb128 0x17
 2792 0010 B742      		.uleb128 0x2137
 2793 0012 17        		.uleb128 0x17
 2794 0013 00        		.byte	0
 2795 0014 00        		.byte	0
 2796 0015 02        		.uleb128 0x2
 2797 0016 34        		.uleb128 0x34
 2798 0017 00        		.byte	0
 2799 0018 03        		.uleb128 0x3
 2800 0019 0E        		.uleb128 0xe
 2801 001a 3A        		.uleb128 0x3a
 2802 001b 21        		.uleb128 0x21
 2803 001c 01        		.sleb128 1
 2804 001d 3B        		.uleb128 0x3b
 2805 001e 0B        		.uleb128 0xb
 2806 001f 39        		.uleb128 0x39
 2807 0020 0B        		.uleb128 0xb
 2808 0021 49        		.uleb128 0x49
 2809 0022 13        		.uleb128 0x13
 2810 0023 00        		.byte	0
 2811 0024 00        		.byte	0
 2812 0025 03        		.uleb128 0x3
 2813 0026 0B        		.uleb128 0xb
 2814 0027 01        		.byte	0x1
 2815 0028 11        		.uleb128 0x11
 2816 0029 01        		.uleb128 0x1
 2817 002a 12        		.uleb128 0x12
 2818 002b 06        		.uleb128 0x6
 2819 002c 01        		.uleb128 0x1
 2820 002d 13        		.uleb128 0x13
 2821 002e 00        		.byte	0
 2822 002f 00        		.byte	0
 2823 0030 04        		.uleb128 0x4
GAS LISTING /tmp/cchFZ4o5.s 			page 56


 2824 0031 34        		.uleb128 0x34
 2825 0032 00        		.byte	0
 2826 0033 03        		.uleb128 0x3
 2827 0034 08        		.uleb128 0x8
 2828 0035 3A        		.uleb128 0x3a
 2829 0036 21        		.uleb128 0x21
 2830 0037 01        		.sleb128 1
 2831 0038 3B        		.uleb128 0x3b
 2832 0039 0B        		.uleb128 0xb
 2833 003a 39        		.uleb128 0x39
 2834 003b 0B        		.uleb128 0xb
 2835 003c 49        		.uleb128 0x49
 2836 003d 13        		.uleb128 0x13
 2837 003e 02        		.uleb128 0x2
 2838 003f 17        		.uleb128 0x17
 2839 0040 B742      		.uleb128 0x2137
 2840 0042 17        		.uleb128 0x17
 2841 0043 00        		.byte	0
 2842 0044 00        		.byte	0
 2843 0045 05        		.uleb128 0x5
 2844 0046 24        		.uleb128 0x24
 2845 0047 00        		.byte	0
 2846 0048 0B        		.uleb128 0xb
 2847 0049 0B        		.uleb128 0xb
 2848 004a 3E        		.uleb128 0x3e
 2849 004b 0B        		.uleb128 0xb
 2850 004c 03        		.uleb128 0x3
 2851 004d 0E        		.uleb128 0xe
 2852 004e 00        		.byte	0
 2853 004f 00        		.byte	0
 2854 0050 06        		.uleb128 0x6
 2855 0051 0D        		.uleb128 0xd
 2856 0052 00        		.byte	0
 2857 0053 03        		.uleb128 0x3
 2858 0054 0E        		.uleb128 0xe
 2859 0055 3A        		.uleb128 0x3a
 2860 0056 21        		.uleb128 0x21
 2861 0057 05        		.sleb128 5
 2862 0058 3B        		.uleb128 0x3b
 2863 0059 0B        		.uleb128 0xb
 2864 005a 39        		.uleb128 0x39
 2865 005b 0B        		.uleb128 0xb
 2866 005c 49        		.uleb128 0x49
 2867 005d 13        		.uleb128 0x13
 2868 005e 38        		.uleb128 0x38
 2869 005f 0B        		.uleb128 0xb
 2870 0060 00        		.byte	0
 2871 0061 00        		.byte	0
 2872 0062 07        		.uleb128 0x7
 2873 0063 05        		.uleb128 0x5
 2874 0064 00        		.byte	0
 2875 0065 03        		.uleb128 0x3
 2876 0066 08        		.uleb128 0x8
 2877 0067 3A        		.uleb128 0x3a
 2878 0068 21        		.uleb128 0x21
 2879 0069 01        		.sleb128 1
 2880 006a 3B        		.uleb128 0x3b
GAS LISTING /tmp/cchFZ4o5.s 			page 57


 2881 006b 0B        		.uleb128 0xb
 2882 006c 39        		.uleb128 0x39
 2883 006d 0B        		.uleb128 0xb
 2884 006e 49        		.uleb128 0x49
 2885 006f 13        		.uleb128 0x13
 2886 0070 02        		.uleb128 0x2
 2887 0071 17        		.uleb128 0x17
 2888 0072 B742      		.uleb128 0x2137
 2889 0074 17        		.uleb128 0x17
 2890 0075 00        		.byte	0
 2891 0076 00        		.byte	0
 2892 0077 08        		.uleb128 0x8
 2893 0078 26        		.uleb128 0x26
 2894 0079 00        		.byte	0
 2895 007a 49        		.uleb128 0x49
 2896 007b 13        		.uleb128 0x13
 2897 007c 00        		.byte	0
 2898 007d 00        		.byte	0
 2899 007e 09        		.uleb128 0x9
 2900 007f 2E        		.uleb128 0x2e
 2901 0080 01        		.byte	0x1
 2902 0081 3F        		.uleb128 0x3f
 2903 0082 19        		.uleb128 0x19
 2904 0083 03        		.uleb128 0x3
 2905 0084 0E        		.uleb128 0xe
 2906 0085 3A        		.uleb128 0x3a
 2907 0086 21        		.uleb128 0x21
 2908 0087 01        		.sleb128 1
 2909 0088 3B        		.uleb128 0x3b
 2910 0089 0B        		.uleb128 0xb
 2911 008a 39        		.uleb128 0x39
 2912 008b 21        		.uleb128 0x21
 2913 008c 06        		.sleb128 6
 2914 008d 27        		.uleb128 0x27
 2915 008e 19        		.uleb128 0x19
 2916 008f 11        		.uleb128 0x11
 2917 0090 01        		.uleb128 0x1
 2918 0091 12        		.uleb128 0x12
 2919 0092 06        		.uleb128 0x6
 2920 0093 40        		.uleb128 0x40
 2921 0094 18        		.uleb128 0x18
 2922 0095 7A        		.uleb128 0x7a
 2923 0096 19        		.uleb128 0x19
 2924 0097 01        		.uleb128 0x1
 2925 0098 13        		.uleb128 0x13
 2926 0099 00        		.byte	0
 2927 009a 00        		.byte	0
 2928 009b 0A        		.uleb128 0xa
 2929 009c 16        		.uleb128 0x16
 2930 009d 00        		.byte	0
 2931 009e 03        		.uleb128 0x3
 2932 009f 0E        		.uleb128 0xe
 2933 00a0 3A        		.uleb128 0x3a
 2934 00a1 0B        		.uleb128 0xb
 2935 00a2 3B        		.uleb128 0x3b
 2936 00a3 0B        		.uleb128 0xb
 2937 00a4 39        		.uleb128 0x39
GAS LISTING /tmp/cchFZ4o5.s 			page 58


 2938 00a5 0B        		.uleb128 0xb
 2939 00a6 49        		.uleb128 0x49
 2940 00a7 13        		.uleb128 0x13
 2941 00a8 00        		.byte	0
 2942 00a9 00        		.byte	0
 2943 00aa 0B        		.uleb128 0xb
 2944 00ab 34        		.uleb128 0x34
 2945 00ac 00        		.byte	0
 2946 00ad 03        		.uleb128 0x3
 2947 00ae 0E        		.uleb128 0xe
 2948 00af 3A        		.uleb128 0x3a
 2949 00b0 0B        		.uleb128 0xb
 2950 00b1 3B        		.uleb128 0x3b
 2951 00b2 0B        		.uleb128 0xb
 2952 00b3 39        		.uleb128 0x39
 2953 00b4 0B        		.uleb128 0xb
 2954 00b5 49        		.uleb128 0x49
 2955 00b6 13        		.uleb128 0x13
 2956 00b7 3F        		.uleb128 0x3f
 2957 00b8 19        		.uleb128 0x19
 2958 00b9 3C        		.uleb128 0x3c
 2959 00ba 19        		.uleb128 0x19
 2960 00bb 00        		.byte	0
 2961 00bc 00        		.byte	0
 2962 00bd 0C        		.uleb128 0xc
 2963 00be 28        		.uleb128 0x28
 2964 00bf 00        		.byte	0
 2965 00c0 03        		.uleb128 0x3
 2966 00c1 0E        		.uleb128 0xe
 2967 00c2 1C        		.uleb128 0x1c
 2968 00c3 0B        		.uleb128 0xb
 2969 00c4 00        		.byte	0
 2970 00c5 00        		.byte	0
 2971 00c6 0D        		.uleb128 0xd
 2972 00c7 0D        		.uleb128 0xd
 2973 00c8 00        		.byte	0
 2974 00c9 03        		.uleb128 0x3
 2975 00ca 08        		.uleb128 0x8
 2976 00cb 3A        		.uleb128 0x3a
 2977 00cc 21        		.uleb128 0x21
 2978 00cd 05        		.sleb128 5
 2979 00ce 3B        		.uleb128 0x3b
 2980 00cf 0B        		.uleb128 0xb
 2981 00d0 39        		.uleb128 0x39
 2982 00d1 0B        		.uleb128 0xb
 2983 00d2 49        		.uleb128 0x49
 2984 00d3 13        		.uleb128 0x13
 2985 00d4 38        		.uleb128 0x38
 2986 00d5 0B        		.uleb128 0xb
 2987 00d6 00        		.byte	0
 2988 00d7 00        		.byte	0
 2989 00d8 0E        		.uleb128 0xe
 2990 00d9 0F        		.uleb128 0xf
 2991 00da 00        		.byte	0
 2992 00db 0B        		.uleb128 0xb
 2993 00dc 21        		.uleb128 0x21
 2994 00dd 02        		.sleb128 2
GAS LISTING /tmp/cchFZ4o5.s 			page 59


 2995 00de 49        		.uleb128 0x49
 2996 00df 13        		.uleb128 0x13
 2997 00e0 00        		.byte	0
 2998 00e1 00        		.byte	0
 2999 00e2 0F        		.uleb128 0xf
 3000 00e3 01        		.uleb128 0x1
 3001 00e4 01        		.byte	0x1
 3002 00e5 49        		.uleb128 0x49
 3003 00e6 13        		.uleb128 0x13
 3004 00e7 01        		.uleb128 0x1
 3005 00e8 13        		.uleb128 0x13
 3006 00e9 00        		.byte	0
 3007 00ea 00        		.byte	0
 3008 00eb 10        		.uleb128 0x10
 3009 00ec 21        		.uleb128 0x21
 3010 00ed 00        		.byte	0
 3011 00ee 00        		.byte	0
 3012 00ef 00        		.byte	0
 3013 00f0 11        		.uleb128 0x11
 3014 00f1 13        		.uleb128 0x13
 3015 00f2 01        		.byte	0x1
 3016 00f3 0B        		.uleb128 0xb
 3017 00f4 0B        		.uleb128 0xb
 3018 00f5 3A        		.uleb128 0x3a
 3019 00f6 21        		.uleb128 0x21
 3020 00f7 05        		.sleb128 5
 3021 00f8 3B        		.uleb128 0x3b
 3022 00f9 0B        		.uleb128 0xb
 3023 00fa 39        		.uleb128 0x39
 3024 00fb 21        		.uleb128 0x21
 3025 00fc 09        		.sleb128 9
 3026 00fd 01        		.uleb128 0x1
 3027 00fe 13        		.uleb128 0x13
 3028 00ff 00        		.byte	0
 3029 0100 00        		.byte	0
 3030 0101 12        		.uleb128 0x12
 3031 0102 0B        		.uleb128 0xb
 3032 0103 01        		.byte	0x1
 3033 0104 11        		.uleb128 0x11
 3034 0105 01        		.uleb128 0x1
 3035 0106 12        		.uleb128 0x12
 3036 0107 06        		.uleb128 0x6
 3037 0108 00        		.byte	0
 3038 0109 00        		.byte	0
 3039 010a 13        		.uleb128 0x13
 3040 010b 2E        		.uleb128 0x2e
 3041 010c 01        		.byte	0x1
 3042 010d 3F        		.uleb128 0x3f
 3043 010e 19        		.uleb128 0x19
 3044 010f 03        		.uleb128 0x3
 3045 0110 0E        		.uleb128 0xe
 3046 0111 3A        		.uleb128 0x3a
 3047 0112 21        		.uleb128 0x21
 3048 0113 01        		.sleb128 1
 3049 0114 3B        		.uleb128 0x3b
 3050 0115 0B        		.uleb128 0xb
 3051 0116 39        		.uleb128 0x39
GAS LISTING /tmp/cchFZ4o5.s 			page 60


 3052 0117 21        		.uleb128 0x21
 3053 0118 06        		.sleb128 6
 3054 0119 11        		.uleb128 0x11
 3055 011a 01        		.uleb128 0x1
 3056 011b 12        		.uleb128 0x12
 3057 011c 06        		.uleb128 0x6
 3058 011d 40        		.uleb128 0x40
 3059 011e 18        		.uleb128 0x18
 3060 011f 7A        		.uleb128 0x7a
 3061 0120 19        		.uleb128 0x19
 3062 0121 01        		.uleb128 0x1
 3063 0122 13        		.uleb128 0x13
 3064 0123 00        		.byte	0
 3065 0124 00        		.byte	0
 3066 0125 14        		.uleb128 0x14
 3067 0126 11        		.uleb128 0x11
 3068 0127 01        		.byte	0x1
 3069 0128 25        		.uleb128 0x25
 3070 0129 0E        		.uleb128 0xe
 3071 012a 13        		.uleb128 0x13
 3072 012b 0B        		.uleb128 0xb
 3073 012c 03        		.uleb128 0x3
 3074 012d 1F        		.uleb128 0x1f
 3075 012e 1B        		.uleb128 0x1b
 3076 012f 1F        		.uleb128 0x1f
 3077 0130 11        		.uleb128 0x11
 3078 0131 01        		.uleb128 0x1
 3079 0132 12        		.uleb128 0x12
 3080 0133 06        		.uleb128 0x6
 3081 0134 10        		.uleb128 0x10
 3082 0135 17        		.uleb128 0x17
 3083 0136 00        		.byte	0
 3084 0137 00        		.byte	0
 3085 0138 15        		.uleb128 0x15
 3086 0139 24        		.uleb128 0x24
 3087 013a 00        		.byte	0
 3088 013b 0B        		.uleb128 0xb
 3089 013c 0B        		.uleb128 0xb
 3090 013d 3E        		.uleb128 0x3e
 3091 013e 0B        		.uleb128 0xb
 3092 013f 03        		.uleb128 0x3
 3093 0140 08        		.uleb128 0x8
 3094 0141 00        		.byte	0
 3095 0142 00        		.byte	0
 3096 0143 16        		.uleb128 0x16
 3097 0144 04        		.uleb128 0x4
 3098 0145 01        		.byte	0x1
 3099 0146 3E        		.uleb128 0x3e
 3100 0147 0B        		.uleb128 0xb
 3101 0148 0B        		.uleb128 0xb
 3102 0149 0B        		.uleb128 0xb
 3103 014a 49        		.uleb128 0x49
 3104 014b 13        		.uleb128 0x13
 3105 014c 3A        		.uleb128 0x3a
 3106 014d 0B        		.uleb128 0xb
 3107 014e 3B        		.uleb128 0x3b
 3108 014f 0B        		.uleb128 0xb
GAS LISTING /tmp/cchFZ4o5.s 			page 61


 3109 0150 39        		.uleb128 0x39
 3110 0151 0B        		.uleb128 0xb
 3111 0152 01        		.uleb128 0x1
 3112 0153 13        		.uleb128 0x13
 3113 0154 00        		.byte	0
 3114 0155 00        		.byte	0
 3115 0156 17        		.uleb128 0x17
 3116 0157 16        		.uleb128 0x16
 3117 0158 00        		.byte	0
 3118 0159 03        		.uleb128 0x3
 3119 015a 08        		.uleb128 0x8
 3120 015b 3A        		.uleb128 0x3a
 3121 015c 0B        		.uleb128 0xb
 3122 015d 3B        		.uleb128 0x3b
 3123 015e 0B        		.uleb128 0xb
 3124 015f 39        		.uleb128 0x39
 3125 0160 0B        		.uleb128 0xb
 3126 0161 49        		.uleb128 0x49
 3127 0162 13        		.uleb128 0x13
 3128 0163 00        		.byte	0
 3129 0164 00        		.byte	0
 3130 0165 18        		.uleb128 0x18
 3131 0166 34        		.uleb128 0x34
 3132 0167 00        		.byte	0
 3133 0168 47        		.uleb128 0x47
 3134 0169 13        		.uleb128 0x13
 3135 016a 3A        		.uleb128 0x3a
 3136 016b 0B        		.uleb128 0xb
 3137 016c 3B        		.uleb128 0x3b
 3138 016d 0B        		.uleb128 0xb
 3139 016e 39        		.uleb128 0x39
 3140 016f 0B        		.uleb128 0xb
 3141 0170 02        		.uleb128 0x2
 3142 0171 18        		.uleb128 0x18
 3143 0172 00        		.byte	0
 3144 0173 00        		.byte	0
 3145 0174 19        		.uleb128 0x19
 3146 0175 2E        		.uleb128 0x2e
 3147 0176 01        		.byte	0x1
 3148 0177 3F        		.uleb128 0x3f
 3149 0178 19        		.uleb128 0x19
 3150 0179 03        		.uleb128 0x3
 3151 017a 0E        		.uleb128 0xe
 3152 017b 3A        		.uleb128 0x3a
 3153 017c 0B        		.uleb128 0xb
 3154 017d 3B        		.uleb128 0x3b
 3155 017e 0B        		.uleb128 0xb
 3156 017f 39        		.uleb128 0x39
 3157 0180 0B        		.uleb128 0xb
 3158 0181 3C        		.uleb128 0x3c
 3159 0182 19        		.uleb128 0x19
 3160 0183 01        		.uleb128 0x1
 3161 0184 13        		.uleb128 0x13
 3162 0185 00        		.byte	0
 3163 0186 00        		.byte	0
 3164 0187 1A        		.uleb128 0x1a
 3165 0188 18        		.uleb128 0x18
GAS LISTING /tmp/cchFZ4o5.s 			page 62


 3166 0189 00        		.byte	0
 3167 018a 00        		.byte	0
 3168 018b 00        		.byte	0
 3169 018c 1B        		.uleb128 0x1b
 3170 018d 48        		.uleb128 0x48
 3171 018e 00        		.byte	0
 3172 018f 7D        		.uleb128 0x7d
 3173 0190 01        		.uleb128 0x1
 3174 0191 7F        		.uleb128 0x7f
 3175 0192 13        		.uleb128 0x13
 3176 0193 00        		.byte	0
 3177 0194 00        		.byte	0
 3178 0195 1C        		.uleb128 0x1c
 3179 0196 34        		.uleb128 0x34
 3180 0197 00        		.byte	0
 3181 0198 03        		.uleb128 0x3
 3182 0199 08        		.uleb128 0x8
 3183 019a 3A        		.uleb128 0x3a
 3184 019b 0B        		.uleb128 0xb
 3185 019c 3B        		.uleb128 0x3b
 3186 019d 0B        		.uleb128 0xb
 3187 019e 39        		.uleb128 0x39
 3188 019f 0B        		.uleb128 0xb
 3189 01a0 49        		.uleb128 0x49
 3190 01a1 13        		.uleb128 0x13
 3191 01a2 02        		.uleb128 0x2
 3192 01a3 18        		.uleb128 0x18
 3193 01a4 00        		.byte	0
 3194 01a5 00        		.byte	0
 3195 01a6 1D        		.uleb128 0x1d
 3196 01a7 48        		.uleb128 0x48
 3197 01a8 01        		.byte	0x1
 3198 01a9 7D        		.uleb128 0x7d
 3199 01aa 01        		.uleb128 0x1
 3200 01ab 7F        		.uleb128 0x7f
 3201 01ac 13        		.uleb128 0x13
 3202 01ad 00        		.byte	0
 3203 01ae 00        		.byte	0
 3204 01af 1E        		.uleb128 0x1e
 3205 01b0 49        		.uleb128 0x49
 3206 01b1 00        		.byte	0
 3207 01b2 02        		.uleb128 0x2
 3208 01b3 18        		.uleb128 0x18
 3209 01b4 7E        		.uleb128 0x7e
 3210 01b5 18        		.uleb128 0x18
 3211 01b6 00        		.byte	0
 3212 01b7 00        		.byte	0
 3213 01b8 1F        		.uleb128 0x1f
 3214 01b9 2E        		.uleb128 0x2e
 3215 01ba 01        		.byte	0x1
 3216 01bb 3F        		.uleb128 0x3f
 3217 01bc 19        		.uleb128 0x19
 3218 01bd 03        		.uleb128 0x3
 3219 01be 0E        		.uleb128 0xe
 3220 01bf 3A        		.uleb128 0x3a
 3221 01c0 0B        		.uleb128 0xb
 3222 01c1 3B        		.uleb128 0x3b
GAS LISTING /tmp/cchFZ4o5.s 			page 63


 3223 01c2 0B        		.uleb128 0xb
 3224 01c3 39        		.uleb128 0x39
 3225 01c4 0B        		.uleb128 0xb
 3226 01c5 11        		.uleb128 0x11
 3227 01c6 01        		.uleb128 0x1
 3228 01c7 12        		.uleb128 0x12
 3229 01c8 06        		.uleb128 0x6
 3230 01c9 40        		.uleb128 0x40
 3231 01ca 18        		.uleb128 0x18
 3232 01cb 7A        		.uleb128 0x7a
 3233 01cc 19        		.uleb128 0x19
 3234 01cd 00        		.byte	0
 3235 01ce 00        		.byte	0
 3236 01cf 20        		.uleb128 0x20
 3237 01d0 48        		.uleb128 0x48
 3238 01d1 00        		.byte	0
 3239 01d2 7D        		.uleb128 0x7d
 3240 01d3 01        		.uleb128 0x1
 3241 01d4 8201      		.uleb128 0x82
 3242 01d6 19        		.uleb128 0x19
 3243 01d7 7F        		.uleb128 0x7f
 3244 01d8 13        		.uleb128 0x13
 3245 01d9 00        		.byte	0
 3246 01da 00        		.byte	0
 3247 01db 00        		.byte	0
 3248               		.section	.debug_loclists,"",@progbits
 3249 0000 E304 0000 		.long	.Ldebug_loc3-.Ldebug_loc2
 3250               	.Ldebug_loc2:
 3251 0004 0500      		.word	0x5
 3252 0006 04        		.byte	0x4
 3253 0007 00        		.byte	0
 3254 0008 0000 0000 		.long	0
 3255               	.Ldebug_loc0:
 3256               	.LVUS38:
 3257 000c 00        		.uleb128 0
 3258 000d 00        		.uleb128 .LVU712
 3259 000e 00        		.uleb128 .LVU712
 3260 000f 00        		.uleb128 .LVU716
 3261 0010 00        		.uleb128 .LVU716
 3262 0011 00        		.uleb128 .LVU718
 3263 0012 00        		.uleb128 .LVU718
 3264 0013 00        		.uleb128 0
 3265               	.LLST38:
 3266 0014 04        		.byte	0x4
 3267 0015 960D      		.uleb128 .LVL92-.Ltext0
 3268 0017 A00D      		.uleb128 .LVL94-.Ltext0
 3269 0019 06        		.uleb128 0x6
 3270 001a 68        		.byte	0x68
 3271 001b 93        		.byte	0x93
 3272 001c 01        		.uleb128 0x1
 3273 001d 69        		.byte	0x69
 3274 001e 93        		.byte	0x93
 3275 001f 01        		.uleb128 0x1
 3276 0020 04        		.byte	0x4
 3277 0021 A00D      		.uleb128 .LVL94-.Ltext0
 3278 0023 B00D      		.uleb128 .LVL95-.Ltext0
 3279 0025 06        		.uleb128 0x6
GAS LISTING /tmp/cchFZ4o5.s 			page 64


 3280 0026 6C        		.byte	0x6c
 3281 0027 93        		.byte	0x93
 3282 0028 01        		.uleb128 0x1
 3283 0029 6D        		.byte	0x6d
 3284 002a 93        		.byte	0x93
 3285 002b 01        		.uleb128 0x1
 3286 002c 04        		.byte	0x4
 3287 002d B00D      		.uleb128 .LVL95-.Ltext0
 3288 002f B40D      		.uleb128 .LVL97-.Ltext0
 3289 0031 04        		.uleb128 0x4
 3290 0032 A3        		.byte	0xa3
 3291 0033 01        		.uleb128 0x1
 3292 0034 68        		.byte	0x68
 3293 0035 9F        		.byte	0x9f
 3294 0036 04        		.byte	0x4
 3295 0037 B40D      		.uleb128 .LVL97-.Ltext0
 3296 0039 BC0D      		.uleb128 .LFE8-.Ltext0
 3297 003b 06        		.uleb128 0x6
 3298 003c 6C        		.byte	0x6c
 3299 003d 93        		.byte	0x93
 3300 003e 01        		.uleb128 0x1
 3301 003f 6D        		.byte	0x6d
 3302 0040 93        		.byte	0x93
 3303 0041 01        		.uleb128 0x1
 3304 0042 00        		.byte	0
 3305               	.LVUS39:
 3306 0043 02        		.uleb128 .LVU711
 3307 0044 00        		.uleb128 .LVU712
 3308 0045 00        		.uleb128 .LVU712
 3309 0046 00        		.uleb128 .LVU717
 3310 0047 00        		.uleb128 .LVU718
 3311 0048 00        		.uleb128 0
 3312               	.LLST39:
 3313 0049 04        		.byte	0x4
 3314 004a 9E0D      		.uleb128 .LVL93-.Ltext0
 3315 004c A00D      		.uleb128 .LVL94-.Ltext0
 3316 004e 02        		.uleb128 0x2
 3317 004f 30        		.byte	0x30
 3318 0050 9F        		.byte	0x9f
 3319 0051 04        		.byte	0x4
 3320 0052 A00D      		.uleb128 .LVL94-.Ltext0
 3321 0054 B20D      		.uleb128 .LVL96-.Ltext0
 3322 0056 01        		.uleb128 0x1
 3323 0057 61        		.byte	0x61
 3324 0058 04        		.byte	0x4
 3325 0059 B40D      		.uleb128 .LVL97-.Ltext0
 3326 005b BC0D      		.uleb128 .LFE8-.Ltext0
 3327 005d 01        		.uleb128 0x1
 3328 005e 61        		.byte	0x61
 3329 005f 00        		.byte	0
 3330               	.LVUS27:
 3331 0060 00        		.uleb128 0
 3332 0061 00        		.uleb128 .LVU584
 3333 0062 00        		.uleb128 .LVU584
 3334 0063 00        		.uleb128 0
 3335               	.LLST27:
 3336 0064 04        		.byte	0x4
GAS LISTING /tmp/cchFZ4o5.s 			page 65


 3337 0065 8E0A      		.uleb128 .LVL67-.Ltext0
 3338 0067 F20A      		.uleb128 .LVL73-.Ltext0
 3339 0069 01        		.uleb128 0x1
 3340 006a 68        		.byte	0x68
 3341 006b 04        		.byte	0x4
 3342 006c F20A      		.uleb128 .LVL73-.Ltext0
 3343 006e 960D      		.uleb128 .LFE7-.Ltext0
 3344 0070 04        		.uleb128 0x4
 3345 0071 A3        		.byte	0xa3
 3346 0072 01        		.uleb128 0x1
 3347 0073 68        		.byte	0x68
 3348 0074 9F        		.byte	0x9f
 3349 0075 00        		.byte	0
 3350               	.LVUS28:
 3351 0076 03        		.uleb128 .LVU583
 3352 0077 00        		.uleb128 .LVU629
 3353 0078 00        		.uleb128 .LVU636
 3354 0079 00        		.uleb128 0
 3355               	.LLST28:
 3356 007a 04        		.byte	0x4
 3357 007b EE0A      		.uleb128 .LVL72-.Ltext0
 3358 007d DE0B      		.uleb128 .LVL78-.Ltext0
 3359 007f 06        		.uleb128 0x6
 3360 0080 62        		.byte	0x62
 3361 0081 93        		.byte	0x93
 3362 0082 01        		.uleb128 0x1
 3363 0083 63        		.byte	0x63
 3364 0084 93        		.byte	0x93
 3365 0085 01        		.uleb128 0x1
 3366 0086 04        		.byte	0x4
 3367 0087 8C0C      		.uleb128 .LVL81-.Ltext0
 3368 0089 960D      		.uleb128 .LFE7-.Ltext0
 3369 008b 06        		.uleb128 0x6
 3370 008c 62        		.byte	0x62
 3371 008d 93        		.byte	0x93
 3372 008e 01        		.uleb128 0x1
 3373 008f 63        		.byte	0x63
 3374 0090 93        		.byte	0x93
 3375 0091 01        		.uleb128 0x1
 3376 0092 00        		.byte	0
 3377               	.LVUS29:
 3378 0093 02        		.uleb128 .LVU622
 3379 0094 00        		.uleb128 .LVU635
 3380 0095 03        		.uleb128 .LVU673
 3381 0096 00        		.uleb128 .LVU675
 3382 0097 00        		.uleb128 .LVU675
 3383 0098 00        		.uleb128 .LVU697
 3384 0099 00        		.uleb128 .LVU697
 3385 009a 00        		.uleb128 0
 3386               	.LLST29:
 3387 009b 04        		.byte	0x4
 3388 009c C20B      		.uleb128 .LVL75-.Ltext0
 3389 009e F60B      		.uleb128 .LVL80-.Ltext0
 3390 00a0 06        		.uleb128 0x6
 3391 00a1 64        		.byte	0x64
 3392 00a2 93        		.byte	0x93
 3393 00a3 01        		.uleb128 0x1
GAS LISTING /tmp/cchFZ4o5.s 			page 66


 3394 00a4 65        		.byte	0x65
 3395 00a5 93        		.byte	0x93
 3396 00a6 01        		.uleb128 0x1
 3397 00a7 04        		.byte	0x4
 3398 00a8 B80C      		.uleb128 .LVL83-.Ltext0
 3399 00aa BE0C      		.uleb128 .LVL84-.Ltext0
 3400 00ac 06        		.uleb128 0x6
 3401 00ad 64        		.byte	0x64
 3402 00ae 93        		.byte	0x93
 3403 00af 01        		.uleb128 0x1
 3404 00b0 65        		.byte	0x65
 3405 00b1 93        		.byte	0x93
 3406 00b2 01        		.uleb128 0x1
 3407 00b3 04        		.byte	0x4
 3408 00b4 BE0C      		.uleb128 .LVL84-.Ltext0
 3409 00b6 FC0C      		.uleb128 .LVL90-.Ltext0
 3410 00b8 06        		.uleb128 0x6
 3411 00b9 68        		.byte	0x68
 3412 00ba 93        		.byte	0x93
 3413 00bb 01        		.uleb128 0x1
 3414 00bc 69        		.byte	0x69
 3415 00bd 93        		.byte	0x93
 3416 00be 01        		.uleb128 0x1
 3417 00bf 04        		.byte	0x4
 3418 00c0 FC0C      		.uleb128 .LVL90-.Ltext0
 3419 00c2 960D      		.uleb128 .LFE7-.Ltext0
 3420 00c4 06        		.uleb128 0x6
 3421 00c5 64        		.byte	0x64
 3422 00c6 93        		.byte	0x93
 3423 00c7 01        		.uleb128 0x1
 3424 00c8 65        		.byte	0x65
 3425 00c9 93        		.byte	0x93
 3426 00ca 01        		.uleb128 0x1
 3427 00cb 00        		.byte	0
 3428               	.LVUS30:
 3429 00cc 01        		.uleb128 .LVU671
 3430 00cd 00        		.uleb128 .LVU697
 3431               	.LLST30:
 3432 00ce 04        		.byte	0x4
 3433 00cf B80C      		.uleb128 .LVL83-.Ltext0
 3434 00d1 FC0C      		.uleb128 .LVL90-.Ltext0
 3435 00d3 01        		.uleb128 0x1
 3436 00d4 5A        		.byte	0x5a
 3437 00d5 00        		.byte	0
 3438               	.LVUS31:
 3439 00d6 03        		.uleb128 .LVU673
 3440 00d7 00        		.uleb128 .LVU675
 3441 00d8 00        		.uleb128 .LVU675
 3442 00d9 00        		.uleb128 .LVU697
 3443               	.LLST31:
 3444 00da 04        		.byte	0x4
 3445 00db B80C      		.uleb128 .LVL83-.Ltext0
 3446 00dd BE0C      		.uleb128 .LVL84-.Ltext0
 3447 00df 02        		.uleb128 0x2
 3448 00e0 31        		.byte	0x31
 3449 00e1 9F        		.byte	0x9f
 3450 00e2 04        		.byte	0x4
GAS LISTING /tmp/cchFZ4o5.s 			page 67


 3451 00e3 BE0C      		.uleb128 .LVL84-.Ltext0
 3452 00e5 FC0C      		.uleb128 .LVL90-.Ltext0
 3453 00e7 01        		.uleb128 0x1
 3454 00e8 5F        		.byte	0x5f
 3455 00e9 00        		.byte	0
 3456               	.LVUS32:
 3457 00ea 00        		.uleb128 .LVU551
 3458 00eb 00        		.uleb128 .LVU588
 3459 00ec 00        		.uleb128 .LVU588
 3460 00ed 00        		.uleb128 .LVU626
 3461 00ee 00        		.uleb128 .LVU626
 3462 00ef 00        		.uleb128 .LVU627
 3463 00f0 00        		.uleb128 .LVU627
 3464 00f1 00        		.uleb128 .LVU635
 3465 00f2 00        		.uleb128 .LVU636
 3466 00f3 00        		.uleb128 0
 3467               	.LLST32:
 3468 00f4 04        		.byte	0x4
 3469 00f5 AA0A      		.uleb128 .LVL68-.Ltext0
 3470 00f7 8C0B      		.uleb128 .LVL74-.Ltext0
 3471 00f9 06        		.uleb128 0x6
 3472 00fa 62        		.byte	0x62
 3473 00fb 93        		.byte	0x93
 3474 00fc 01        		.uleb128 0x1
 3475 00fd 63        		.byte	0x63
 3476 00fe 93        		.byte	0x93
 3477 00ff 01        		.uleb128 0x1
 3478 0100 04        		.byte	0x4
 3479 0101 8C0B      		.uleb128 .LVL74-.Ltext0
 3480 0103 CE0B      		.uleb128 .LVL76-.Ltext0
 3481 0105 06        		.uleb128 0x6
 3482 0106 66        		.byte	0x66
 3483 0107 93        		.byte	0x93
 3484 0108 01        		.uleb128 0x1
 3485 0109 67        		.byte	0x67
 3486 010a 93        		.byte	0x93
 3487 010b 01        		.uleb128 0x1
 3488 010c 04        		.byte	0x4
 3489 010d CE0B      		.uleb128 .LVL76-.Ltext0
 3490 010f D60B      		.uleb128 .LVL77-.Ltext0
 3491 0111 05        		.uleb128 0x5
 3492 0112 03        		.byte	0x3
 3493 0113 0000 0000 		.long	display+6
 3494 0117 04        		.byte	0x4
 3495 0118 D60B      		.uleb128 .LVL77-.Ltext0
 3496 011a F60B      		.uleb128 .LVL80-.Ltext0
 3497 011c 03        		.uleb128 0x3
 3498 011d 86        		.byte	0x86
 3499 011e 7A        		.sleb128 -6
 3500 011f 9F        		.byte	0x9f
 3501 0120 04        		.byte	0x4
 3502 0121 8C0C      		.uleb128 .LVL81-.Ltext0
 3503 0123 960D      		.uleb128 .LFE7-.Ltext0
 3504 0125 06        		.uleb128 0x6
 3505 0126 66        		.byte	0x66
 3506 0127 93        		.byte	0x93
 3507 0128 01        		.uleb128 0x1
GAS LISTING /tmp/cchFZ4o5.s 			page 68


 3508 0129 67        		.byte	0x67
 3509 012a 93        		.byte	0x93
 3510 012b 01        		.uleb128 0x1
 3511 012c 00        		.byte	0
 3512               	.LVUS33:
 3513 012d 00        		.uleb128 .LVU551
 3514 012e 00        		.uleb128 .LVU556
 3515 012f 00        		.uleb128 .LVU556
 3516 0130 00        		.uleb128 .LVU635
 3517 0131 00        		.uleb128 .LVU636
 3518 0132 00        		.uleb128 0
 3519               	.LLST33:
 3520 0133 04        		.byte	0x4
 3521 0134 AA0A      		.uleb128 .LVL68-.Ltext0
 3522 0136 C60A      		.uleb128 .LVL70-.Ltext0
 3523 0138 03        		.uleb128 0x3
 3524 0139 82        		.byte	0x82
 3525 013a 04        		.sleb128 4
 3526 013b 9F        		.byte	0x9f
 3527 013c 04        		.byte	0x4
 3528 013d C60A      		.uleb128 .LVL70-.Ltext0
 3529 013f F60B      		.uleb128 .LVL80-.Ltext0
 3530 0141 06        		.uleb128 0x6
 3531 0142 60        		.byte	0x60
 3532 0143 93        		.byte	0x93
 3533 0144 01        		.uleb128 0x1
 3534 0145 61        		.byte	0x61
 3535 0146 93        		.byte	0x93
 3536 0147 01        		.uleb128 0x1
 3537 0148 04        		.byte	0x4
 3538 0149 8C0C      		.uleb128 .LVL81-.Ltext0
 3539 014b 960D      		.uleb128 .LFE7-.Ltext0
 3540 014d 06        		.uleb128 0x6
 3541 014e 60        		.byte	0x60
 3542 014f 93        		.byte	0x93
 3543 0150 01        		.uleb128 0x1
 3544 0151 61        		.byte	0x61
 3545 0152 93        		.byte	0x93
 3546 0153 01        		.uleb128 0x1
 3547 0154 00        		.byte	0
 3548               	.LVUS34:
 3549 0155 00        		.uleb128 .LVU552
 3550 0156 02        		.uleb128 .LVU622
 3551 0157 02        		.uleb128 .LVU622
 3552 0158 00        		.uleb128 .LVU634
 3553 0159 00        		.uleb128 .LVU634
 3554 015a 00        		.uleb128 .LVU635
 3555 015b 00        		.uleb128 .LVU636
 3556 015c 00        		.uleb128 .LVU697
 3557 015d 00        		.uleb128 .LVU697
 3558 015e 00        		.uleb128 0
 3559               	.LLST34:
 3560 015f 04        		.byte	0x4
 3561 0160 B20A      		.uleb128 .LVL69-.Ltext0
 3562 0162 C20B      		.uleb128 .LVL75-.Ltext0
 3563 0164 06        		.uleb128 0x6
 3564 0165 64        		.byte	0x64
GAS LISTING /tmp/cchFZ4o5.s 			page 69


 3565 0166 93        		.byte	0x93
 3566 0167 01        		.uleb128 0x1
 3567 0168 65        		.byte	0x65
 3568 0169 93        		.byte	0x93
 3569 016a 01        		.uleb128 0x1
 3570 016b 04        		.byte	0x4
 3571 016c C20B      		.uleb128 .LVL75-.Ltext0
 3572 016e EE0B      		.uleb128 .LVL79-.Ltext0
 3573 0170 06        		.uleb128 0x6
 3574 0171 6C        		.byte	0x6c
 3575 0172 93        		.byte	0x93
 3576 0173 01        		.uleb128 0x1
 3577 0174 6D        		.byte	0x6d
 3578 0175 93        		.byte	0x93
 3579 0176 01        		.uleb128 0x1
 3580 0177 04        		.byte	0x4
 3581 0178 EE0B      		.uleb128 .LVL79-.Ltext0
 3582 017a F60B      		.uleb128 .LVL80-.Ltext0
 3583 017c 05        		.uleb128 0x5
 3584 017d 03        		.byte	0x3
 3585 017e 0000 0000 		.long	display+8
 3586 0182 04        		.byte	0x4
 3587 0183 8C0C      		.uleb128 .LVL81-.Ltext0
 3588 0185 FC0C      		.uleb128 .LVL90-.Ltext0
 3589 0187 06        		.uleb128 0x6
 3590 0188 64        		.byte	0x64
 3591 0189 93        		.byte	0x93
 3592 018a 01        		.uleb128 0x1
 3593 018b 65        		.byte	0x65
 3594 018c 93        		.byte	0x93
 3595 018d 01        		.uleb128 0x1
 3596 018e 04        		.byte	0x4
 3597 018f FC0C      		.uleb128 .LVL90-.Ltext0
 3598 0191 960D      		.uleb128 .LFE7-.Ltext0
 3599 0193 06        		.uleb128 0x6
 3600 0194 6C        		.byte	0x6c
 3601 0195 93        		.byte	0x93
 3602 0196 01        		.uleb128 0x1
 3603 0197 6D        		.byte	0x6d
 3604 0198 93        		.byte	0x93
 3605 0199 01        		.uleb128 0x1
 3606 019a 00        		.byte	0
 3607               	.LVUS35:
 3608 019b 00        		.uleb128 .LVU552
 3609 019c 00        		.uleb128 .LVU557
 3610 019d 00        		.uleb128 .LVU557
 3611 019e 00        		.uleb128 .LVU635
 3612 019f 00        		.uleb128 .LVU636
 3613 01a0 00        		.uleb128 0
 3614               	.LLST35:
 3615 01a1 04        		.byte	0x4
 3616 01a2 B20A      		.uleb128 .LVL69-.Ltext0
 3617 01a4 CA0A      		.uleb128 .LVL71-.Ltext0
 3618 01a6 03        		.uleb128 0x3
 3619 01a7 84        		.byte	0x84
 3620 01a8 07        		.sleb128 7
 3621 01a9 9F        		.byte	0x9f
GAS LISTING /tmp/cchFZ4o5.s 			page 70


 3622 01aa 04        		.byte	0x4
 3623 01ab CA0A      		.uleb128 .LVL71-.Ltext0
 3624 01ad F60B      		.uleb128 .LVL80-.Ltext0
 3625 01af 06        		.uleb128 0x6
 3626 01b0 6A        		.byte	0x6a
 3627 01b1 93        		.byte	0x93
 3628 01b2 01        		.uleb128 0x1
 3629 01b3 6B        		.byte	0x6b
 3630 01b4 93        		.byte	0x93
 3631 01b5 01        		.uleb128 0x1
 3632 01b6 04        		.byte	0x4
 3633 01b7 8C0C      		.uleb128 .LVL81-.Ltext0
 3634 01b9 960D      		.uleb128 .LFE7-.Ltext0
 3635 01bb 06        		.uleb128 0x6
 3636 01bc 6A        		.byte	0x6a
 3637 01bd 93        		.byte	0x93
 3638 01be 01        		.uleb128 0x1
 3639 01bf 6B        		.byte	0x6b
 3640 01c0 93        		.byte	0x93
 3641 01c1 01        		.uleb128 0x1
 3642 01c2 00        		.byte	0
 3643               	.LVUS36:
 3644 01c3 03        		.uleb128 .LVU668
 3645 01c4 00        		.uleb128 .LVU679
 3646 01c5 00        		.uleb128 .LVU679
 3647 01c6 00        		.uleb128 .LVU680
 3648 01c7 00        		.uleb128 .LVU680
 3649 01c8 00        		.uleb128 .LVU697
 3650               	.LLST36:
 3651 01c9 04        		.byte	0x4
 3652 01ca B60C      		.uleb128 .LVL82-.Ltext0
 3653 01cc CA0C      		.uleb128 .LVL86-.Ltext0
 3654 01ce 06        		.uleb128 0x6
 3655 01cf 6E        		.byte	0x6e
 3656 01d0 93        		.byte	0x93
 3657 01d1 01        		.uleb128 0x1
 3658 01d2 6F        		.byte	0x6f
 3659 01d3 93        		.byte	0x93
 3660 01d4 01        		.uleb128 0x1
 3661 01d5 04        		.byte	0x4
 3662 01d6 CA0C      		.uleb128 .LVL86-.Ltext0
 3663 01d8 CC0C      		.uleb128 .LVL87-.Ltext0
 3664 01da 03        		.uleb128 0x3
 3665 01db 8E        		.byte	0x8e
 3666 01dc 7F        		.sleb128 -1
 3667 01dd 9F        		.byte	0x9f
 3668 01de 04        		.byte	0x4
 3669 01df CC0C      		.uleb128 .LVL87-.Ltext0
 3670 01e1 FC0C      		.uleb128 .LVL90-.Ltext0
 3671 01e3 06        		.uleb128 0x6
 3672 01e4 6E        		.byte	0x6e
 3673 01e5 93        		.byte	0x93
 3674 01e6 01        		.uleb128 0x1
 3675 01e7 6F        		.byte	0x6f
 3676 01e8 93        		.byte	0x93
 3677 01e9 01        		.uleb128 0x1
 3678 01ea 00        		.byte	0
GAS LISTING /tmp/cchFZ4o5.s 			page 71


 3679               	.LVUS37:
 3680 01eb 00        		.uleb128 .LVU670
 3681 01ec 00        		.uleb128 .LVU697
 3682               	.LLST37:
 3683 01ed 04        		.byte	0x4
 3684 01ee B80C      		.uleb128 .LVL83-.Ltext0
 3685 01f0 FC0C      		.uleb128 .LVL90-.Ltext0
 3686 01f2 01        		.uleb128 0x1
 3687 01f3 5A        		.byte	0x5a
 3688 01f4 00        		.byte	0
 3689               	.LVUS9:
 3690 01f5 00        		.uleb128 .LVU319
 3691 01f6 00        		.uleb128 .LVU322
 3692 01f7 00        		.uleb128 .LVU322
 3693 01f8 00        		.uleb128 .LVU454
 3694 01f9 00        		.uleb128 .LVU454
 3695 01fa 00        		.uleb128 .LVU457
 3696 01fb 00        		.uleb128 .LVU457
 3697 01fc 00        		.uleb128 0
 3698               	.LLST9:
 3699 01fd 04        		.byte	0x4
 3700 01fe A206      		.uleb128 .LVL27-.Ltext0
 3701 0200 A806      		.uleb128 .LVL28-.Ltext0
 3702 0202 02        		.uleb128 0x2
 3703 0203 30        		.byte	0x30
 3704 0204 9F        		.byte	0x9f
 3705 0205 04        		.byte	0x4
 3706 0206 A806      		.uleb128 .LVL28-.Ltext0
 3707 0208 9C08      		.uleb128 .LVL47-.Ltext0
 3708 020a 06        		.uleb128 0x6
 3709 020b 64        		.byte	0x64
 3710 020c 93        		.byte	0x93
 3711 020d 01        		.uleb128 0x1
 3712 020e 65        		.byte	0x65
 3713 020f 93        		.byte	0x93
 3714 0210 01        		.uleb128 0x1
 3715 0211 04        		.byte	0x4
 3716 0212 9C08      		.uleb128 .LVL47-.Ltext0
 3717 0214 A208      		.uleb128 .LVL48-.Ltext0
 3718 0216 02        		.uleb128 0x2
 3719 0217 30        		.byte	0x30
 3720 0218 9F        		.byte	0x9f
 3721 0219 04        		.byte	0x4
 3722 021a A208      		.uleb128 .LVL48-.Ltext0
 3723 021c B409      		.uleb128 .LFE5-.Ltext0
 3724 021e 06        		.uleb128 0x6
 3725 021f 64        		.byte	0x64
 3726 0220 93        		.byte	0x93
 3727 0221 01        		.uleb128 0x1
 3728 0222 65        		.byte	0x65
 3729 0223 93        		.byte	0x93
 3730 0224 01        		.uleb128 0x1
 3731 0225 00        		.byte	0
 3732               	.LVUS10:
 3733 0226 02        		.uleb128 .LVU317
 3734 0227 00        		.uleb128 .LVU319
 3735 0228 02        		.uleb128 .LVU452
GAS LISTING /tmp/cchFZ4o5.s 			page 72


 3736 0229 00        		.uleb128 .LVU454
 3737               	.LLST10:
 3738 022a 04        		.byte	0x4
 3739 022b 9A06      		.uleb128 .LVL26-.Ltext0
 3740 022d A206      		.uleb128 .LVL27-.Ltext0
 3741 022f 02        		.uleb128 0x2
 3742 0230 30        		.byte	0x30
 3743 0231 9F        		.byte	0x9f
 3744 0232 04        		.byte	0x4
 3745 0233 9408      		.uleb128 .LVL46-.Ltext0
 3746 0235 9C08      		.uleb128 .LVL47-.Ltext0
 3747 0237 02        		.uleb128 0x2
 3748 0238 30        		.byte	0x30
 3749 0239 9F        		.byte	0x9f
 3750 023a 00        		.byte	0
 3751               	.LVUS11:
 3752 023b 02        		.uleb128 .LVU324
 3753 023c 00        		.uleb128 .LVU326
 3754               	.LLST11:
 3755 023d 04        		.byte	0x4
 3756 023e A806      		.uleb128 .LVL28-.Ltext0
 3757 0240 AE06      		.uleb128 .LVL29-.Ltext0
 3758 0242 06        		.uleb128 0x6
 3759 0243 68        		.byte	0x68
 3760 0244 93        		.byte	0x93
 3761 0245 01        		.uleb128 0x1
 3762 0246 69        		.byte	0x69
 3763 0247 93        		.byte	0x93
 3764 0248 01        		.uleb128 0x1
 3765 0249 00        		.byte	0
 3766               	.LVUS12:
 3767 024a 03        		.uleb128 .LVU332
 3768 024b 00        		.uleb128 .LVU334
 3769               	.LLST12:
 3770 024c 04        		.byte	0x4
 3771 024d B406      		.uleb128 .LVL30-.Ltext0
 3772 024f BA06      		.uleb128 .LVL31-.Ltext0
 3773 0251 06        		.uleb128 0x6
 3774 0252 68        		.byte	0x68
 3775 0253 93        		.byte	0x93
 3776 0254 01        		.uleb128 0x1
 3777 0255 69        		.byte	0x69
 3778 0256 93        		.byte	0x93
 3779 0257 01        		.uleb128 0x1
 3780 0258 00        		.byte	0
 3781               	.LVUS13:
 3782 0259 04        		.uleb128 .LVU341
 3783 025a 00        		.uleb128 .LVU343
 3784               	.LLST13:
 3785 025b 04        		.byte	0x4
 3786 025c C006      		.uleb128 .LVL32-.Ltext0
 3787 025e C606      		.uleb128 .LVL33-.Ltext0
 3788 0260 06        		.uleb128 0x6
 3789 0261 68        		.byte	0x68
 3790 0262 93        		.byte	0x93
 3791 0263 01        		.uleb128 0x1
 3792 0264 69        		.byte	0x69
GAS LISTING /tmp/cchFZ4o5.s 			page 73


 3793 0265 93        		.byte	0x93
 3794 0266 01        		.uleb128 0x1
 3795 0267 00        		.byte	0
 3796               	.LVUS14:
 3797 0268 03        		.uleb128 .LVU349
 3798 0269 00        		.uleb128 .LVU351
 3799               	.LLST14:
 3800 026a 04        		.byte	0x4
 3801 026b CC06      		.uleb128 .LVL34-.Ltext0
 3802 026d D206      		.uleb128 .LVL35-.Ltext0
 3803 026f 06        		.uleb128 0x6
 3804 0270 68        		.byte	0x68
 3805 0271 93        		.byte	0x93
 3806 0272 01        		.uleb128 0x1
 3807 0273 69        		.byte	0x69
 3808 0274 93        		.byte	0x93
 3809 0275 01        		.uleb128 0x1
 3810 0276 00        		.byte	0
 3811               	.LVUS15:
 3812 0277 02        		.uleb128 .LVU361
 3813 0278 00        		.uleb128 .LVU363
 3814               	.LLST15:
 3815 0279 04        		.byte	0x4
 3816 027a EA06      		.uleb128 .LVL37-.Ltext0
 3817 027c F006      		.uleb128 .LVL38-.Ltext0
 3818 027e 06        		.uleb128 0x6
 3819 027f 68        		.byte	0x68
 3820 0280 93        		.byte	0x93
 3821 0281 01        		.uleb128 0x1
 3822 0282 69        		.byte	0x69
 3823 0283 93        		.byte	0x93
 3824 0284 01        		.uleb128 0x1
 3825 0285 00        		.byte	0
 3826               	.LVUS16:
 3827 0286 03        		.uleb128 .LVU369
 3828 0287 00        		.uleb128 .LVU371
 3829               	.LLST16:
 3830 0288 04        		.byte	0x4
 3831 0289 F606      		.uleb128 .LVL39-.Ltext0
 3832 028b FC06      		.uleb128 .LVL40-.Ltext0
 3833 028d 06        		.uleb128 0x6
 3834 028e 68        		.byte	0x68
 3835 028f 93        		.byte	0x93
 3836 0290 01        		.uleb128 0x1
 3837 0291 69        		.byte	0x69
 3838 0292 93        		.byte	0x93
 3839 0293 01        		.uleb128 0x1
 3840 0294 00        		.byte	0
 3841               	.LVUS17:
 3842 0295 04        		.uleb128 .LVU378
 3843 0296 00        		.uleb128 .LVU380
 3844               	.LLST17:
 3845 0297 04        		.byte	0x4
 3846 0298 8207      		.uleb128 .LVL41-.Ltext0
 3847 029a 8807      		.uleb128 .LVL42-.Ltext0
 3848 029c 06        		.uleb128 0x6
 3849 029d 68        		.byte	0x68
GAS LISTING /tmp/cchFZ4o5.s 			page 74


 3850 029e 93        		.byte	0x93
 3851 029f 01        		.uleb128 0x1
 3852 02a0 69        		.byte	0x69
 3853 02a1 93        		.byte	0x93
 3854 02a2 01        		.uleb128 0x1
 3855 02a3 00        		.byte	0
 3856               	.LVUS18:
 3857 02a4 03        		.uleb128 .LVU386
 3858 02a5 00        		.uleb128 .LVU388
 3859               	.LLST18:
 3860 02a6 04        		.byte	0x4
 3861 02a7 8E07      		.uleb128 .LVL43-.Ltext0
 3862 02a9 9407      		.uleb128 .LVL44-.Ltext0
 3863 02ab 06        		.uleb128 0x6
 3864 02ac 68        		.byte	0x68
 3865 02ad 93        		.byte	0x93
 3866 02ae 01        		.uleb128 0x1
 3867 02af 69        		.byte	0x69
 3868 02b0 93        		.byte	0x93
 3869 02b1 01        		.uleb128 0x1
 3870 02b2 00        		.byte	0
 3871               	.LVUS19:
 3872 02b3 02        		.uleb128 .LVU459
 3873 02b4 00        		.uleb128 .LVU461
 3874               	.LLST19:
 3875 02b5 04        		.byte	0x4
 3876 02b6 A208      		.uleb128 .LVL48-.Ltext0
 3877 02b8 A808      		.uleb128 .LVL49-.Ltext0
 3878 02ba 06        		.uleb128 0x6
 3879 02bb 68        		.byte	0x68
 3880 02bc 93        		.byte	0x93
 3881 02bd 01        		.uleb128 0x1
 3882 02be 69        		.byte	0x69
 3883 02bf 93        		.byte	0x93
 3884 02c0 01        		.uleb128 0x1
 3885 02c1 00        		.byte	0
 3886               	.LVUS20:
 3887 02c2 03        		.uleb128 .LVU467
 3888 02c3 00        		.uleb128 .LVU469
 3889               	.LLST20:
 3890 02c4 04        		.byte	0x4
 3891 02c5 AE08      		.uleb128 .LVL50-.Ltext0
 3892 02c7 B408      		.uleb128 .LVL51-.Ltext0
 3893 02c9 06        		.uleb128 0x6
 3894 02ca 68        		.byte	0x68
 3895 02cb 93        		.byte	0x93
 3896 02cc 01        		.uleb128 0x1
 3897 02cd 69        		.byte	0x69
 3898 02ce 93        		.byte	0x93
 3899 02cf 01        		.uleb128 0x1
 3900 02d0 00        		.byte	0
 3901               	.LVUS21:
 3902 02d1 04        		.uleb128 .LVU476
 3903 02d2 00        		.uleb128 .LVU478
 3904               	.LLST21:
 3905 02d3 04        		.byte	0x4
 3906 02d4 BA08      		.uleb128 .LVL52-.Ltext0
GAS LISTING /tmp/cchFZ4o5.s 			page 75


 3907 02d6 C008      		.uleb128 .LVL53-.Ltext0
 3908 02d8 06        		.uleb128 0x6
 3909 02d9 68        		.byte	0x68
 3910 02da 93        		.byte	0x93
 3911 02db 01        		.uleb128 0x1
 3912 02dc 69        		.byte	0x69
 3913 02dd 93        		.byte	0x93
 3914 02de 01        		.uleb128 0x1
 3915 02df 00        		.byte	0
 3916               	.LVUS22:
 3917 02e0 03        		.uleb128 .LVU484
 3918 02e1 00        		.uleb128 .LVU486
 3919               	.LLST22:
 3920 02e2 04        		.byte	0x4
 3921 02e3 C608      		.uleb128 .LVL54-.Ltext0
 3922 02e5 CC08      		.uleb128 .LVL55-.Ltext0
 3923 02e7 06        		.uleb128 0x6
 3924 02e8 68        		.byte	0x68
 3925 02e9 93        		.byte	0x93
 3926 02ea 01        		.uleb128 0x1
 3927 02eb 69        		.byte	0x69
 3928 02ec 93        		.byte	0x93
 3929 02ed 01        		.uleb128 0x1
 3930 02ee 00        		.byte	0
 3931               	.LVUS23:
 3932 02ef 02        		.uleb128 .LVU496
 3933 02f0 00        		.uleb128 .LVU498
 3934               	.LLST23:
 3935 02f1 04        		.byte	0x4
 3936 02f2 E408      		.uleb128 .LVL57-.Ltext0
 3937 02f4 EA08      		.uleb128 .LVL58-.Ltext0
 3938 02f6 06        		.uleb128 0x6
 3939 02f7 68        		.byte	0x68
 3940 02f8 93        		.byte	0x93
 3941 02f9 01        		.uleb128 0x1
 3942 02fa 69        		.byte	0x69
 3943 02fb 93        		.byte	0x93
 3944 02fc 01        		.uleb128 0x1
 3945 02fd 00        		.byte	0
 3946               	.LVUS24:
 3947 02fe 03        		.uleb128 .LVU504
 3948 02ff 00        		.uleb128 .LVU506
 3949               	.LLST24:
 3950 0300 04        		.byte	0x4
 3951 0301 F008      		.uleb128 .LVL59-.Ltext0
 3952 0303 F608      		.uleb128 .LVL60-.Ltext0
 3953 0305 06        		.uleb128 0x6
 3954 0306 68        		.byte	0x68
 3955 0307 93        		.byte	0x93
 3956 0308 01        		.uleb128 0x1
 3957 0309 69        		.byte	0x69
 3958 030a 93        		.byte	0x93
 3959 030b 01        		.uleb128 0x1
 3960 030c 00        		.byte	0
 3961               	.LVUS25:
 3962 030d 04        		.uleb128 .LVU513
 3963 030e 00        		.uleb128 .LVU515
GAS LISTING /tmp/cchFZ4o5.s 			page 76


 3964               	.LLST25:
 3965 030f 04        		.byte	0x4
 3966 0310 FC08      		.uleb128 .LVL61-.Ltext0
 3967 0312 8209      		.uleb128 .LVL62-.Ltext0
 3968 0314 06        		.uleb128 0x6
 3969 0315 68        		.byte	0x68
 3970 0316 93        		.byte	0x93
 3971 0317 01        		.uleb128 0x1
 3972 0318 69        		.byte	0x69
 3973 0319 93        		.byte	0x93
 3974 031a 01        		.uleb128 0x1
 3975 031b 00        		.byte	0
 3976               	.LVUS26:
 3977 031c 03        		.uleb128 .LVU521
 3978 031d 00        		.uleb128 .LVU523
 3979               	.LLST26:
 3980 031e 04        		.byte	0x4
 3981 031f 8809      		.uleb128 .LVL63-.Ltext0
 3982 0321 8E09      		.uleb128 .LVL64-.Ltext0
 3983 0323 06        		.uleb128 0x6
 3984 0324 68        		.byte	0x68
 3985 0325 93        		.byte	0x93
 3986 0326 01        		.uleb128 0x1
 3987 0327 69        		.byte	0x69
 3988 0328 93        		.byte	0x93
 3989 0329 01        		.uleb128 0x1
 3990 032a 00        		.byte	0
 3991               	.LVUS5:
 3992 032b 00        		.uleb128 .LVU180
 3993 032c 00        		.uleb128 .LVU181
 3994 032d 00        		.uleb128 .LVU181
 3995 032e 00        		.uleb128 .LVU182
 3996 032f 00        		.uleb128 .LVU182
 3997 0330 02        		.uleb128 .LVU238
 3998 0331 02        		.uleb128 .LVU238
 3999 0332 00        		.uleb128 0
 4000               	.LLST5:
 4001 0333 04        		.byte	0x4
 4002 0334 9E04      		.uleb128 .LVL14-.Ltext0
 4003 0336 A204      		.uleb128 .LVL15-.Ltext0
 4004 0338 08        		.uleb128 0x8
 4005 0339 62        		.byte	0x62
 4006 033a 93        		.byte	0x93
 4007 033b 01        		.uleb128 0x1
 4008 033c 63        		.byte	0x63
 4009 033d 93        		.byte	0x93
 4010 033e 01        		.uleb128 0x1
 4011 033f 93        		.byte	0x93
 4012 0340 06        		.uleb128 0x6
 4013 0341 04        		.byte	0x4
 4014 0342 A204      		.uleb128 .LVL15-.Ltext0
 4015 0344 A604      		.uleb128 .LVL16-.Ltext0
 4016 0346 14        		.uleb128 0x14
 4017 0347 62        		.byte	0x62
 4018 0348 93        		.byte	0x93
 4019 0349 01        		.uleb128 0x1
 4020 034a 63        		.byte	0x63
GAS LISTING /tmp/cchFZ4o5.s 			page 77


 4021 034b 93        		.byte	0x93
 4022 034c 01        		.uleb128 0x1
 4023 034d 6A        		.byte	0x6a
 4024 034e 93        		.byte	0x93
 4025 034f 01        		.uleb128 0x1
 4026 0350 6B        		.byte	0x6b
 4027 0351 93        		.byte	0x93
 4028 0352 01        		.uleb128 0x1
 4029 0353 65        		.byte	0x65
 4030 0354 93        		.byte	0x93
 4031 0355 01        		.uleb128 0x1
 4032 0356 64        		.byte	0x64
 4033 0357 93        		.byte	0x93
 4034 0358 01        		.uleb128 0x1
 4035 0359 93        		.byte	0x93
 4036 035a 02        		.uleb128 0x2
 4037 035b 04        		.byte	0x4
 4038 035c A604      		.uleb128 .LVL16-.Ltext0
 4039 035e FA04      		.uleb128 .LVL17-.Ltext0
 4040 0360 18        		.uleb128 0x18
 4041 0361 62        		.byte	0x62
 4042 0362 93        		.byte	0x93
 4043 0363 01        		.uleb128 0x1
 4044 0364 63        		.byte	0x63
 4045 0365 93        		.byte	0x93
 4046 0366 01        		.uleb128 0x1
 4047 0367 6A        		.byte	0x6a
 4048 0368 93        		.byte	0x93
 4049 0369 01        		.uleb128 0x1
 4050 036a 6B        		.byte	0x6b
 4051 036b 93        		.byte	0x93
 4052 036c 01        		.uleb128 0x1
 4053 036d 65        		.byte	0x65
 4054 036e 93        		.byte	0x93
 4055 036f 01        		.uleb128 0x1
 4056 0370 64        		.byte	0x64
 4057 0371 93        		.byte	0x93
 4058 0372 01        		.uleb128 0x1
 4059 0373 66        		.byte	0x66
 4060 0374 93        		.byte	0x93
 4061 0375 01        		.uleb128 0x1
 4062 0376 67        		.byte	0x67
 4063 0377 93        		.byte	0x93
 4064 0378 01        		.uleb128 0x1
 4065 0379 04        		.byte	0x4
 4066 037a FA04      		.uleb128 .LVL17-.Ltext0
 4067 037c C005      		.uleb128 .LFE4-.Ltext0
 4068 037e 14        		.uleb128 0x14
 4069 037f 93        		.byte	0x93
 4070 0380 02        		.uleb128 0x2
 4071 0381 6A        		.byte	0x6a
 4072 0382 93        		.byte	0x93
 4073 0383 01        		.uleb128 0x1
 4074 0384 6B        		.byte	0x6b
 4075 0385 93        		.byte	0x93
 4076 0386 01        		.uleb128 0x1
 4077 0387 65        		.byte	0x65
GAS LISTING /tmp/cchFZ4o5.s 			page 78


 4078 0388 93        		.byte	0x93
 4079 0389 01        		.uleb128 0x1
 4080 038a 64        		.byte	0x64
 4081 038b 93        		.byte	0x93
 4082 038c 01        		.uleb128 0x1
 4083 038d 66        		.byte	0x66
 4084 038e 93        		.byte	0x93
 4085 038f 01        		.uleb128 0x1
 4086 0390 67        		.byte	0x67
 4087 0391 93        		.byte	0x93
 4088 0392 01        		.uleb128 0x1
 4089 0393 00        		.byte	0
 4090               	.LVUS6:
 4091 0394 00        		.uleb128 0
 4092 0395 02        		.uleb128 .LVU238
 4093 0396 02        		.uleb128 .LVU238
 4094 0397 00        		.uleb128 .LVU241
 4095 0398 00        		.uleb128 .LVU241
 4096 0399 01        		.uleb128 .LVU242
 4097 039a 01        		.uleb128 .LVU242
 4098 039b 02        		.uleb128 .LVU247
 4099 039c 02        		.uleb128 .LVU247
 4100 039d 00        		.uleb128 .LVU253
 4101 039e 00        		.uleb128 .LVU254
 4102 039f 00        		.uleb128 .LVU257
 4103 03a0 00        		.uleb128 .LVU257
 4104 03a1 00        		.uleb128 .LVU258
 4105               	.LLST6:
 4106 03a2 04        		.byte	0x4
 4107 03a3 EE03      		.uleb128 .LVL13-.Ltext0
 4108 03a5 FA04      		.uleb128 .LVL17-.Ltext0
 4109 03a7 06        		.uleb128 0x6
 4110 03a8 60        		.byte	0x60
 4111 03a9 93        		.byte	0x93
 4112 03aa 01        		.uleb128 0x1
 4113 03ab 61        		.byte	0x61
 4114 03ac 93        		.byte	0x93
 4115 03ad 01        		.uleb128 0x1
 4116 03ae 04        		.byte	0x4
 4117 03af FA04      		.uleb128 .LVL17-.Ltext0
 4118 03b1 8805      		.uleb128 .LVL18-.Ltext0
 4119 03b3 06        		.uleb128 0x6
 4120 03b4 60        		.byte	0x60
 4121 03b5 93        		.byte	0x93
 4122 03b6 01        		.uleb128 0x1
 4123 03b7 61        		.byte	0x61
 4124 03b8 93        		.byte	0x93
 4125 03b9 01        		.uleb128 0x1
 4126 03ba 04        		.byte	0x4
 4127 03bb 8805      		.uleb128 .LVL18-.Ltext0
 4128 03bd 8805      		.uleb128 .LVL18-.Ltext0
 4129 03bf 06        		.uleb128 0x6
 4130 03c0 60        		.byte	0x60
 4131 03c1 93        		.byte	0x93
 4132 03c2 01        		.uleb128 0x1
 4133 03c3 61        		.byte	0x61
 4134 03c4 93        		.byte	0x93
GAS LISTING /tmp/cchFZ4o5.s 			page 79


 4135 03c5 01        		.uleb128 0x1
 4136 03c6 04        		.byte	0x4
 4137 03c7 8805      		.uleb128 .LVL18-.Ltext0
 4138 03c9 9005      		.uleb128 .LVL19-.Ltext0
 4139 03cb 03        		.uleb128 0x3
 4140 03cc 80        		.byte	0x80
 4141 03cd 02        		.sleb128 2
 4142 03ce 9F        		.byte	0x9f
 4143 03cf 04        		.byte	0x4
 4144 03d0 9005      		.uleb128 .LVL19-.Ltext0
 4145 03d2 9C05      		.uleb128 .LVL21-.Ltext0
 4146 03d4 03        		.uleb128 0x3
 4147 03d5 80        		.byte	0x80
 4148 03d6 04        		.sleb128 4
 4149 03d7 9F        		.byte	0x9f
 4150 03d8 04        		.byte	0x4
 4151 03d9 9E05      		.uleb128 .LVL22-.Ltext0
 4152 03db AA05      		.uleb128 .LVL24-.Ltext0
 4153 03dd 06        		.uleb128 0x6
 4154 03de 60        		.byte	0x60
 4155 03df 93        		.byte	0x93
 4156 03e0 01        		.uleb128 0x1
 4157 03e1 61        		.byte	0x61
 4158 03e2 93        		.byte	0x93
 4159 03e3 01        		.uleb128 0x1
 4160 03e4 04        		.byte	0x4
 4161 03e5 AA05      		.uleb128 .LVL24-.Ltext0
 4162 03e7 BC05      		.uleb128 .LVL25-.Ltext0
 4163 03e9 06        		.uleb128 0x6
 4164 03ea 60        		.byte	0x60
 4165 03eb 93        		.byte	0x93
 4166 03ec 01        		.uleb128 0x1
 4167 03ed 61        		.byte	0x61
 4168 03ee 93        		.byte	0x93
 4169 03ef 01        		.uleb128 0x1
 4170 03f0 00        		.byte	0
 4171               	.LVUS7:
 4172 03f1 02        		.uleb128 .LVU238
 4173 03f2 00        		.uleb128 0
 4174               	.LLST7:
 4175 03f3 04        		.byte	0x4
 4176 03f4 FA04      		.uleb128 .LVL17-.Ltext0
 4177 03f6 C005      		.uleb128 .LFE4-.Ltext0
 4178 03f8 06        		.uleb128 0x6
 4179 03f9 62        		.byte	0x62
 4180 03fa 93        		.byte	0x93
 4181 03fb 01        		.uleb128 0x1
 4182 03fc 63        		.byte	0x63
 4183 03fd 93        		.byte	0x93
 4184 03fe 01        		.uleb128 0x1
 4185 03ff 00        		.byte	0
 4186               	.LVUS8:
 4187 0400 00        		.uleb128 .LVU241
 4188 0401 00        		.uleb128 .LVU253
 4189 0402 00        		.uleb128 .LVU254
 4190 0403 00        		.uleb128 .LVU257
 4191               	.LLST8:
GAS LISTING /tmp/cchFZ4o5.s 			page 80


 4192 0404 04        		.byte	0x4
 4193 0405 8805      		.uleb128 .LVL18-.Ltext0
 4194 0407 9C05      		.uleb128 .LVL21-.Ltext0
 4195 0409 06        		.uleb128 0x6
 4196 040a 68        		.byte	0x68
 4197 040b 93        		.byte	0x93
 4198 040c 01        		.uleb128 0x1
 4199 040d 69        		.byte	0x69
 4200 040e 93        		.byte	0x93
 4201 040f 01        		.uleb128 0x1
 4202 0410 04        		.byte	0x4
 4203 0411 9E05      		.uleb128 .LVL22-.Ltext0
 4204 0413 AA05      		.uleb128 .LVL24-.Ltext0
 4205 0415 06        		.uleb128 0x6
 4206 0416 68        		.byte	0x68
 4207 0417 93        		.byte	0x93
 4208 0418 01        		.uleb128 0x1
 4209 0419 69        		.byte	0x69
 4210 041a 93        		.byte	0x93
 4211 041b 01        		.uleb128 0x1
 4212 041c 00        		.byte	0
 4213               	.LVUS1:
 4214 041d 00        		.uleb128 .LVU104
 4215 041e 00        		.uleb128 .LVU105
 4216 041f 00        		.uleb128 .LVU105
 4217 0420 00        		.uleb128 .LVU106
 4218 0421 00        		.uleb128 .LVU106
 4219 0422 02        		.uleb128 .LVU162
 4220 0423 02        		.uleb128 .LVU162
 4221 0424 00        		.uleb128 0
 4222               	.LLST1:
 4223 0425 04        		.byte	0x4
 4224 0426 D802      		.uleb128 .LVL4-.Ltext0
 4225 0428 DC02      		.uleb128 .LVL5-.Ltext0
 4226 042a 08        		.uleb128 0x8
 4227 042b 68        		.byte	0x68
 4228 042c 93        		.byte	0x93
 4229 042d 01        		.uleb128 0x1
 4230 042e 69        		.byte	0x69
 4231 042f 93        		.byte	0x93
 4232 0430 01        		.uleb128 0x1
 4233 0431 93        		.byte	0x93
 4234 0432 06        		.uleb128 0x6
 4235 0433 04        		.byte	0x4
 4236 0434 DC02      		.uleb128 .LVL5-.Ltext0
 4237 0436 E002      		.uleb128 .LVL6-.Ltext0
 4238 0438 14        		.uleb128 0x14
 4239 0439 68        		.byte	0x68
 4240 043a 93        		.byte	0x93
 4241 043b 01        		.uleb128 0x1
 4242 043c 69        		.byte	0x69
 4243 043d 93        		.byte	0x93
 4244 043e 01        		.uleb128 0x1
 4245 043f 66        		.byte	0x66
 4246 0440 93        		.byte	0x93
 4247 0441 01        		.uleb128 0x1
 4248 0442 67        		.byte	0x67
GAS LISTING /tmp/cchFZ4o5.s 			page 81


 4249 0443 93        		.byte	0x93
 4250 0444 01        		.uleb128 0x1
 4251 0445 64        		.byte	0x64
 4252 0446 93        		.byte	0x93
 4253 0447 01        		.uleb128 0x1
 4254 0448 65        		.byte	0x65
 4255 0449 93        		.byte	0x93
 4256 044a 01        		.uleb128 0x1
 4257 044b 93        		.byte	0x93
 4258 044c 02        		.uleb128 0x2
 4259 044d 04        		.byte	0x4
 4260 044e E002      		.uleb128 .LVL6-.Ltext0
 4261 0450 B403      		.uleb128 .LVL7-.Ltext0
 4262 0452 18        		.uleb128 0x18
 4263 0453 68        		.byte	0x68
 4264 0454 93        		.byte	0x93
 4265 0455 01        		.uleb128 0x1
 4266 0456 69        		.byte	0x69
 4267 0457 93        		.byte	0x93
 4268 0458 01        		.uleb128 0x1
 4269 0459 66        		.byte	0x66
 4270 045a 93        		.byte	0x93
 4271 045b 01        		.uleb128 0x1
 4272 045c 67        		.byte	0x67
 4273 045d 93        		.byte	0x93
 4274 045e 01        		.uleb128 0x1
 4275 045f 64        		.byte	0x64
 4276 0460 93        		.byte	0x93
 4277 0461 01        		.uleb128 0x1
 4278 0462 65        		.byte	0x65
 4279 0463 93        		.byte	0x93
 4280 0464 01        		.uleb128 0x1
 4281 0465 6E        		.byte	0x6e
 4282 0466 93        		.byte	0x93
 4283 0467 01        		.uleb128 0x1
 4284 0468 6F        		.byte	0x6f
 4285 0469 93        		.byte	0x93
 4286 046a 01        		.uleb128 0x1
 4287 046b 04        		.byte	0x4
 4288 046c B403      		.uleb128 .LVL7-.Ltext0
 4289 046e EE03      		.uleb128 .LFE3-.Ltext0
 4290 0470 14        		.uleb128 0x14
 4291 0471 93        		.byte	0x93
 4292 0472 02        		.uleb128 0x2
 4293 0473 66        		.byte	0x66
 4294 0474 93        		.byte	0x93
 4295 0475 01        		.uleb128 0x1
 4296 0476 67        		.byte	0x67
 4297 0477 93        		.byte	0x93
 4298 0478 01        		.uleb128 0x1
 4299 0479 64        		.byte	0x64
 4300 047a 93        		.byte	0x93
 4301 047b 01        		.uleb128 0x1
 4302 047c 65        		.byte	0x65
 4303 047d 93        		.byte	0x93
 4304 047e 01        		.uleb128 0x1
 4305 047f 6E        		.byte	0x6e
GAS LISTING /tmp/cchFZ4o5.s 			page 82


 4306 0480 93        		.byte	0x93
 4307 0481 01        		.uleb128 0x1
 4308 0482 6F        		.byte	0x6f
 4309 0483 93        		.byte	0x93
 4310 0484 01        		.uleb128 0x1
 4311 0485 00        		.byte	0
 4312               	.LVUS2:
 4313 0486 00        		.uleb128 0
 4314 0487 00        		.uleb128 .LVU164
 4315 0488 00        		.uleb128 .LVU164
 4316 0489 00        		.uleb128 .LVU165
 4317 048a 00        		.uleb128 .LVU165
 4318 048b 00        		.uleb128 0
 4319               	.LLST2:
 4320 048c 04        		.byte	0x4
 4321 048d A802      		.uleb128 .LVL3-.Ltext0
 4322 048f CE03      		.uleb128 .LVL8-.Ltext0
 4323 0491 06        		.uleb128 0x6
 4324 0492 60        		.byte	0x60
 4325 0493 93        		.byte	0x93
 4326 0494 01        		.uleb128 0x1
 4327 0495 61        		.byte	0x61
 4328 0496 93        		.byte	0x93
 4329 0497 01        		.uleb128 0x1
 4330 0498 04        		.byte	0x4
 4331 0499 CE03      		.uleb128 .LVL8-.Ltext0
 4332 049b D003      		.uleb128 .LVL9-.Ltext0
 4333 049d 04        		.uleb128 0x4
 4334 049e A3        		.byte	0xa3
 4335 049f 01        		.uleb128 0x1
 4336 04a0 60        		.byte	0x60
 4337 04a1 9F        		.byte	0x9f
 4338 04a2 04        		.byte	0x4
 4339 04a3 D003      		.uleb128 .LVL9-.Ltext0
 4340 04a5 EE03      		.uleb128 .LFE3-.Ltext0
 4341 04a7 06        		.uleb128 0x6
 4342 04a8 60        		.byte	0x60
 4343 04a9 93        		.byte	0x93
 4344 04aa 01        		.uleb128 0x1
 4345 04ab 61        		.byte	0x61
 4346 04ac 93        		.byte	0x93
 4347 04ad 01        		.uleb128 0x1
 4348 04ae 00        		.byte	0
 4349               	.LVUS3:
 4350 04af 02        		.uleb128 .LVU162
 4351 04b0 00        		.uleb128 0
 4352               	.LLST3:
 4353 04b1 04        		.byte	0x4
 4354 04b2 B403      		.uleb128 .LVL7-.Ltext0
 4355 04b4 EE03      		.uleb128 .LFE3-.Ltext0
 4356 04b6 06        		.uleb128 0x6
 4357 04b7 68        		.byte	0x68
 4358 04b8 93        		.byte	0x93
 4359 04b9 01        		.uleb128 0x1
 4360 04ba 69        		.byte	0x69
 4361 04bb 93        		.byte	0x93
 4362 04bc 01        		.uleb128 0x1
GAS LISTING /tmp/cchFZ4o5.s 			page 83


 4363 04bd 00        		.byte	0
 4364               	.LVUS4:
 4365 04be 00        		.uleb128 .LVU165
 4366 04bf 00        		.uleb128 .LVU177
 4367               	.LLST4:
 4368 04c0 04        		.byte	0x4
 4369 04c1 D003      		.uleb128 .LVL9-.Ltext0
 4370 04c3 EA03      		.uleb128 .LVL12-.Ltext0
 4371 04c5 06        		.uleb128 0x6
 4372 04c6 62        		.byte	0x62
 4373 04c7 93        		.byte	0x93
 4374 04c8 01        		.uleb128 0x1
 4375 04c9 63        		.byte	0x63
 4376 04ca 93        		.byte	0x93
 4377 04cb 01        		.uleb128 0x1
 4378 04cc 00        		.byte	0
 4379               	.LVUS0:
 4380 04cd 00        		.uleb128 0
 4381 04ce 00        		.uleb128 .LVU16
 4382 04cf 00        		.uleb128 .LVU16
 4383 04d0 00        		.uleb128 0
 4384               	.LLST0:
 4385 04d1 04        		.byte	0x4
 4386 04d2 18        		.uleb128 .LVL1-.Ltext0
 4387 04d3 26        		.uleb128 .LVL2-.Ltext0
 4388 04d4 06        		.uleb128 0x6
 4389 04d5 68        		.byte	0x68
 4390 04d6 93        		.byte	0x93
 4391 04d7 01        		.uleb128 0x1
 4392 04d8 69        		.byte	0x69
 4393 04d9 93        		.byte	0x93
 4394 04da 01        		.uleb128 0x1
 4395 04db 04        		.byte	0x4
 4396 04dc 26        		.uleb128 .LVL2-.Ltext0
 4397 04dd A802      		.uleb128 .LFE2-.Ltext0
 4398 04df 06        		.uleb128 0x6
 4399 04e0 62        		.byte	0x62
 4400 04e1 93        		.byte	0x93
 4401 04e2 01        		.uleb128 0x1
 4402 04e3 63        		.byte	0x63
 4403 04e4 93        		.byte	0x93
 4404 04e5 01        		.uleb128 0x1
 4405 04e6 00        		.byte	0
 4406               	.Ldebug_loc3:
 4407               		.section	.debug_aranges,"",@progbits
 4408 0000 1C00 0000 		.long	0x1c
 4409 0004 0200      		.word	0x2
 4410 0006 0000 0000 		.long	.Ldebug_info0
 4411 000a 04        		.byte	0x4
 4412 000b 00        		.byte	0
 4413 000c 0000      		.word	0
 4414 000e 0000      		.word	0
 4415 0010 0000 0000 		.long	.Ltext0
 4416 0014 BC06 0000 		.long	.Letext0-.Ltext0
 4417 0018 0000 0000 		.long	0
 4418 001c 0000 0000 		.long	0
 4419               		.section	.debug_line,"",@progbits
GAS LISTING /tmp/cchFZ4o5.s 			page 84


 4420               	.Ldebug_line0:
 4421 0000 1818 0000 		.section	.debug_str,"MS",@progbits,1
 4421      0500 0400 
 4421      4700 0000 
 4421      0201 01FB 
 4421      0E0D 0001 
 4422               	.LASF14:
 4423 0000 4E6F 7274 		.string	"North"
 4423      6800 
 4424               	.LASF41:
 4425 0006 7365 745F 		.string	"set_orientation"
 4425      6F72 6965 
 4425      6E74 6174 
 4425      696F 6E00 
 4426               	.LASF42:
 4427 0016 474E 5520 		.string	"GNU C17 12.2.0 -mn-flash=1 -mno-skip-bug -mdouble=32 -mlong-double=64 -mmcu=avr5 -g -Os -
 4427      4331 3720 
 4427      3132 2E32 
 4427      2E30 202D 
 4427      6D6E 2D66 
 4428               	.LASF36:
 4429 00a1 636C 6561 		.string	"clear_screen"
 4429      725F 7363 
 4429      7265 656E 
 4429      00
 4430               	.LASF25:
 4431 00ae 6C65 6674 		.string	"left"
 4431      00
 4432               	.LASF34:
 4433 00b3 5F5F 6164 		.string	"__addr16"
 4433      6472 3136 
 4433      00
 4434               	.LASF12:
 4435 00bc 6267 315F 		.string	"bg1_1"
 4435      3100 
 4436               	.LASF13:
 4437 00c2 6267 315F 		.string	"bg1_2"
 4437      3200 
 4438               	.LASF39:
 4439 00c8 6669 6C6C 		.string	"fill_rectangle_indexed"
 4439      5F72 6563 
 4439      7461 6E67 
 4439      6C65 5F69 
 4439      6E64 6578 
 4440               	.LASF40:
 4441 00df 6669 6C6C 		.string	"fill_rectangle"
 4441      5F72 6563 
 4441      7461 6E67 
 4441      6C65 00
 4442               	.LASF21:
 4443 00ee 6F72 6965 		.string	"orient"
 4443      6E74 00
 4444               	.LASF16:
 4445 00f5 536F 7574 		.string	"South"
 4445      6800 
 4446               	.LASF18:
 4447 00fb 6F72 6965 		.string	"orientation"
GAS LISTING /tmp/cchFZ4o5.s 			page 85


 4447      6E74 6174 
 4447      696F 6E00 
 4448               	.LASF31:
 4449 0107 6469 7370 		.string	"display_char"
 4449      6C61 795F 
 4449      6368 6172 
 4449      00
 4450               	.LASF3:
 4451 0114 756E 7369 		.string	"unsigned char"
 4451      676E 6564 
 4451      2063 6861 
 4451      7200 
 4452               	.LASF37:
 4453 0122 696E 6974 		.string	"init_graphics"
 4453      5F67 7261 
 4453      7068 6963 
 4453      7300 
 4454               	.LASF8:
 4455 0130 6C6F 6E67 		.string	"long unsigned int"
 4455      2075 6E73 
 4455      6967 6E65 
 4455      6420 696E 
 4455      7400 
 4456               	.LASF30:
 4457 0142 6469 7370 		.string	"display_string"
 4457      6C61 795F 
 4457      7374 7269 
 4457      6E67 00
 4458               	.LASF20:
 4459 0151 6865 6967 		.string	"height"
 4459      6874 00
 4460               	.LASF23:
 4461 0158 6261 636B 		.string	"background"
 4461      6772 6F75 
 4461      6E64 00
 4462               	.LASF27:
 4463 0163 626F 7474 		.string	"bottom"
 4463      6F6D 00
 4464               	.LASF44:
 4465 016a 696E 6974 		.string	"init_lcd"
 4465      5F6C 6364 
 4465      00
 4466               	.LASF33:
 4467 0173 6D61 736B 		.string	"mask"
 4467      00
 4468               	.LASF15:
 4469 0178 5765 7374 		.string	"West"
 4469      00
 4470               	.LASF28:
 4471 017d 7265 6374 		.string	"rectangle"
 4471      616E 676C 
 4471      6500 
 4472               	.LASF6:
 4473 0187 756E 7369 		.string	"unsigned int"
 4473      676E 6564 
 4473      2069 6E74 
 4473      00
GAS LISTING /tmp/cchFZ4o5.s 			page 86


 4474               	.LASF26:
 4475 0194 7269 6768 		.string	"right"
 4475      7400 
 4476               	.LASF38:
 4477 019a 6664 6174 		.string	"fdata"
 4477      6100 
 4478               	.LASF10:
 4479 01a0 6C6F 6E67 		.string	"long long unsigned int"
 4479      206C 6F6E 
 4479      6720 756E 
 4479      7369 676E 
 4479      6564 2069 
 4480               	.LASF4:
 4481 01b7 7569 6E74 		.string	"uint8_t"
 4481      385F 7400 
 4482               	.LASF9:
 4483 01bf 6C6F 6E67 		.string	"long long int"
 4483      206C 6F6E 
 4483      6720 696E 
 4483      7400 
 4484               	.LASF29:
 4485 01cd 6368 6172 		.string	"char"
 4485      00
 4486               	.LASF32:
 4487 01d2 6269 7473 		.string	"bits"
 4487      00
 4488               	.LASF19:
 4489 01d7 7769 6474 		.string	"width"
 4489      6800 
 4490               	.LASF5:
 4491 01dd 7569 6E74 		.string	"uint16_t"
 4491      3136 5F74 
 4491      00
 4492               	.LASF11:
 4493 01e6 666F 6E74 		.string	"font5x7"
 4493      3578 3700 
 4494               	.LASF7:
 4495 01ee 6C6F 6E67 		.string	"long int"
 4495      2069 6E74 
 4495      00
 4496               	.LASF24:
 4497 01f7 6469 7370 		.string	"display"
 4497      6C61 7900 
 4498               	.LASF17:
 4499 01ff 4561 7374 		.string	"East"
 4499      00
 4500               	.LASF2:
 4501 0204 7369 676E 		.string	"signed char"
 4501      6564 2063 
 4501      6861 7200 
 4502               	.LASF22:
 4503 0210 666F 7265 		.string	"foreground"
 4503      6772 6F75 
 4503      6E64 00
 4504               	.LASF35:
 4505 021b 5F5F 7265 		.string	"__result"
 4505      7375 6C74 
GAS LISTING /tmp/cchFZ4o5.s 			page 87


 4505      00
 4506               	.LASF43:
 4507 0224 696E 6974 		.string	"init_display_controller"
 4507      5F64 6973 
 4507      706C 6179 
 4507      5F63 6F6E 
 4507      7472 6F6C 
 4508               		.section	.debug_line_str,"MS",@progbits,1
 4509               	.LASF0:
 4510 0000 6C63 642E 		.string	"lcd.c"
 4510      6300 
 4511               	.LASF1:
 4512 0006 2F68 6F6D 		.string	"/home/kaicho/Documents/Southampton/D5/lcdtest/lcdlib"
 4512      652F 6B61 
 4512      6963 686F 
 4512      2F44 6F63 
 4512      756D 656E 
 4513               		.ident	"GCC: (GNU) 12.2.0"
 4514 003b 2F68 6F6D 	.global __do_copy_data
 4514      652F 6B61 
 4514      6963 686F 
 4514      2F44 6F63 
 4514      756D 656E 
GAS LISTING /tmp/cchFZ4o5.s 			page 88


DEFINED SYMBOLS
                            *ABS*:0000000000000000 lcd.c
     /tmp/cchFZ4o5.s:2      *ABS*:000000000000003e __SP_H__
     /tmp/cchFZ4o5.s:3      *ABS*:000000000000003d __SP_L__
     /tmp/cchFZ4o5.s:4      *ABS*:000000000000003f __SREG__
     /tmp/cchFZ4o5.s:5      *ABS*:0000000000000000 __tmp_reg__
     /tmp/cchFZ4o5.s:6      *ABS*:0000000000000001 __zero_reg__
     /tmp/cchFZ4o5.s:13     .text:0000000000000000 init_lcd
     /tmp/cchFZ4o5.s:16     .text:0000000000000000 .Loc.0
     /tmp/cchFZ4o5.s:17     .text:0000000000000000 L0
     /tmp/cchFZ4o5.s:22     .text:0000000000000000 .Loc.1
     /tmp/cchFZ4o5.s:24     .text:0000000000000002 .Loc.2
     /tmp/cchFZ4o5.s:27     .text:0000000000000006 .Loc.3
     /tmp/cchFZ4o5.s:29     .text:0000000000000008 .Loc.4
     /tmp/cchFZ4o5.s:32     .text:000000000000000c .Loc.5
     /tmp/cchFZ4o5.s:33     .text:000000000000000c .Loc.6
     /tmp/cchFZ4o5.s:36     .text:0000000000000010 .Loc.7
     /tmp/cchFZ4o5.s:37     .text:0000000000000010 .Loc.8
     /tmp/cchFZ4o5.s:40     .text:0000000000000014 .Loc.9
     /tmp/cchFZ4o5.s:43     .text:0000000000000018 L0
     /tmp/cchFZ4o5.s:48     .text:0000000000000018 set_orientation
     /tmp/cchFZ4o5.s:51     .text:0000000000000018 .Loc.10
     /tmp/cchFZ4o5.s:52     .text:0000000000000018 L0
     /tmp/cchFZ4o5.s:57     .text:0000000000000018 .Loc.11
     /tmp/cchFZ4o5.s:59     .text:000000000000001a .Loc.12
     /tmp/cchFZ4o5.s:60     .text:000000000000001a .Loc.13
     /tmp/cchFZ4o5.s:1963   .data:0000000000000000 display
     /tmp/cchFZ4o5.s:63     .text:0000000000000022 .Loc.14
     /tmp/cchFZ4o5.s:65     .text:0000000000000024 .Loc.15
     /tmp/cchFZ4o5.s:68     .text:0000000000000026 .Loc.16
     /tmp/cchFZ4o5.s:70     .text:0000000000000028 .Loc.17
     /tmp/cchFZ4o5.s:72     .text:000000000000002a .Loc.18
     /tmp/cchFZ4o5.s:74     .text:000000000000002c .Loc.19
     /tmp/cchFZ4o5.s:76     .text:000000000000002e .Loc.20
     /tmp/cchFZ4o5.s:77     .text:000000000000002e .Loc.21
     /tmp/cchFZ4o5.s:78     .text:000000000000002e .Loc.22
     /tmp/cchFZ4o5.s:81     .text:0000000000000034 L0
     /tmp/cchFZ4o5.s:83     .text:0000000000000036 .Loc.23
     /tmp/cchFZ4o5.s:84     .text:0000000000000036 .Loc.24
     /tmp/cchFZ4o5.s:89     .text:0000000000000042 .Loc.25
     /tmp/cchFZ4o5.s:90     .text:0000000000000042 .Loc.26
     /tmp/cchFZ4o5.s:95     .text:000000000000004e .Loc.27
     /tmp/cchFZ4o5.s:98     .text:0000000000000050 .Loc.28
     /tmp/cchFZ4o5.s:100    .text:0000000000000052 .Loc.29
     /tmp/cchFZ4o5.s:102    .text:0000000000000054 .Loc.30
     /tmp/cchFZ4o5.s:105    .text:0000000000000056 .Loc.31
     /tmp/cchFZ4o5.s:106    .text:0000000000000056 .Loc.32
     /tmp/cchFZ4o5.s:108    .text:0000000000000058 .Loc.33
     /tmp/cchFZ4o5.s:111    .text:000000000000005c .Loc.34
     /tmp/cchFZ4o5.s:113    .text:000000000000005e .Loc.35
     /tmp/cchFZ4o5.s:115    .text:0000000000000060 .Loc.36
     /tmp/cchFZ4o5.s:117    .text:0000000000000062 .Loc.37
     /tmp/cchFZ4o5.s:118    .text:0000000000000062 .Loc.38
     /tmp/cchFZ4o5.s:120    .text:0000000000000064 .Loc.39
     /tmp/cchFZ4o5.s:122    .text:0000000000000066 .Loc.40
     /tmp/cchFZ4o5.s:124    .text:0000000000000068 .Loc.41
     /tmp/cchFZ4o5.s:125    .text:0000000000000068 .Loc.42
GAS LISTING /tmp/cchFZ4o5.s 			page 89


     /tmp/cchFZ4o5.s:127    .text:000000000000006a .Loc.43
     /tmp/cchFZ4o5.s:129    .text:000000000000006c .Loc.44
     /tmp/cchFZ4o5.s:131    .text:000000000000006e .Loc.45
     /tmp/cchFZ4o5.s:132    .text:000000000000006e .Loc.46
     /tmp/cchFZ4o5.s:133    .text:000000000000006e .Loc.47
     /tmp/cchFZ4o5.s:138    .text:000000000000007a .Loc.48
     /tmp/cchFZ4o5.s:140    .text:000000000000007c .Loc.49
     /tmp/cchFZ4o5.s:142    .text:000000000000007e .Loc.50
     /tmp/cchFZ4o5.s:143    .text:000000000000007e .Loc.51
     /tmp/cchFZ4o5.s:147    .text:0000000000000086 .Loc.52
     /tmp/cchFZ4o5.s:149    .text:0000000000000088 .Loc.53
     /tmp/cchFZ4o5.s:151    .text:000000000000008a .Loc.54
     /tmp/cchFZ4o5.s:152    .text:000000000000008a .Loc.55
     /tmp/cchFZ4o5.s:153    .text:000000000000008a .Loc.56
     /tmp/cchFZ4o5.s:155    .text:000000000000008c .Loc.57
     /tmp/cchFZ4o5.s:158    .text:0000000000000090 .Loc.58
     /tmp/cchFZ4o5.s:160    .text:0000000000000092 .Loc.59
     /tmp/cchFZ4o5.s:162    .text:0000000000000094 .Loc.60
     /tmp/cchFZ4o5.s:164    .text:0000000000000096 .Loc.61
     /tmp/cchFZ4o5.s:165    .text:0000000000000096 .Loc.62
     /tmp/cchFZ4o5.s:167    .text:0000000000000098 .Loc.63
     /tmp/cchFZ4o5.s:169    .text:000000000000009a .Loc.64
     /tmp/cchFZ4o5.s:171    .text:000000000000009c .Loc.65
     /tmp/cchFZ4o5.s:172    .text:000000000000009c .Loc.66
     /tmp/cchFZ4o5.s:174    .text:000000000000009e .Loc.67
     /tmp/cchFZ4o5.s:176    .text:00000000000000a0 .Loc.68
     /tmp/cchFZ4o5.s:178    .text:00000000000000a2 .Loc.69
     /tmp/cchFZ4o5.s:179    .text:00000000000000a2 .Loc.70
     /tmp/cchFZ4o5.s:180    .text:00000000000000a2 .Loc.71
     /tmp/cchFZ4o5.s:185    .text:00000000000000ae .Loc.72
     /tmp/cchFZ4o5.s:187    .text:00000000000000b0 .Loc.73
     /tmp/cchFZ4o5.s:189    .text:00000000000000b2 .Loc.74
     /tmp/cchFZ4o5.s:190    .text:00000000000000b2 .Loc.75
     /tmp/cchFZ4o5.s:194    .text:00000000000000ba .Loc.76
     /tmp/cchFZ4o5.s:196    .text:00000000000000bc .Loc.77
     /tmp/cchFZ4o5.s:198    .text:00000000000000be .Loc.78
     /tmp/cchFZ4o5.s:199    .text:00000000000000be .Loc.79
     /tmp/cchFZ4o5.s:201    .text:00000000000000be .Loc.80
     /tmp/cchFZ4o5.s:204    .text:00000000000000c0 .Loc.81
     /tmp/cchFZ4o5.s:205    .text:00000000000000c0 .Loc.82
     /tmp/cchFZ4o5.s:209    .text:00000000000000c6 .Loc.83
     /tmp/cchFZ4o5.s:210    .text:00000000000000c6 .Loc.84
     /tmp/cchFZ4o5.s:215    .text:00000000000000d2 .Loc.85
     /tmp/cchFZ4o5.s:216    .text:00000000000000d2 .Loc.86
     /tmp/cchFZ4o5.s:221    .text:00000000000000de .Loc.87
     /tmp/cchFZ4o5.s:225    .text:00000000000000e2 .Loc.88
     /tmp/cchFZ4o5.s:226    .text:00000000000000e2 .Loc.89
     /tmp/cchFZ4o5.s:230    .text:00000000000000e8 .Loc.90
     /tmp/cchFZ4o5.s:231    .text:00000000000000e8 .Loc.91
     /tmp/cchFZ4o5.s:236    .text:00000000000000f4 .Loc.92
     /tmp/cchFZ4o5.s:237    .text:00000000000000f4 .Loc.93
     /tmp/cchFZ4o5.s:242    .text:0000000000000100 .Loc.94
     /tmp/cchFZ4o5.s:246    .text:0000000000000104 .Loc.95
     /tmp/cchFZ4o5.s:247    .text:0000000000000104 .Loc.96
     /tmp/cchFZ4o5.s:250    .text:000000000000010a L0
     /tmp/cchFZ4o5.s:252    .text:000000000000010c .Loc.97
     /tmp/cchFZ4o5.s:253    .text:000000000000010c .Loc.98
GAS LISTING /tmp/cchFZ4o5.s 			page 90


     /tmp/cchFZ4o5.s:258    .text:0000000000000118 .Loc.99
     /tmp/cchFZ4o5.s:259    .text:0000000000000118 .Loc.100
     /tmp/cchFZ4o5.s:264    .text:0000000000000124 .Loc.101
     /tmp/cchFZ4o5.s:267    .text:0000000000000128 L0
     /tmp/cchFZ4o5.s:272    .text:0000000000000128 fill_rectangle
     /tmp/cchFZ4o5.s:275    .text:0000000000000128 .Loc.102
     /tmp/cchFZ4o5.s:276    .text:0000000000000128 L0
     /tmp/cchFZ4o5.s:277    .text:0000000000000128 .Loc.103
     /tmp/cchFZ4o5.s:317    .text:0000000000000158 .Loc.104
     /tmp/cchFZ4o5.s:321    .text:000000000000015c .Loc.105
     /tmp/cchFZ4o5.s:325    .text:0000000000000160 .Loc.106
     /tmp/cchFZ4o5.s:326    .text:0000000000000160 .Loc.107
     /tmp/cchFZ4o5.s:328    .text:0000000000000162 .Loc.108
     /tmp/cchFZ4o5.s:331    .text:0000000000000166 .Loc.109
     /tmp/cchFZ4o5.s:333    .text:0000000000000168 .Loc.110
     /tmp/cchFZ4o5.s:335    .text:000000000000016a .Loc.111
     /tmp/cchFZ4o5.s:337    .text:000000000000016c .Loc.112
     /tmp/cchFZ4o5.s:338    .text:000000000000016c .Loc.113
     /tmp/cchFZ4o5.s:340    .text:000000000000016e .Loc.114
     /tmp/cchFZ4o5.s:342    .text:0000000000000170 .Loc.115
     /tmp/cchFZ4o5.s:344    .text:0000000000000172 .Loc.116
     /tmp/cchFZ4o5.s:345    .text:0000000000000172 .Loc.117
     /tmp/cchFZ4o5.s:347    .text:0000000000000174 .Loc.118
     /tmp/cchFZ4o5.s:349    .text:0000000000000176 .Loc.119
     /tmp/cchFZ4o5.s:351    .text:0000000000000178 .Loc.120
     /tmp/cchFZ4o5.s:352    .text:0000000000000178 .Loc.121
     /tmp/cchFZ4o5.s:353    .text:0000000000000178 .Loc.122
     /tmp/cchFZ4o5.s:355    .text:000000000000017a .Loc.123
     /tmp/cchFZ4o5.s:357    .text:000000000000017c .Loc.124
     /tmp/cchFZ4o5.s:359    .text:000000000000017e .Loc.125
     /tmp/cchFZ4o5.s:360    .text:000000000000017e .Loc.126
     /tmp/cchFZ4o5.s:362    .text:0000000000000180 .Loc.127
     /tmp/cchFZ4o5.s:364    .text:0000000000000182 .Loc.128
     /tmp/cchFZ4o5.s:366    .text:0000000000000184 .Loc.129
     /tmp/cchFZ4o5.s:367    .text:0000000000000184 .Loc.130
     /tmp/cchFZ4o5.s:368    .text:0000000000000184 .Loc.131
     /tmp/cchFZ4o5.s:370    .text:0000000000000186 .Loc.132
     /tmp/cchFZ4o5.s:373    .text:000000000000018a .Loc.133
     /tmp/cchFZ4o5.s:375    .text:000000000000018c .Loc.134
     /tmp/cchFZ4o5.s:377    .text:000000000000018e .Loc.135
     /tmp/cchFZ4o5.s:379    .text:0000000000000190 .Loc.136
     /tmp/cchFZ4o5.s:380    .text:0000000000000190 .Loc.137
     /tmp/cchFZ4o5.s:382    .text:0000000000000192 .Loc.138
     /tmp/cchFZ4o5.s:384    .text:0000000000000194 .Loc.139
     /tmp/cchFZ4o5.s:386    .text:0000000000000196 .Loc.140
     /tmp/cchFZ4o5.s:387    .text:0000000000000196 .Loc.141
     /tmp/cchFZ4o5.s:389    .text:0000000000000198 .Loc.142
     /tmp/cchFZ4o5.s:391    .text:000000000000019a .Loc.143
     /tmp/cchFZ4o5.s:393    .text:000000000000019c .Loc.144
     /tmp/cchFZ4o5.s:394    .text:000000000000019c .Loc.145
     /tmp/cchFZ4o5.s:395    .text:000000000000019c .Loc.146
     /tmp/cchFZ4o5.s:397    .text:000000000000019e .Loc.147
     /tmp/cchFZ4o5.s:399    .text:00000000000001a0 .Loc.148
     /tmp/cchFZ4o5.s:401    .text:00000000000001a2 .Loc.149
     /tmp/cchFZ4o5.s:402    .text:00000000000001a2 .Loc.150
     /tmp/cchFZ4o5.s:404    .text:00000000000001a4 .Loc.151
     /tmp/cchFZ4o5.s:406    .text:00000000000001a6 .Loc.152
GAS LISTING /tmp/cchFZ4o5.s 			page 91


     /tmp/cchFZ4o5.s:408    .text:00000000000001a8 .Loc.153
     /tmp/cchFZ4o5.s:409    .text:00000000000001a8 .Loc.154
     /tmp/cchFZ4o5.s:410    .text:00000000000001a8 .Loc.155
     /tmp/cchFZ4o5.s:412    .text:00000000000001aa .Loc.156
     /tmp/cchFZ4o5.s:415    .text:00000000000001ae .Loc.157
     /tmp/cchFZ4o5.s:417    .text:00000000000001b0 .Loc.158
     /tmp/cchFZ4o5.s:419    .text:00000000000001b2 .Loc.159
     /tmp/cchFZ4o5.s:421    .text:00000000000001b4 .Loc.160
     /tmp/cchFZ4o5.s:422    .text:00000000000001b4 .Loc.161
     /tmp/cchFZ4o5.s:425    .text:00000000000001b4 .Loc.162
     /tmp/cchFZ4o5.s:430    .text:00000000000001ba .Loc.163
     /tmp/cchFZ4o5.s:442    .text:00000000000001ce .Loc.164
     /tmp/cchFZ4o5.s:446    .text:00000000000001d0 .Loc.165
     /tmp/cchFZ4o5.s:448    .text:00000000000001d2 .Loc.166
     /tmp/cchFZ4o5.s:450    .text:00000000000001d4 .Loc.167
     /tmp/cchFZ4o5.s:452    .text:00000000000001d6 .Loc.168
     /tmp/cchFZ4o5.s:453    .text:00000000000001d6 .Loc.169
     /tmp/cchFZ4o5.s:455    .text:00000000000001d8 .Loc.170
     /tmp/cchFZ4o5.s:457    .text:00000000000001da .Loc.171
     /tmp/cchFZ4o5.s:459    .text:00000000000001dc .Loc.172
     /tmp/cchFZ4o5.s:460    .text:00000000000001dc .Loc.173
     /tmp/cchFZ4o5.s:465    .text:00000000000001e0 .Loc.174
     /tmp/cchFZ4o5.s:469    .text:00000000000001e6 .Loc.175
     /tmp/cchFZ4o5.s:472    .text:00000000000001e8 .Loc.176
     /tmp/cchFZ4o5.s:476    .text:00000000000001ea .Loc.177
     /tmp/cchFZ4o5.s:479    .text:00000000000001ee L0
     /tmp/cchFZ4o5.s:484    .text:00000000000001ee fill_rectangle_indexed
     /tmp/cchFZ4o5.s:487    .text:00000000000001ee .Loc.178
     /tmp/cchFZ4o5.s:488    .text:00000000000001ee L0
     /tmp/cchFZ4o5.s:489    .text:00000000000001ee .Loc.179
     /tmp/cchFZ4o5.s:529    .text:000000000000021e .Loc.180
     /tmp/cchFZ4o5.s:533    .text:0000000000000222 .Loc.181
     /tmp/cchFZ4o5.s:537    .text:0000000000000226 .Loc.182
     /tmp/cchFZ4o5.s:538    .text:0000000000000226 .Loc.183
     /tmp/cchFZ4o5.s:540    .text:0000000000000228 .Loc.184
     /tmp/cchFZ4o5.s:543    .text:000000000000022c .Loc.185
     /tmp/cchFZ4o5.s:545    .text:000000000000022e .Loc.186
     /tmp/cchFZ4o5.s:547    .text:0000000000000230 .Loc.187
     /tmp/cchFZ4o5.s:549    .text:0000000000000232 .Loc.188
     /tmp/cchFZ4o5.s:550    .text:0000000000000232 .Loc.189
     /tmp/cchFZ4o5.s:552    .text:0000000000000234 .Loc.190
     /tmp/cchFZ4o5.s:554    .text:0000000000000236 .Loc.191
     /tmp/cchFZ4o5.s:556    .text:0000000000000238 .Loc.192
     /tmp/cchFZ4o5.s:557    .text:0000000000000238 .Loc.193
     /tmp/cchFZ4o5.s:559    .text:000000000000023a .Loc.194
     /tmp/cchFZ4o5.s:561    .text:000000000000023c .Loc.195
     /tmp/cchFZ4o5.s:563    .text:000000000000023e .Loc.196
     /tmp/cchFZ4o5.s:564    .text:000000000000023e .Loc.197
     /tmp/cchFZ4o5.s:565    .text:000000000000023e .Loc.198
     /tmp/cchFZ4o5.s:567    .text:0000000000000240 .Loc.199
     /tmp/cchFZ4o5.s:569    .text:0000000000000242 .Loc.200
     /tmp/cchFZ4o5.s:571    .text:0000000000000244 .Loc.201
     /tmp/cchFZ4o5.s:572    .text:0000000000000244 .Loc.202
     /tmp/cchFZ4o5.s:574    .text:0000000000000246 .Loc.203
     /tmp/cchFZ4o5.s:576    .text:0000000000000248 .Loc.204
     /tmp/cchFZ4o5.s:578    .text:000000000000024a .Loc.205
     /tmp/cchFZ4o5.s:579    .text:000000000000024a .Loc.206
GAS LISTING /tmp/cchFZ4o5.s 			page 92


     /tmp/cchFZ4o5.s:580    .text:000000000000024a .Loc.207
     /tmp/cchFZ4o5.s:582    .text:000000000000024c .Loc.208
     /tmp/cchFZ4o5.s:585    .text:0000000000000250 .Loc.209
     /tmp/cchFZ4o5.s:587    .text:0000000000000252 .Loc.210
     /tmp/cchFZ4o5.s:589    .text:0000000000000254 .Loc.211
     /tmp/cchFZ4o5.s:591    .text:0000000000000256 .Loc.212
     /tmp/cchFZ4o5.s:592    .text:0000000000000256 .Loc.213
     /tmp/cchFZ4o5.s:594    .text:0000000000000258 .Loc.214
     /tmp/cchFZ4o5.s:596    .text:000000000000025a .Loc.215
     /tmp/cchFZ4o5.s:598    .text:000000000000025c .Loc.216
     /tmp/cchFZ4o5.s:599    .text:000000000000025c .Loc.217
     /tmp/cchFZ4o5.s:601    .text:000000000000025e .Loc.218
     /tmp/cchFZ4o5.s:603    .text:0000000000000260 .Loc.219
     /tmp/cchFZ4o5.s:605    .text:0000000000000262 .Loc.220
     /tmp/cchFZ4o5.s:606    .text:0000000000000262 .Loc.221
     /tmp/cchFZ4o5.s:607    .text:0000000000000262 .Loc.222
     /tmp/cchFZ4o5.s:609    .text:0000000000000264 .Loc.223
     /tmp/cchFZ4o5.s:611    .text:0000000000000266 .Loc.224
     /tmp/cchFZ4o5.s:613    .text:0000000000000268 .Loc.225
     /tmp/cchFZ4o5.s:614    .text:0000000000000268 .Loc.226
     /tmp/cchFZ4o5.s:616    .text:000000000000026a .Loc.227
     /tmp/cchFZ4o5.s:618    .text:000000000000026c .Loc.228
     /tmp/cchFZ4o5.s:620    .text:000000000000026e .Loc.229
     /tmp/cchFZ4o5.s:621    .text:000000000000026e .Loc.230
     /tmp/cchFZ4o5.s:622    .text:000000000000026e .Loc.231
     /tmp/cchFZ4o5.s:624    .text:0000000000000270 .Loc.232
     /tmp/cchFZ4o5.s:627    .text:0000000000000274 .Loc.233
     /tmp/cchFZ4o5.s:629    .text:0000000000000276 .Loc.234
     /tmp/cchFZ4o5.s:631    .text:0000000000000278 .Loc.235
     /tmp/cchFZ4o5.s:633    .text:000000000000027a .Loc.236
     /tmp/cchFZ4o5.s:634    .text:000000000000027a .Loc.237
     /tmp/cchFZ4o5.s:637    .text:000000000000027a .Loc.238
     /tmp/cchFZ4o5.s:641    .text:0000000000000280 .Loc.239
     /tmp/cchFZ4o5.s:643    .text:0000000000000282 .Loc.240
     /tmp/cchFZ4o5.s:649    .text:0000000000000288 .Loc.241
     /tmp/cchFZ4o5.s:650    .text:0000000000000288 .Loc.242
     /tmp/cchFZ4o5.s:653    .text:000000000000028c .Loc.243
     /tmp/cchFZ4o5.s:655    .text:000000000000028e .Loc.244
     /tmp/cchFZ4o5.s:657    .text:0000000000000290 .Loc.245
     /tmp/cchFZ4o5.s:658    .text:0000000000000290 .Loc.246
     /tmp/cchFZ4o5.s:660    .text:0000000000000290 .Loc.247
     /tmp/cchFZ4o5.s:663    .text:0000000000000294 .Loc.248
     /tmp/cchFZ4o5.s:665    .text:0000000000000296 .Loc.249
     /tmp/cchFZ4o5.s:667    .text:0000000000000298 .Loc.250
     /tmp/cchFZ4o5.s:668    .text:0000000000000298 .Loc.251
     /tmp/cchFZ4o5.s:671    .text:000000000000029a .Loc.252
     /tmp/cchFZ4o5.s:675    .text:000000000000029c .Loc.253
     /tmp/cchFZ4o5.s:678    .text:000000000000029e .Loc.254
     /tmp/cchFZ4o5.s:682    .text:00000000000002a4 .Loc.255
     /tmp/cchFZ4o5.s:686    .text:00000000000002a8 .Loc.256
     /tmp/cchFZ4o5.s:691    .text:00000000000002aa .Loc.257
     /tmp/cchFZ4o5.s:702    .text:00000000000002bc .Loc.258
     /tmp/cchFZ4o5.s:704    .text:00000000000002be .Loc.259
     /tmp/cchFZ4o5.s:706    .text:00000000000002c0 L0
     /tmp/cchFZ4o5.s:711    .text:00000000000002c0 init_graphics
     /tmp/cchFZ4o5.s:713    .text:00000000000002c0 .Loc.260
     /tmp/cchFZ4o5.s:714    .text:00000000000002c0 L0
GAS LISTING /tmp/cchFZ4o5.s 			page 93


     /tmp/cchFZ4o5.s:719    .text:00000000000002c0 .Loc.261
     /tmp/cchFZ4o5.s:720    .text:00000000000002c0 .Loc.262
     /tmp/cchFZ4o5.s:722    .text:00000000000002c2 .Loc.263
     /tmp/cchFZ4o5.s:725    .text:00000000000002c6 .Loc.264
     /tmp/cchFZ4o5.s:727    .text:00000000000002c8 .Loc.265
     /tmp/cchFZ4o5.s:729    .text:00000000000002ca .Loc.266
     /tmp/cchFZ4o5.s:731    .text:00000000000002cc .Loc.267
     /tmp/cchFZ4o5.s:732    .text:00000000000002cc .Loc.268
     /tmp/cchFZ4o5.s:734    .text:00000000000002ce .Loc.269
     /tmp/cchFZ4o5.s:736    .text:00000000000002d0 .Loc.270
     /tmp/cchFZ4o5.s:738    .text:00000000000002d2 .Loc.271
     /tmp/cchFZ4o5.s:739    .text:00000000000002d2 .Loc.272
     /tmp/cchFZ4o5.s:741    .text:00000000000002d4 .Loc.273
     /tmp/cchFZ4o5.s:743    .text:00000000000002d6 .Loc.274
     /tmp/cchFZ4o5.s:745    .text:00000000000002d8 .Loc.275
     /tmp/cchFZ4o5.s:746    .text:00000000000002d8 .Loc.276
     /tmp/cchFZ4o5.s:747    .text:00000000000002d8 .Loc.277
     /tmp/cchFZ4o5.s:749    .text:00000000000002da .Loc.278
     /tmp/cchFZ4o5.s:751    .text:00000000000002dc .Loc.279
     /tmp/cchFZ4o5.s:753    .text:00000000000002de .Loc.280
     /tmp/cchFZ4o5.s:754    .text:00000000000002de .Loc.281
     /tmp/cchFZ4o5.s:757    .text:00000000000002e2 .Loc.282
     /tmp/cchFZ4o5.s:759    .text:00000000000002e4 .Loc.283
     /tmp/cchFZ4o5.s:761    .text:00000000000002e6 .Loc.284
     /tmp/cchFZ4o5.s:762    .text:00000000000002e6 .Loc.285
     /tmp/cchFZ4o5.s:763    .text:00000000000002e6 .Loc.286
     /tmp/cchFZ4o5.s:765    .text:00000000000002e8 .Loc.287
     /tmp/cchFZ4o5.s:768    .text:00000000000002ec .Loc.288
     /tmp/cchFZ4o5.s:770    .text:00000000000002ee .Loc.289
     /tmp/cchFZ4o5.s:772    .text:00000000000002f0 .Loc.290
     /tmp/cchFZ4o5.s:774    .text:00000000000002f2 .Loc.291
     /tmp/cchFZ4o5.s:775    .text:00000000000002f2 .Loc.292
     /tmp/cchFZ4o5.s:777    .text:00000000000002f4 .Loc.293
     /tmp/cchFZ4o5.s:779    .text:00000000000002f6 .Loc.294
     /tmp/cchFZ4o5.s:781    .text:00000000000002f8 .Loc.295
     /tmp/cchFZ4o5.s:782    .text:00000000000002f8 .Loc.296
     /tmp/cchFZ4o5.s:784    .text:00000000000002fa .Loc.297
     /tmp/cchFZ4o5.s:786    .text:00000000000002fc .Loc.298
     /tmp/cchFZ4o5.s:788    .text:00000000000002fe .Loc.299
     /tmp/cchFZ4o5.s:789    .text:00000000000002fe .Loc.300
     /tmp/cchFZ4o5.s:790    .text:00000000000002fe .Loc.301
     /tmp/cchFZ4o5.s:793    .text:0000000000000302 .Loc.302
     /tmp/cchFZ4o5.s:795    .text:0000000000000304 .Loc.303
     /tmp/cchFZ4o5.s:797    .text:0000000000000306 .Loc.304
     /tmp/cchFZ4o5.s:798    .text:0000000000000306 .Loc.305
     /tmp/cchFZ4o5.s:801    .text:000000000000030a .Loc.306
     /tmp/cchFZ4o5.s:803    .text:000000000000030c .Loc.307
     /tmp/cchFZ4o5.s:805    .text:000000000000030e .Loc.308
     /tmp/cchFZ4o5.s:806    .text:000000000000030e .Loc.309
     /tmp/cchFZ4o5.s:807    .text:000000000000030e .Loc.310
     /tmp/cchFZ4o5.s:809    .text:0000000000000310 .Loc.311
     /tmp/cchFZ4o5.s:812    .text:0000000000000314 .Loc.312
     /tmp/cchFZ4o5.s:814    .text:0000000000000316 .Loc.313
     /tmp/cchFZ4o5.s:816    .text:0000000000000318 .Loc.314
     /tmp/cchFZ4o5.s:818    .text:000000000000031a .Loc.315
     /tmp/cchFZ4o5.s:819    .text:000000000000031a .Loc.316
     /tmp/cchFZ4o5.s:821    .text:000000000000031a .Loc.317
GAS LISTING /tmp/cchFZ4o5.s 			page 94


     /tmp/cchFZ4o5.s:824    .text:000000000000031e .Loc.318
     /tmp/cchFZ4o5.s:829    .text:0000000000000322 .Loc.319
     /tmp/cchFZ4o5.s:830    .text:0000000000000322 .Loc.320
     /tmp/cchFZ4o5.s:832    .text:0000000000000324 .Loc.321
     /tmp/cchFZ4o5.s:837    .text:0000000000000328 .Loc.322
     /tmp/cchFZ4o5.s:839    .text:0000000000000328 .Loc.323
     /tmp/cchFZ4o5.s:840    .text:0000000000000328 .Loc.324
     /tmp/cchFZ4o5.s:841    .text:0000000000000328 .Loc.325
     /tmp/cchFZ4o5.s:850    .text:000000000000032e .Loc.326
     /tmp/cchFZ4o5.s:854    .text:0000000000000330 .Loc.327
     /tmp/cchFZ4o5.s:856    .text:0000000000000332 .Loc.328
     /tmp/cchFZ4o5.s:858    .text:0000000000000334 .Loc.329
     /tmp/cchFZ4o5.s:859    .text:0000000000000334 .Loc.330
     /tmp/cchFZ4o5.s:861    .text:0000000000000334 .Loc.331
     /tmp/cchFZ4o5.s:863    .text:0000000000000334 .Loc.332
     /tmp/cchFZ4o5.s:864    .text:0000000000000334 .Loc.333
     /tmp/cchFZ4o5.s:873    .text:000000000000033a .Loc.334
     /tmp/cchFZ4o5.s:877    .text:000000000000033c .Loc.335
     /tmp/cchFZ4o5.s:879    .text:000000000000033e .Loc.336
     /tmp/cchFZ4o5.s:881    .text:0000000000000340 .Loc.337
     /tmp/cchFZ4o5.s:882    .text:0000000000000340 .Loc.338
     /tmp/cchFZ4o5.s:883    .text:0000000000000340 .Loc.339
     /tmp/cchFZ4o5.s:885    .text:0000000000000340 .Loc.340
     /tmp/cchFZ4o5.s:887    .text:0000000000000340 .Loc.341
     /tmp/cchFZ4o5.s:888    .text:0000000000000340 .Loc.342
     /tmp/cchFZ4o5.s:897    .text:0000000000000346 .Loc.343
     /tmp/cchFZ4o5.s:901    .text:0000000000000348 .Loc.344
     /tmp/cchFZ4o5.s:903    .text:000000000000034a .Loc.345
     /tmp/cchFZ4o5.s:905    .text:000000000000034c .Loc.346
     /tmp/cchFZ4o5.s:906    .text:000000000000034c .Loc.347
     /tmp/cchFZ4o5.s:908    .text:000000000000034c .Loc.348
     /tmp/cchFZ4o5.s:910    .text:000000000000034c .Loc.349
     /tmp/cchFZ4o5.s:911    .text:000000000000034c .Loc.350
     /tmp/cchFZ4o5.s:920    .text:0000000000000352 .Loc.351
     /tmp/cchFZ4o5.s:924    .text:0000000000000354 .Loc.352
     /tmp/cchFZ4o5.s:926    .text:0000000000000356 .Loc.353
     /tmp/cchFZ4o5.s:928    .text:0000000000000358 .Loc.354
     /tmp/cchFZ4o5.s:929    .text:0000000000000358 .Loc.355
     /tmp/cchFZ4o5.s:930    .text:0000000000000358 .Loc.356
     /tmp/cchFZ4o5.s:934    .text:000000000000035c .Loc.357
     /tmp/cchFZ4o5.s:940    .text:0000000000000366 .Loc.358
     /tmp/cchFZ4o5.s:945    .text:000000000000036a .Loc.359
     /tmp/cchFZ4o5.s:947    .text:000000000000036a .Loc.360
     /tmp/cchFZ4o5.s:948    .text:000000000000036a .Loc.361
     /tmp/cchFZ4o5.s:949    .text:000000000000036a .Loc.362
     /tmp/cchFZ4o5.s:958    .text:0000000000000370 .Loc.363
     /tmp/cchFZ4o5.s:962    .text:0000000000000372 .Loc.364
     /tmp/cchFZ4o5.s:964    .text:0000000000000374 .Loc.365
     /tmp/cchFZ4o5.s:966    .text:0000000000000376 .Loc.366
     /tmp/cchFZ4o5.s:967    .text:0000000000000376 .Loc.367
     /tmp/cchFZ4o5.s:969    .text:0000000000000376 .Loc.368
     /tmp/cchFZ4o5.s:971    .text:0000000000000376 .Loc.369
     /tmp/cchFZ4o5.s:972    .text:0000000000000376 .Loc.370
     /tmp/cchFZ4o5.s:981    .text:000000000000037c .Loc.371
     /tmp/cchFZ4o5.s:985    .text:000000000000037e .Loc.372
     /tmp/cchFZ4o5.s:987    .text:0000000000000380 .Loc.373
     /tmp/cchFZ4o5.s:989    .text:0000000000000382 .Loc.374
GAS LISTING /tmp/cchFZ4o5.s 			page 95


     /tmp/cchFZ4o5.s:990    .text:0000000000000382 .Loc.375
     /tmp/cchFZ4o5.s:991    .text:0000000000000382 .Loc.376
     /tmp/cchFZ4o5.s:993    .text:0000000000000382 .Loc.377
     /tmp/cchFZ4o5.s:995    .text:0000000000000382 .Loc.378
     /tmp/cchFZ4o5.s:996    .text:0000000000000382 .Loc.379
     /tmp/cchFZ4o5.s:1005   .text:0000000000000388 .Loc.380
     /tmp/cchFZ4o5.s:1009   .text:000000000000038a .Loc.381
     /tmp/cchFZ4o5.s:1011   .text:000000000000038c .Loc.382
     /tmp/cchFZ4o5.s:1013   .text:000000000000038e .Loc.383
     /tmp/cchFZ4o5.s:1014   .text:000000000000038e .Loc.384
     /tmp/cchFZ4o5.s:1016   .text:000000000000038e .Loc.385
     /tmp/cchFZ4o5.s:1018   .text:000000000000038e .Loc.386
     /tmp/cchFZ4o5.s:1019   .text:000000000000038e .Loc.387
     /tmp/cchFZ4o5.s:1028   .text:0000000000000394 .Loc.388
     /tmp/cchFZ4o5.s:1032   .text:0000000000000396 .Loc.389
     /tmp/cchFZ4o5.s:1034   .text:0000000000000398 .Loc.390
     /tmp/cchFZ4o5.s:1036   .text:000000000000039a .Loc.391
     /tmp/cchFZ4o5.s:1037   .text:000000000000039a .Loc.392
     /tmp/cchFZ4o5.s:1038   .text:000000000000039a .Loc.393
     /tmp/cchFZ4o5.s:1042   .text:000000000000039e .Loc.394
     /tmp/cchFZ4o5.s:1047   .text:00000000000003a6 .Loc.395
     /tmp/cchFZ4o5.s:1048   .text:00000000000003a6 .Loc.396
     /tmp/cchFZ4o5.s:1056   .text:00000000000003b6 L0
     /tmp/cchFZ4o5.s:1058   .text:00000000000003b8 .Loc.397
     /tmp/cchFZ4o5.s:1060   .text:00000000000003ba .Loc.398
     /tmp/cchFZ4o5.s:1063   .text:00000000000003be .Loc.399
     /tmp/cchFZ4o5.s:1065   .text:00000000000003c0 .Loc.400
     /tmp/cchFZ4o5.s:1067   .text:00000000000003c2 .Loc.401
     /tmp/cchFZ4o5.s:1069   .text:00000000000003c4 .Loc.402
     /tmp/cchFZ4o5.s:1070   .text:00000000000003c4 .Loc.403
     /tmp/cchFZ4o5.s:1072   .text:00000000000003c6 .Loc.404
     /tmp/cchFZ4o5.s:1074   .text:00000000000003c8 .Loc.405
     /tmp/cchFZ4o5.s:1076   .text:00000000000003ca .Loc.406
     /tmp/cchFZ4o5.s:1077   .text:00000000000003ca .Loc.407
     /tmp/cchFZ4o5.s:1079   .text:00000000000003cc .Loc.408
     /tmp/cchFZ4o5.s:1081   .text:00000000000003ce .Loc.409
     /tmp/cchFZ4o5.s:1083   .text:00000000000003d0 .Loc.410
     /tmp/cchFZ4o5.s:1084   .text:00000000000003d0 .Loc.411
     /tmp/cchFZ4o5.s:1085   .text:00000000000003d0 .Loc.412
     /tmp/cchFZ4o5.s:1087   .text:00000000000003d2 .Loc.413
     /tmp/cchFZ4o5.s:1089   .text:00000000000003d4 .Loc.414
     /tmp/cchFZ4o5.s:1091   .text:00000000000003d6 .Loc.415
     /tmp/cchFZ4o5.s:1092   .text:00000000000003d6 .Loc.416
     /tmp/cchFZ4o5.s:1095   .text:00000000000003da .Loc.417
     /tmp/cchFZ4o5.s:1097   .text:00000000000003dc .Loc.418
     /tmp/cchFZ4o5.s:1099   .text:00000000000003de .Loc.419
     /tmp/cchFZ4o5.s:1100   .text:00000000000003de .Loc.420
     /tmp/cchFZ4o5.s:1101   .text:00000000000003de .Loc.421
     /tmp/cchFZ4o5.s:1103   .text:00000000000003e0 .Loc.422
     /tmp/cchFZ4o5.s:1106   .text:00000000000003e4 .Loc.423
     /tmp/cchFZ4o5.s:1108   .text:00000000000003e6 .Loc.424
     /tmp/cchFZ4o5.s:1110   .text:00000000000003e8 .Loc.425
     /tmp/cchFZ4o5.s:1112   .text:00000000000003ea .Loc.426
     /tmp/cchFZ4o5.s:1113   .text:00000000000003ea .Loc.427
     /tmp/cchFZ4o5.s:1115   .text:00000000000003ec .Loc.428
     /tmp/cchFZ4o5.s:1117   .text:00000000000003ee .Loc.429
     /tmp/cchFZ4o5.s:1119   .text:00000000000003f0 .Loc.430
GAS LISTING /tmp/cchFZ4o5.s 			page 96


     /tmp/cchFZ4o5.s:1120   .text:00000000000003f0 .Loc.431
     /tmp/cchFZ4o5.s:1123   .text:00000000000003f4 .Loc.432
     /tmp/cchFZ4o5.s:1125   .text:00000000000003f6 .Loc.433
     /tmp/cchFZ4o5.s:1127   .text:00000000000003f8 .Loc.434
     /tmp/cchFZ4o5.s:1128   .text:00000000000003f8 .Loc.435
     /tmp/cchFZ4o5.s:1129   .text:00000000000003f8 .Loc.436
     /tmp/cchFZ4o5.s:1132   .text:00000000000003fc .Loc.437
     /tmp/cchFZ4o5.s:1134   .text:00000000000003fe .Loc.438
     /tmp/cchFZ4o5.s:1136   .text:0000000000000400 .Loc.439
     /tmp/cchFZ4o5.s:1137   .text:0000000000000400 .Loc.440
     /tmp/cchFZ4o5.s:1140   .text:0000000000000404 .Loc.441
     /tmp/cchFZ4o5.s:1142   .text:0000000000000406 .Loc.442
     /tmp/cchFZ4o5.s:1144   .text:0000000000000408 .Loc.443
     /tmp/cchFZ4o5.s:1145   .text:0000000000000408 .Loc.444
     /tmp/cchFZ4o5.s:1146   .text:0000000000000408 .Loc.445
     /tmp/cchFZ4o5.s:1148   .text:000000000000040a .Loc.446
     /tmp/cchFZ4o5.s:1151   .text:000000000000040e .Loc.447
     /tmp/cchFZ4o5.s:1153   .text:0000000000000410 .Loc.448
     /tmp/cchFZ4o5.s:1155   .text:0000000000000412 .Loc.449
     /tmp/cchFZ4o5.s:1157   .text:0000000000000414 .Loc.450
     /tmp/cchFZ4o5.s:1158   .text:0000000000000414 .Loc.451
     /tmp/cchFZ4o5.s:1160   .text:0000000000000414 .Loc.452
     /tmp/cchFZ4o5.s:1163   .text:0000000000000418 .Loc.453
     /tmp/cchFZ4o5.s:1168   .text:000000000000041c .Loc.454
     /tmp/cchFZ4o5.s:1169   .text:000000000000041c .Loc.455
     /tmp/cchFZ4o5.s:1171   .text:000000000000041e .Loc.456
     /tmp/cchFZ4o5.s:1176   .text:0000000000000422 .Loc.457
     /tmp/cchFZ4o5.s:1178   .text:0000000000000422 .Loc.458
     /tmp/cchFZ4o5.s:1179   .text:0000000000000422 .Loc.459
     /tmp/cchFZ4o5.s:1180   .text:0000000000000422 .Loc.460
     /tmp/cchFZ4o5.s:1189   .text:0000000000000428 .Loc.461
     /tmp/cchFZ4o5.s:1193   .text:000000000000042a .Loc.462
     /tmp/cchFZ4o5.s:1195   .text:000000000000042c .Loc.463
     /tmp/cchFZ4o5.s:1197   .text:000000000000042e .Loc.464
     /tmp/cchFZ4o5.s:1198   .text:000000000000042e .Loc.465
     /tmp/cchFZ4o5.s:1200   .text:000000000000042e .Loc.466
     /tmp/cchFZ4o5.s:1202   .text:000000000000042e .Loc.467
     /tmp/cchFZ4o5.s:1203   .text:000000000000042e .Loc.468
     /tmp/cchFZ4o5.s:1212   .text:0000000000000434 .Loc.469
     /tmp/cchFZ4o5.s:1216   .text:0000000000000436 .Loc.470
     /tmp/cchFZ4o5.s:1218   .text:0000000000000438 .Loc.471
     /tmp/cchFZ4o5.s:1220   .text:000000000000043a .Loc.472
     /tmp/cchFZ4o5.s:1221   .text:000000000000043a .Loc.473
     /tmp/cchFZ4o5.s:1222   .text:000000000000043a .Loc.474
     /tmp/cchFZ4o5.s:1224   .text:000000000000043a .Loc.475
     /tmp/cchFZ4o5.s:1226   .text:000000000000043a .Loc.476
     /tmp/cchFZ4o5.s:1227   .text:000000000000043a .Loc.477
     /tmp/cchFZ4o5.s:1236   .text:0000000000000440 .Loc.478
     /tmp/cchFZ4o5.s:1240   .text:0000000000000442 .Loc.479
     /tmp/cchFZ4o5.s:1242   .text:0000000000000444 .Loc.480
     /tmp/cchFZ4o5.s:1244   .text:0000000000000446 .Loc.481
     /tmp/cchFZ4o5.s:1245   .text:0000000000000446 .Loc.482
     /tmp/cchFZ4o5.s:1247   .text:0000000000000446 .Loc.483
     /tmp/cchFZ4o5.s:1249   .text:0000000000000446 .Loc.484
     /tmp/cchFZ4o5.s:1250   .text:0000000000000446 .Loc.485
     /tmp/cchFZ4o5.s:1259   .text:000000000000044c .Loc.486
     /tmp/cchFZ4o5.s:1263   .text:000000000000044e .Loc.487
GAS LISTING /tmp/cchFZ4o5.s 			page 97


     /tmp/cchFZ4o5.s:1265   .text:0000000000000450 .Loc.488
     /tmp/cchFZ4o5.s:1267   .text:0000000000000452 .Loc.489
     /tmp/cchFZ4o5.s:1268   .text:0000000000000452 .Loc.490
     /tmp/cchFZ4o5.s:1269   .text:0000000000000452 .Loc.491
     /tmp/cchFZ4o5.s:1273   .text:0000000000000456 .Loc.492
     /tmp/cchFZ4o5.s:1279   .text:0000000000000460 .Loc.493
     /tmp/cchFZ4o5.s:1284   .text:0000000000000464 .Loc.494
     /tmp/cchFZ4o5.s:1286   .text:0000000000000464 .Loc.495
     /tmp/cchFZ4o5.s:1287   .text:0000000000000464 .Loc.496
     /tmp/cchFZ4o5.s:1288   .text:0000000000000464 .Loc.497
     /tmp/cchFZ4o5.s:1297   .text:000000000000046a .Loc.498
     /tmp/cchFZ4o5.s:1301   .text:000000000000046c .Loc.499
     /tmp/cchFZ4o5.s:1303   .text:000000000000046e .Loc.500
     /tmp/cchFZ4o5.s:1305   .text:0000000000000470 .Loc.501
     /tmp/cchFZ4o5.s:1306   .text:0000000000000470 .Loc.502
     /tmp/cchFZ4o5.s:1308   .text:0000000000000470 .Loc.503
     /tmp/cchFZ4o5.s:1310   .text:0000000000000470 .Loc.504
     /tmp/cchFZ4o5.s:1311   .text:0000000000000470 .Loc.505
     /tmp/cchFZ4o5.s:1320   .text:0000000000000476 .Loc.506
     /tmp/cchFZ4o5.s:1324   .text:0000000000000478 .Loc.507
     /tmp/cchFZ4o5.s:1326   .text:000000000000047a .Loc.508
     /tmp/cchFZ4o5.s:1328   .text:000000000000047c .Loc.509
     /tmp/cchFZ4o5.s:1329   .text:000000000000047c .Loc.510
     /tmp/cchFZ4o5.s:1330   .text:000000000000047c .Loc.511
     /tmp/cchFZ4o5.s:1332   .text:000000000000047c .Loc.512
     /tmp/cchFZ4o5.s:1334   .text:000000000000047c .Loc.513
     /tmp/cchFZ4o5.s:1335   .text:000000000000047c .Loc.514
     /tmp/cchFZ4o5.s:1344   .text:0000000000000482 .Loc.515
     /tmp/cchFZ4o5.s:1348   .text:0000000000000484 .Loc.516
     /tmp/cchFZ4o5.s:1350   .text:0000000000000486 .Loc.517
     /tmp/cchFZ4o5.s:1352   .text:0000000000000488 .Loc.518
     /tmp/cchFZ4o5.s:1353   .text:0000000000000488 .Loc.519
     /tmp/cchFZ4o5.s:1355   .text:0000000000000488 .Loc.520
     /tmp/cchFZ4o5.s:1357   .text:0000000000000488 .Loc.521
     /tmp/cchFZ4o5.s:1358   .text:0000000000000488 .Loc.522
     /tmp/cchFZ4o5.s:1367   .text:000000000000048e .Loc.523
     /tmp/cchFZ4o5.s:1371   .text:0000000000000490 .Loc.524
     /tmp/cchFZ4o5.s:1373   .text:0000000000000492 .Loc.525
     /tmp/cchFZ4o5.s:1375   .text:0000000000000494 .Loc.526
     /tmp/cchFZ4o5.s:1376   .text:0000000000000494 .Loc.527
     /tmp/cchFZ4o5.s:1377   .text:0000000000000494 .Loc.528
     /tmp/cchFZ4o5.s:1381   .text:0000000000000498 .Loc.529
     /tmp/cchFZ4o5.s:1386   .text:00000000000004a0 .Loc.530
     /tmp/cchFZ4o5.s:1387   .text:00000000000004a0 .Loc.531
     /tmp/cchFZ4o5.s:1395   .text:00000000000004b0 L0
     /tmp/cchFZ4o5.s:1398   .text:00000000000004b2 .Loc.532
     /tmp/cchFZ4o5.s:1400   .text:00000000000004b4 L0
     /tmp/cchFZ4o5.s:1405   .text:00000000000004b4 clear_screen
     /tmp/cchFZ4o5.s:1407   .text:00000000000004b4 .Loc.533
     /tmp/cchFZ4o5.s:1408   .text:00000000000004b4 L0
     /tmp/cchFZ4o5.s:1435   .text:00000000000004cc .Loc.534
     /tmp/cchFZ4o5.s:1436   .text:00000000000004cc .Loc.535
     /tmp/cchFZ4o5.s:1441   .text:00000000000004d4 .Loc.536
     /tmp/cchFZ4o5.s:1442   .text:00000000000004d4 .Loc.537
     /tmp/cchFZ4o5.s:1445   .text:00000000000004d8 .Loc.538
     /tmp/cchFZ4o5.s:1446   .text:00000000000004d8 .Loc.539
     /tmp/cchFZ4o5.s:1450   .text:00000000000004de .Loc.540
GAS LISTING /tmp/cchFZ4o5.s 			page 98


     /tmp/cchFZ4o5.s:1452   .text:00000000000004e0 .Loc.541
     /tmp/cchFZ4o5.s:1456   .text:00000000000004e6 .Loc.542
     /tmp/cchFZ4o5.s:1467   .text:00000000000004f8 .Loc.543
     /tmp/cchFZ4o5.s:1479   .text:000000000000050e L0
     /tmp/cchFZ4o5.s:1484   .text:000000000000050e display_char
     /tmp/cchFZ4o5.s:1487   .text:000000000000050e .Loc.544
     /tmp/cchFZ4o5.s:1488   .text:000000000000050e L0
     /tmp/cchFZ4o5.s:1489   .text:000000000000050e .Loc.545
     /tmp/cchFZ4o5.s:1524   .text:0000000000000522 .Loc.546
     /tmp/cchFZ4o5.s:1525   .text:0000000000000522 .Loc.547
     /tmp/cchFZ4o5.s:1526   .text:0000000000000522 .Loc.548
     /tmp/cchFZ4o5.s:1527   .text:0000000000000522 .Loc.549
     /tmp/cchFZ4o5.s:1528   .text:0000000000000522 .Loc.550
     /tmp/cchFZ4o5.s:1532   .text:000000000000052a .Loc.551
     /tmp/cchFZ4o5.s:1536   .text:0000000000000532 .Loc.552
     /tmp/cchFZ4o5.s:1537   .text:0000000000000532 .Loc.553
     /tmp/cchFZ4o5.s:1542   .text:000000000000053a .Loc.554
     /tmp/cchFZ4o5.s:1544   .text:000000000000053e L0
     /tmp/cchFZ4o5.s:1546   .text:0000000000000540 .Loc.555
     /tmp/cchFZ4o5.s:1551   .text:0000000000000546 .Loc.556
     /tmp/cchFZ4o5.s:1555   .text:000000000000054a .Loc.557
     /tmp/cchFZ4o5.s:1556   .text:000000000000054a .Loc.558
     /tmp/cchFZ4o5.s:1558   .text:000000000000054c .Loc.559
     /tmp/cchFZ4o5.s:1561   .text:0000000000000550 .Loc.560
     /tmp/cchFZ4o5.s:1563   .text:0000000000000552 .Loc.561
     /tmp/cchFZ4o5.s:1565   .text:0000000000000554 .Loc.562
     /tmp/cchFZ4o5.s:1567   .text:0000000000000556 .Loc.563
     /tmp/cchFZ4o5.s:1568   .text:0000000000000556 .Loc.564
     /tmp/cchFZ4o5.s:1570   .text:0000000000000558 .Loc.565
     /tmp/cchFZ4o5.s:1572   .text:000000000000055a .Loc.566
     /tmp/cchFZ4o5.s:1574   .text:000000000000055c .Loc.567
     /tmp/cchFZ4o5.s:1575   .text:000000000000055c .Loc.568
     /tmp/cchFZ4o5.s:1577   .text:000000000000055e .Loc.569
     /tmp/cchFZ4o5.s:1579   .text:0000000000000560 .Loc.570
     /tmp/cchFZ4o5.s:1581   .text:0000000000000562 .Loc.571
     /tmp/cchFZ4o5.s:1582   .text:0000000000000562 .Loc.572
     /tmp/cchFZ4o5.s:1583   .text:0000000000000562 .Loc.573
     /tmp/cchFZ4o5.s:1585   .text:0000000000000564 .Loc.574
     /tmp/cchFZ4o5.s:1587   .text:0000000000000566 .Loc.575
     /tmp/cchFZ4o5.s:1589   .text:0000000000000568 .Loc.576
     /tmp/cchFZ4o5.s:1590   .text:0000000000000568 .Loc.577
     /tmp/cchFZ4o5.s:1592   .text:000000000000056a .Loc.578
     /tmp/cchFZ4o5.s:1594   .text:000000000000056c .Loc.579
     /tmp/cchFZ4o5.s:1596   .text:000000000000056e .Loc.580
     /tmp/cchFZ4o5.s:1597   .text:000000000000056e .Loc.581
     /tmp/cchFZ4o5.s:1598   .text:000000000000056e .Loc.582
     /tmp/cchFZ4o5.s:1600   .text:000000000000056e .Loc.583
     /tmp/cchFZ4o5.s:1604   .text:0000000000000572 .Loc.584
     /tmp/cchFZ4o5.s:1612   .text:0000000000000580 .Loc.585
     /tmp/cchFZ4o5.s:1615   .text:0000000000000584 .Loc.586
     /tmp/cchFZ4o5.s:1618   .text:0000000000000588 .Loc.587
     /tmp/cchFZ4o5.s:1623   .text:000000000000058c .Loc.588
     /tmp/cchFZ4o5.s:1624   .text:000000000000058c .Loc.589
     /tmp/cchFZ4o5.s:1626   .text:000000000000058e .Loc.590
     /tmp/cchFZ4o5.s:1630   .text:0000000000000594 .Loc.591
     /tmp/cchFZ4o5.s:1631   .text:0000000000000594 .Loc.592
     /tmp/cchFZ4o5.s:1634   .text:0000000000000598 .Loc.593
GAS LISTING /tmp/cchFZ4o5.s 			page 99


     /tmp/cchFZ4o5.s:1636   .text:000000000000059a .Loc.594
     /tmp/cchFZ4o5.s:1638   .text:000000000000059c .Loc.595
     /tmp/cchFZ4o5.s:1640   .text:000000000000059e .Loc.596
     /tmp/cchFZ4o5.s:1641   .text:000000000000059e .Loc.597
     /tmp/cchFZ4o5.s:1643   .text:00000000000005a0 .Loc.598
     /tmp/cchFZ4o5.s:1645   .text:00000000000005a2 .Loc.599
     /tmp/cchFZ4o5.s:1647   .text:00000000000005a4 .Loc.600
     /tmp/cchFZ4o5.s:1648   .text:00000000000005a4 .Loc.601
     /tmp/cchFZ4o5.s:1650   .text:00000000000005a6 .Loc.602
     /tmp/cchFZ4o5.s:1652   .text:00000000000005a8 .Loc.603
     /tmp/cchFZ4o5.s:1654   .text:00000000000005aa .Loc.604
     /tmp/cchFZ4o5.s:1655   .text:00000000000005aa .Loc.605
     /tmp/cchFZ4o5.s:1656   .text:00000000000005aa .Loc.606
     /tmp/cchFZ4o5.s:1658   .text:00000000000005ac .Loc.607
     /tmp/cchFZ4o5.s:1660   .text:00000000000005ae .Loc.608
     /tmp/cchFZ4o5.s:1662   .text:00000000000005b0 .Loc.609
     /tmp/cchFZ4o5.s:1663   .text:00000000000005b0 .Loc.610
     /tmp/cchFZ4o5.s:1665   .text:00000000000005b2 .Loc.611
     /tmp/cchFZ4o5.s:1667   .text:00000000000005b4 .Loc.612
     /tmp/cchFZ4o5.s:1669   .text:00000000000005b6 .Loc.613
     /tmp/cchFZ4o5.s:1670   .text:00000000000005b6 .Loc.614
     /tmp/cchFZ4o5.s:1671   .text:00000000000005b6 .Loc.615
     /tmp/cchFZ4o5.s:1673   .text:00000000000005b8 .Loc.616
     /tmp/cchFZ4o5.s:1676   .text:00000000000005bc .Loc.617
     /tmp/cchFZ4o5.s:1678   .text:00000000000005be .Loc.618
     /tmp/cchFZ4o5.s:1680   .text:00000000000005c0 .Loc.619
     /tmp/cchFZ4o5.s:1682   .text:00000000000005c2 .Loc.620
     /tmp/cchFZ4o5.s:1683   .text:00000000000005c2 .Loc.621
     /tmp/cchFZ4o5.s:1686   .text:00000000000005c2 .Loc.622
     /tmp/cchFZ4o5.s:1689   .text:00000000000005c8 L0
     /tmp/cchFZ4o5.s:1691   .text:00000000000005ca .Loc.623
     /tmp/cchFZ4o5.s:1692   .text:00000000000005ca .Loc.624
     /tmp/cchFZ4o5.s:1693   .text:00000000000005ca .Loc.625
     /tmp/cchFZ4o5.s:1697   .text:00000000000005ce .Loc.626
     /tmp/cchFZ4o5.s:1701   .text:00000000000005d6 .Loc.627
     /tmp/cchFZ4o5.s:1702   .text:00000000000005d6 .Loc.628
     /tmp/cchFZ4o5.s:1706   .text:00000000000005de .Loc.629
     /tmp/cchFZ4o5.s:1710   .text:00000000000005e4 .Loc.630
     /tmp/cchFZ4o5.s:1711   .text:00000000000005e4 .Loc.631
     /tmp/cchFZ4o5.s:1714   .text:00000000000005ec .Loc.632
     /tmp/cchFZ4o5.s:1715   .text:00000000000005ec .Loc.633
     /tmp/cchFZ4o5.s:1718   .text:00000000000005ee .Loc.634
     /tmp/cchFZ4o5.s:1724   .text:00000000000005f6 .Loc.635
     /tmp/cchFZ4o5.s:1738   .text:000000000000060c .Loc.636
     /tmp/cchFZ4o5.s:1739   .text:000000000000060c .Loc.637
     /tmp/cchFZ4o5.s:1741   .text:000000000000060e .Loc.638
     /tmp/cchFZ4o5.s:1743   .text:0000000000000610 .Loc.639
     /tmp/cchFZ4o5.s:1745   .text:0000000000000612 .Loc.640
     /tmp/cchFZ4o5.s:1747   .text:0000000000000614 .Loc.641
     /tmp/cchFZ4o5.s:1748   .text:0000000000000614 .Loc.642
     /tmp/cchFZ4o5.s:1750   .text:0000000000000616 .Loc.643
     /tmp/cchFZ4o5.s:1752   .text:0000000000000618 .Loc.644
     /tmp/cchFZ4o5.s:1754   .text:000000000000061a .Loc.645
     /tmp/cchFZ4o5.s:1755   .text:000000000000061a .Loc.646
     /tmp/cchFZ4o5.s:1757   .text:000000000000061c .Loc.647
     /tmp/cchFZ4o5.s:1759   .text:000000000000061e .Loc.648
     /tmp/cchFZ4o5.s:1761   .text:0000000000000620 .Loc.649
GAS LISTING /tmp/cchFZ4o5.s 			page 100


     /tmp/cchFZ4o5.s:1762   .text:0000000000000620 .Loc.650
     /tmp/cchFZ4o5.s:1763   .text:0000000000000620 .Loc.651
     /tmp/cchFZ4o5.s:1765   .text:0000000000000622 .Loc.652
     /tmp/cchFZ4o5.s:1767   .text:0000000000000624 .Loc.653
     /tmp/cchFZ4o5.s:1769   .text:0000000000000626 .Loc.654
     /tmp/cchFZ4o5.s:1770   .text:0000000000000626 .Loc.655
     /tmp/cchFZ4o5.s:1772   .text:0000000000000628 .Loc.656
     /tmp/cchFZ4o5.s:1774   .text:000000000000062a .Loc.657
     /tmp/cchFZ4o5.s:1776   .text:000000000000062c .Loc.658
     /tmp/cchFZ4o5.s:1777   .text:000000000000062c .Loc.659
     /tmp/cchFZ4o5.s:1778   .text:000000000000062c .Loc.660
     /tmp/cchFZ4o5.s:1780   .text:000000000000062e .Loc.661
     /tmp/cchFZ4o5.s:1782   .text:0000000000000630 .Loc.662
     /tmp/cchFZ4o5.s:1784   .text:0000000000000632 .Loc.663
     /tmp/cchFZ4o5.s:1786   .text:0000000000000634 .Loc.664
     /tmp/cchFZ4o5.s:1788   .text:0000000000000636 .Loc.665
     /tmp/cchFZ4o5.s:1789   .text:0000000000000636 .Loc.666
     /tmp/cchFZ4o5.s:1791   .text:0000000000000636 .Loc.667
     /tmp/cchFZ4o5.s:1793   .text:0000000000000636 .Loc.668
     /tmp/cchFZ4o5.s:1794   .text:0000000000000636 .Loc.669
     /tmp/cchFZ4o5.s:1801   .text:0000000000000638 .Loc.670
     /tmp/cchFZ4o5.s:1802   .text:0000000000000638 .Loc.671
     /tmp/cchFZ4o5.s:1805   .text:0000000000000638 .Loc.672
     /tmp/cchFZ4o5.s:1806   .text:0000000000000638 .Loc.673
     /tmp/cchFZ4o5.s:1808   .text:000000000000063a .Loc.674
     /tmp/cchFZ4o5.s:1813   .text:000000000000063e .Loc.675
     /tmp/cchFZ4o5.s:1817   .text:0000000000000644 .Loc.676
     /tmp/cchFZ4o5.s:1818   .text:0000000000000644 .Loc.677
     /tmp/cchFZ4o5.s:1822   .text:0000000000000648 .Loc.678
     /tmp/cchFZ4o5.s:1825   .text:000000000000064a .Loc.679
     /tmp/cchFZ4o5.s:1829   .text:000000000000064c .Loc.680
     /tmp/cchFZ4o5.s:1835   .text:0000000000000658 .Loc.681
     /tmp/cchFZ4o5.s:1838   .text:000000000000065c .Loc.682
     /tmp/cchFZ4o5.s:1840   .text:000000000000065e .Loc.683
     /tmp/cchFZ4o5.s:1842   .text:0000000000000660 .Loc.684
     /tmp/cchFZ4o5.s:1844   .text:0000000000000662 .Loc.685
     /tmp/cchFZ4o5.s:1845   .text:0000000000000662 .Loc.686
     /tmp/cchFZ4o5.s:1848   .text:0000000000000666 .Loc.687
     /tmp/cchFZ4o5.s:1851   .text:000000000000066a .Loc.688
     /tmp/cchFZ4o5.s:1853   .text:000000000000066c .Loc.689
     /tmp/cchFZ4o5.s:1855   .text:000000000000066e .Loc.690
     /tmp/cchFZ4o5.s:1857   .text:0000000000000670 .Loc.691
     /tmp/cchFZ4o5.s:1858   .text:0000000000000670 .Loc.692
     /tmp/cchFZ4o5.s:1859   .text:0000000000000670 .Loc.693
     /tmp/cchFZ4o5.s:1862   .text:0000000000000672 .Loc.694
     /tmp/cchFZ4o5.s:1865   .text:0000000000000674 .Loc.695
     /tmp/cchFZ4o5.s:1868   .text:0000000000000676 .Loc.696
     /tmp/cchFZ4o5.s:1873   .text:000000000000067c .Loc.697
     /tmp/cchFZ4o5.s:1876   .text:0000000000000682 .Loc.698
     /tmp/cchFZ4o5.s:1878   .text:0000000000000684 .Loc.699
     /tmp/cchFZ4o5.s:1880   .text:0000000000000686 .Loc.700
     /tmp/cchFZ4o5.s:1881   .text:0000000000000686 .Loc.701
     /tmp/cchFZ4o5.s:1884   .text:000000000000068c .Loc.702
     /tmp/cchFZ4o5.s:1886   .text:000000000000068e .Loc.703
     /tmp/cchFZ4o5.s:1888   .text:0000000000000690 .Loc.704
     /tmp/cchFZ4o5.s:1889   .text:0000000000000690 .Loc.705
     /tmp/cchFZ4o5.s:1893   .text:0000000000000694 .Loc.706
GAS LISTING /tmp/cchFZ4o5.s 			page 101


     /tmp/cchFZ4o5.s:1895   .text:0000000000000696 L0
     /tmp/cchFZ4o5.s:1900   .text:0000000000000696 display_string
     /tmp/cchFZ4o5.s:1903   .text:0000000000000696 .Loc.707
     /tmp/cchFZ4o5.s:1904   .text:0000000000000696 L0
     /tmp/cchFZ4o5.s:1905   .text:0000000000000696 .Loc.708
     /tmp/cchFZ4o5.s:1920   .text:000000000000069e .Loc.709
     /tmp/cchFZ4o5.s:1921   .text:000000000000069e .Loc.710
     /tmp/cchFZ4o5.s:1923   .text:000000000000069e .Loc.711
     /tmp/cchFZ4o5.s:1927   .text:00000000000006a0 .Loc.712
     /tmp/cchFZ4o5.s:1928   .text:00000000000006a0 .Loc.713
     /tmp/cchFZ4o5.s:1933   .text:00000000000006a8 .Loc.714
     /tmp/cchFZ4o5.s:1937   .text:00000000000006ac .Loc.715
     /tmp/cchFZ4o5.s:1941   .text:00000000000006b0 .Loc.716
     /tmp/cchFZ4o5.s:1944   .text:00000000000006b2 .Loc.717
     /tmp/cchFZ4o5.s:1948   .text:00000000000006b4 .Loc.718
     /tmp/cchFZ4o5.s:1951   .text:00000000000006b8 .Loc.719
     /tmp/cchFZ4o5.s:1954   .text:00000000000006ba .Loc.720
     /tmp/cchFZ4o5.s:1956   .text:00000000000006bc L0
     /tmp/cchFZ4o5.s:1978   .text:00000000000006bc L0
                     .debug_frame:0000000000000000 L0
     /tmp/cchFZ4o5.s:203    .text:00000000000000c0 .L3
     /tmp/cchFZ4o5.s:224    .text:00000000000000e2 .L5
     /tmp/cchFZ4o5.s:97     .text:0000000000000050 .L7
     /tmp/cchFZ4o5.s:245    .text:0000000000000104 .L6
     /tmp/cchFZ4o5.s:104    .text:0000000000000056 .L4
     /tmp/cchFZ4o5.s:475    .text:00000000000001ea .L12
     /tmp/cchFZ4o5.s:445    .text:00000000000001d0 .L10
     /tmp/cchFZ4o5.s:424    .text:00000000000001b4 .L9
     /tmp/cchFZ4o5.s:464    .text:00000000000001e0 .L11
     /tmp/cchFZ4o5.s:689    .text:00000000000002aa .L13
     /tmp/cchFZ4o5.s:674    .text:000000000000029c .L17
     /tmp/cchFZ4o5.s:648    .text:0000000000000288 .L15
     /tmp/cchFZ4o5.s:636    .text:000000000000027a .L14
     /tmp/cchFZ4o5.s:836    .text:0000000000000328 .L20
     /tmp/cchFZ4o5.s:944    .text:000000000000036a .L21
     /tmp/cchFZ4o5.s:828    .text:0000000000000322 .L19
     /tmp/cchFZ4o5.s:1175   .text:0000000000000422 .L24
     /tmp/cchFZ4o5.s:1283   .text:0000000000000464 .L25
     /tmp/cchFZ4o5.s:1167   .text:000000000000041c .L23
     /tmp/cchFZ4o5.s:1722   .text:00000000000005f6 .L32
     /tmp/cchFZ4o5.s:1737   .text:000000000000060c .L42
     /tmp/cchFZ4o5.s:1872   .text:000000000000067c .L44
     /tmp/cchFZ4o5.s:1828   .text:000000000000064c .L41
     /tmp/cchFZ4o5.s:1622   .text:000000000000058c .L35
     /tmp/cchFZ4o5.s:1837   .text:000000000000065c .L38
     /tmp/cchFZ4o5.s:1867   .text:0000000000000676 .L39
     /tmp/cchFZ4o5.s:1812   .text:000000000000063e .L36
     /tmp/cchFZ4o5.s:1850   .text:000000000000066a .L40
     /tmp/cchFZ4o5.s:1685   .text:00000000000005c2 .L43
     /tmp/cchFZ4o5.s:1947   .text:00000000000006b4 .L48
     /tmp/cchFZ4o5.s:1926   .text:00000000000006a0 .L47
     /tmp/cchFZ4o5.s:2775   .debug_abbrev:0000000000000000 .Ldebug_abbrev0
     /tmp/cchFZ4o5.s:8      .text:0000000000000000 .Ltext0
     /tmp/cchFZ4o5.s:1972   .text:00000000000006bc .Letext0
     /tmp/cchFZ4o5.s:4420   .debug_line:0000000000000000 .Ldebug_line0
     /tmp/cchFZ4o5.s:1902   .text:0000000000000696 .LFB8
     /tmp/cchFZ4o5.s:1957   .text:00000000000006bc .LFE8
GAS LISTING /tmp/cchFZ4o5.s 			page 102


     /tmp/cchFZ4o5.s:3265   .debug_loclists:0000000000000014 .LLST38
     /tmp/cchFZ4o5.s:3256   .debug_loclists:000000000000000c .LVUS38
     /tmp/cchFZ4o5.s:3312   .debug_loclists:0000000000000049 .LLST39
     /tmp/cchFZ4o5.s:3305   .debug_loclists:0000000000000043 .LVUS39
     /tmp/cchFZ4o5.s:1950   .text:00000000000006b8 .LVL98
     /tmp/cchFZ4o5.s:1486   .text:000000000000050e .LFB7
     /tmp/cchFZ4o5.s:1896   .text:0000000000000696 .LFE7
     /tmp/cchFZ4o5.s:3335   .debug_loclists:0000000000000064 .LLST27
     /tmp/cchFZ4o5.s:3330   .debug_loclists:0000000000000060 .LVUS27
     /tmp/cchFZ4o5.s:3355   .debug_loclists:000000000000007a .LLST28
     /tmp/cchFZ4o5.s:3350   .debug_loclists:0000000000000076 .LVUS28
     /tmp/cchFZ4o5.s:3386   .debug_loclists:000000000000009b .LLST29
     /tmp/cchFZ4o5.s:3377   .debug_loclists:0000000000000093 .LVUS29
     /tmp/cchFZ4o5.s:3431   .debug_loclists:00000000000000ce .LLST30
     /tmp/cchFZ4o5.s:3428   .debug_loclists:00000000000000cc .LVUS30
     /tmp/cchFZ4o5.s:3443   .debug_loclists:00000000000000da .LLST31
     /tmp/cchFZ4o5.s:3438   .debug_loclists:00000000000000d6 .LVUS31
     /tmp/cchFZ4o5.s:3467   .debug_loclists:00000000000000f4 .LLST32
     /tmp/cchFZ4o5.s:3456   .debug_loclists:00000000000000ea .LVUS32
     /tmp/cchFZ4o5.s:3519   .debug_loclists:0000000000000133 .LLST33
     /tmp/cchFZ4o5.s:3512   .debug_loclists:000000000000012d .LVUS33
     /tmp/cchFZ4o5.s:3559   .debug_loclists:000000000000015f .LLST34
     /tmp/cchFZ4o5.s:3548   .debug_loclists:0000000000000155 .LVUS34
     /tmp/cchFZ4o5.s:3614   .debug_loclists:00000000000001a1 .LLST35
     /tmp/cchFZ4o5.s:3607   .debug_loclists:000000000000019b .LVUS35
     /tmp/cchFZ4o5.s:1790   .text:0000000000000636 .LBB18
     /tmp/cchFZ4o5.s:1804   .text:0000000000000638 .LBE18
     /tmp/cchFZ4o5.s:3650   .debug_loclists:00000000000001c9 .LLST36
     /tmp/cchFZ4o5.s:3643   .debug_loclists:00000000000001c3 .LVUS36
     /tmp/cchFZ4o5.s:3682   .debug_loclists:00000000000001ed .LLST37
     /tmp/cchFZ4o5.s:3679   .debug_loclists:00000000000001eb .LVUS37
     /tmp/cchFZ4o5.s:1406   .text:00000000000004b4 .LFB6
     /tmp/cchFZ4o5.s:1480   .text:000000000000050e .LFE6
     /tmp/cchFZ4o5.s:1465   .text:00000000000004f8 .LVL66
     /tmp/cchFZ4o5.s:712    .text:00000000000002c0 .LFB5
     /tmp/cchFZ4o5.s:1401   .text:00000000000004b4 .LFE5
     /tmp/cchFZ4o5.s:3698   .debug_loclists:00000000000001fd .LLST9
     /tmp/cchFZ4o5.s:3689   .debug_loclists:00000000000001f5 .LVUS9
     /tmp/cchFZ4o5.s:3737   .debug_loclists:000000000000022a .LLST10
     /tmp/cchFZ4o5.s:3732   .debug_loclists:0000000000000226 .LVUS10
     /tmp/cchFZ4o5.s:838    .text:0000000000000328 .LBB2
     /tmp/cchFZ4o5.s:852    .text:000000000000032e .LBE2
     /tmp/cchFZ4o5.s:3754   .debug_loclists:000000000000023d .LLST11
     /tmp/cchFZ4o5.s:3751   .debug_loclists:000000000000023b .LVUS11
     /tmp/cchFZ4o5.s:860    .text:0000000000000334 .LBB3
     /tmp/cchFZ4o5.s:875    .text:000000000000033a .LBE3
     /tmp/cchFZ4o5.s:3769   .debug_loclists:000000000000024c .LLST12
     /tmp/cchFZ4o5.s:3766   .debug_loclists:000000000000024a .LVUS12
     /tmp/cchFZ4o5.s:884    .text:0000000000000340 .LBB4
     /tmp/cchFZ4o5.s:899    .text:0000000000000346 .LBE4
     /tmp/cchFZ4o5.s:3784   .debug_loclists:000000000000025b .LLST13
     /tmp/cchFZ4o5.s:3781   .debug_loclists:0000000000000259 .LVUS13
     /tmp/cchFZ4o5.s:907    .text:000000000000034c .LBB5
     /tmp/cchFZ4o5.s:922    .text:0000000000000352 .LBE5
     /tmp/cchFZ4o5.s:3799   .debug_loclists:000000000000026a .LLST14
     /tmp/cchFZ4o5.s:3796   .debug_loclists:0000000000000268 .LVUS14
     /tmp/cchFZ4o5.s:946    .text:000000000000036a .LBB6
GAS LISTING /tmp/cchFZ4o5.s 			page 103


     /tmp/cchFZ4o5.s:960    .text:0000000000000370 .LBE6
     /tmp/cchFZ4o5.s:3814   .debug_loclists:0000000000000279 .LLST15
     /tmp/cchFZ4o5.s:3811   .debug_loclists:0000000000000277 .LVUS15
     /tmp/cchFZ4o5.s:968    .text:0000000000000376 .LBB7
     /tmp/cchFZ4o5.s:983    .text:000000000000037c .LBE7
     /tmp/cchFZ4o5.s:3829   .debug_loclists:0000000000000288 .LLST16
     /tmp/cchFZ4o5.s:3826   .debug_loclists:0000000000000286 .LVUS16
     /tmp/cchFZ4o5.s:992    .text:0000000000000382 .LBB8
     /tmp/cchFZ4o5.s:1007   .text:0000000000000388 .LBE8
     /tmp/cchFZ4o5.s:3844   .debug_loclists:0000000000000297 .LLST17
     /tmp/cchFZ4o5.s:3841   .debug_loclists:0000000000000295 .LVUS17
     /tmp/cchFZ4o5.s:1015   .text:000000000000038e .LBB9
     /tmp/cchFZ4o5.s:1030   .text:0000000000000394 .LBE9
     /tmp/cchFZ4o5.s:3859   .debug_loclists:00000000000002a6 .LLST18
     /tmp/cchFZ4o5.s:3856   .debug_loclists:00000000000002a4 .LVUS18
     /tmp/cchFZ4o5.s:1177   .text:0000000000000422 .LBB10
     /tmp/cchFZ4o5.s:1191   .text:0000000000000428 .LBE10
     /tmp/cchFZ4o5.s:3874   .debug_loclists:00000000000002b5 .LLST19
     /tmp/cchFZ4o5.s:3871   .debug_loclists:00000000000002b3 .LVUS19
     /tmp/cchFZ4o5.s:1199   .text:000000000000042e .LBB11
     /tmp/cchFZ4o5.s:1214   .text:0000000000000434 .LBE11
     /tmp/cchFZ4o5.s:3889   .debug_loclists:00000000000002c4 .LLST20
     /tmp/cchFZ4o5.s:3886   .debug_loclists:00000000000002c2 .LVUS20
     /tmp/cchFZ4o5.s:1223   .text:000000000000043a .LBB12
     /tmp/cchFZ4o5.s:1238   .text:0000000000000440 .LBE12
     /tmp/cchFZ4o5.s:3904   .debug_loclists:00000000000002d3 .LLST21
     /tmp/cchFZ4o5.s:3901   .debug_loclists:00000000000002d1 .LVUS21
     /tmp/cchFZ4o5.s:1246   .text:0000000000000446 .LBB13
     /tmp/cchFZ4o5.s:1261   .text:000000000000044c .LBE13
     /tmp/cchFZ4o5.s:3919   .debug_loclists:00000000000002e2 .LLST22
     /tmp/cchFZ4o5.s:3916   .debug_loclists:00000000000002e0 .LVUS22
     /tmp/cchFZ4o5.s:1285   .text:0000000000000464 .LBB14
     /tmp/cchFZ4o5.s:1299   .text:000000000000046a .LBE14
     /tmp/cchFZ4o5.s:3934   .debug_loclists:00000000000002f1 .LLST23
     /tmp/cchFZ4o5.s:3931   .debug_loclists:00000000000002ef .LVUS23
     /tmp/cchFZ4o5.s:1307   .text:0000000000000470 .LBB15
     /tmp/cchFZ4o5.s:1322   .text:0000000000000476 .LBE15
     /tmp/cchFZ4o5.s:3949   .debug_loclists:0000000000000300 .LLST24
     /tmp/cchFZ4o5.s:3946   .debug_loclists:00000000000002fe .LVUS24
     /tmp/cchFZ4o5.s:1331   .text:000000000000047c .LBB16
     /tmp/cchFZ4o5.s:1346   .text:0000000000000482 .LBE16
     /tmp/cchFZ4o5.s:3964   .debug_loclists:000000000000030f .LLST25
     /tmp/cchFZ4o5.s:3961   .debug_loclists:000000000000030d .LVUS25
     /tmp/cchFZ4o5.s:1354   .text:0000000000000488 .LBB17
     /tmp/cchFZ4o5.s:1369   .text:000000000000048e .LBE17
     /tmp/cchFZ4o5.s:3979   .debug_loclists:000000000000031e .LLST26
     /tmp/cchFZ4o5.s:3976   .debug_loclists:000000000000031c .LVUS26
     /tmp/cchFZ4o5.s:486    .text:00000000000001ee .LFB4
     /tmp/cchFZ4o5.s:707    .text:00000000000002c0 .LFE4
     /tmp/cchFZ4o5.s:4000   .debug_loclists:0000000000000333 .LLST5
     /tmp/cchFZ4o5.s:3991   .debug_loclists:000000000000032b .LVUS5
     /tmp/cchFZ4o5.s:4105   .debug_loclists:00000000000003a2 .LLST6
     /tmp/cchFZ4o5.s:4090   .debug_loclists:0000000000000394 .LVUS6
     /tmp/cchFZ4o5.s:4174   .debug_loclists:00000000000003f3 .LLST7
     /tmp/cchFZ4o5.s:4171   .debug_loclists:00000000000003f1 .LVUS7
     /tmp/cchFZ4o5.s:4191   .debug_loclists:0000000000000404 .LLST8
     /tmp/cchFZ4o5.s:4186   .debug_loclists:0000000000000400 .LVUS8
GAS LISTING /tmp/cchFZ4o5.s 			page 104


     /tmp/cchFZ4o5.s:274    .text:0000000000000128 .LFB3
     /tmp/cchFZ4o5.s:480    .text:00000000000001ee .LFE3
     /tmp/cchFZ4o5.s:4222   .debug_loclists:0000000000000425 .LLST1
     /tmp/cchFZ4o5.s:4213   .debug_loclists:000000000000041d .LVUS1
     /tmp/cchFZ4o5.s:4319   .debug_loclists:000000000000048c .LLST2
     /tmp/cchFZ4o5.s:4312   .debug_loclists:0000000000000486 .LVUS2
     /tmp/cchFZ4o5.s:4352   .debug_loclists:00000000000004b1 .LLST3
     /tmp/cchFZ4o5.s:4349   .debug_loclists:00000000000004af .LVUS3
     /tmp/cchFZ4o5.s:4367   .debug_loclists:00000000000004c0 .LLST4
     /tmp/cchFZ4o5.s:4364   .debug_loclists:00000000000004be .LVUS4
     /tmp/cchFZ4o5.s:50     .text:0000000000000018 .LFB2
     /tmp/cchFZ4o5.s:268    .text:0000000000000128 .LFE2
     /tmp/cchFZ4o5.s:4384   .debug_loclists:00000000000004d1 .LLST0
     /tmp/cchFZ4o5.s:4379   .debug_loclists:00000000000004cd .LVUS0
     /tmp/cchFZ4o5.s:14     .text:0000000000000000 .LFB1
     /tmp/cchFZ4o5.s:44     .text:0000000000000018 .LFE1
     /tmp/cchFZ4o5.s:42     .text:0000000000000018 .LVL0
     /tmp/cchFZ4o5.s:1979   .debug_info:0000000000000000 .Ldebug_info0

UNDEFINED SYMBOLS
init_display_controller
bg1_1
bg1_2
font5x7
__do_copy_data
