GAS LISTING /tmp/ccfDWI1C.s 			page 1


   1               		.file	"lcd.c"
   2               	__SP_H__ = 0x3e
   3               	__SP_L__ = 0x3d
   4               	__SREG__ = 0x3f
   5               	__tmp_reg__ = 0
   6               	__zero_reg__ = 1
   7               		.stabs	"/home/kaicho/Southampton/sotond5/sotond5/liblcd/",100,0,2,.Ltext0
   8               		.stabs	"lcd.c",100,0,2,.Ltext0
   9               		.text
  10               	.Ltext0:
  11               		.stabs	"gcc2_compiled.",60,0,0,0
  12               		.stabs	"init_lcd:F(0,1)=(0,1)",36,0,14,init_lcd
  13               		.stabs	"uint8_t:t(0,2)=(0,3)=@s8;r(0,3);0;255;",128,0,126,0
  14               		.stabs	"void:t(0,1)",128,0,0,0
  15               		.stabs	"unsigned char:t(0,3)",128,0,0,0
  16               	.global	init_lcd
  17               		.type	init_lcd, @function
  18               	init_lcd:
   1:lcd.c         **** /*  Author: Steve Gunn
   2:lcd.c         ****  * Licence: This work is licensed under the Creative Commons Attribution License.
   3:lcd.c         ****  *           View this license at http://creativecommons.org/about/licenses/
   4:lcd.c         ****  */
   5:lcd.c         ****  
   6:lcd.c         **** #include "ili934x.h"
   7:lcd.c         **** #include "graphics.h"
   8:lcd.c         **** #include "fonts.h"
   9:lcd.c         **** #include "lcd.h"
  10:lcd.c         **** #include <stdbool.h>
  11:lcd.c         **** 
  12:lcd.c         **** lcd display = {LCDWIDTH, LCDHEIGHT, North, 0, 0, 0x20E4, 0xFF99};
  13:lcd.c         **** 
  14:lcd.c         **** void init_lcd()
  15:lcd.c         **** {
  19               		.stabn	68,0,15,.LM0-.LFBB1
  20               	.LM0:
  21               	.LFBB1:
  22               	/* prologue: function */
  23               	/* frame size = 0 */
  24               	/* stack size = 0 */
  25               	.L__stack_usage = 0
  16:lcd.c         **** 	/* Disable JTAG in software, so that it does not interfere with Port C  */
  17:lcd.c         **** 	/* It will be re-enabled after a power cycle if the JTAGEN fuse is set. */
  18:lcd.c         **** 	MCUCR |= (1<<JTD);
  26               		.stabn	68,0,18,.LM1-.LFBB1
  27               	.LM1:
  28 0000 85B7      		in r24,0x35
  29 0002 8068      		ori r24,lo8(-128)
  30 0004 85BF      		out 0x35,r24
  19:lcd.c         **** 	MCUCR |= (1<<JTD);
  31               		.stabn	68,0,19,.LM2-.LFBB1
  32               	.LM2:
  33 0006 85B7      		in r24,0x35
  34 0008 8068      		ori r24,lo8(-128)
  35 000a 85BF      		out 0x35,r24
  20:lcd.c         **** 	
  21:lcd.c         **** 	/* Configure ports */
  22:lcd.c         **** 	CTRL_DDR = 0x7F;
GAS LISTING /tmp/ccfDWI1C.s 			page 2


  36               		.stabn	68,0,22,.LM3-.LFBB1
  37               	.LM3:
  38 000c 8FE7      		ldi r24,lo8(127)
  39 000e 87B9      		out 0x7,r24
  23:lcd.c         **** 	// PIN 7 on the control port is an input.
  24:lcd.c         **** 	DATA_DDR = 0xFF;
  40               		.stabn	68,0,24,.LM4-.LFBB1
  41               	.LM4:
  42 0010 8FEF      		ldi r24,lo8(-1)
  43 0012 84B9      		out 0x4,r24
  25:lcd.c         **** 	
  26:lcd.c         **** 	init_display_controller();
  44               		.stabn	68,0,26,.LM5-.LFBB1
  45               	.LM5:
  46 0014 0C94 0000 		jmp init_display_controller
  47               		.size	init_lcd, .-init_lcd
  48               	.Lscope1:
  49               		.stabs	"",36,0,0,.Lscope1-.LFBB1
  50               		.stabs	"set_orientation:F(0,1)",36,0,29,set_orientation
  51               		.stabs	" :T(0,4)=eNorth:0,West:1,South:2,East:3,;",128,0,0,0
  52               		.stabs	"o:P(0,5)=(0,4)",64,0,29,18
  53               	.global	set_orientation
  54               		.type	set_orientation, @function
  55               	set_orientation:
  27:lcd.c         **** }
  28:lcd.c         **** 
  29:lcd.c         **** void set_orientation(orientation o)
  30:lcd.c         **** {
  56               		.stabn	68,0,30,.LM6-.LFBB2
  57               	.LM6:
  58               	.LFBB2:
  59               	/* prologue: function */
  60               	/* frame size = 0 */
  61               	/* stack size = 0 */
  62               	.L__stack_usage = 0
  63 0018 9C01      		movw r18,r24
  31:lcd.c         **** 	display.orient = o;
  64               		.stabn	68,0,31,.LM7-.LFBB2
  65               	.LM7:
  66 001a 9093 0000 		sts display+4+1,r25
  67 001e 8093 0000 		sts display+4,r24
  32:lcd.c         **** 	write_cmd(MEMORY_ACCESS_CONTROL);
  68               		.stabn	68,0,32,.LM8-.LFBB2
  69               	.LM8:
  70 0022 4498      		cbi 0x8,4
  71 0024 86E3      		ldi r24,lo8(54)
  72 0026 85B9      		out 0x5,r24
  73 0028 4398      		cbi 0x8,3
  74 002a 439A      		sbi 0x8,3
  75 002c 449A      		sbi 0x8,4
  33:lcd.c         **** 	if (o==North) { 
  76               		.stabn	68,0,33,.LM9-.LFBB2
  77               	.LM9:
  78 002e 2115      		cp r18,__zero_reg__
  79 0030 3105      		cpc r19,__zero_reg__
  80 0032 01F0      		breq .+2
  81 0034 00C0      		rjmp .L3
GAS LISTING /tmp/ccfDWI1C.s 			page 3


  34:lcd.c         **** 		display.width = LCDWIDTH;
  82               		.stabn	68,0,34,.LM10-.LFBB2
  83               	.LM10:
  84 0036 80EF      		ldi r24,lo8(-16)
  85 0038 90E0      		ldi r25,0
  86 003a 9093 0000 		sts display+1,r25
  87 003e 8093 0000 		sts display,r24
  35:lcd.c         **** 		display.height = LCDHEIGHT;
  88               		.stabn	68,0,35,.LM11-.LFBB2
  89               	.LM11:
  90 0042 80E4      		ldi r24,lo8(64)
  91 0044 91E0      		ldi r25,lo8(1)
  92 0046 9093 0000 		sts display+2+1,r25
  93 004a 8093 0000 		sts display+2,r24
  36:lcd.c         **** 		write_data(0x48);
  94               		.stabn	68,0,36,.LM12-.LFBB2
  95               	.LM12:
  96 004e 88E4      		ldi r24,lo8(72)
  97               	.L7:
  37:lcd.c         **** 	}
  38:lcd.c         **** 	else if (o==West) {
  39:lcd.c         **** 		display.width = LCDHEIGHT;
  40:lcd.c         **** 		display.height = LCDWIDTH;
  41:lcd.c         **** 		write_data(0xE8);
  42:lcd.c         **** 	}
  43:lcd.c         **** 	else if (o==South) {
  44:lcd.c         **** 		display.width = LCDWIDTH;
  45:lcd.c         **** 		display.height = LCDHEIGHT;
  46:lcd.c         **** 		write_data(0x88);
  47:lcd.c         **** 	}
  48:lcd.c         **** 	else if (o==East) {
  49:lcd.c         **** 		display.width = LCDHEIGHT;
  50:lcd.c         **** 		display.height = LCDWIDTH;
  51:lcd.c         **** 		write_data(0x28);
  98               		.stabn	68,0,51,.LM13-.LFBB2
  99               	.LM13:
 100 0050 85B9      		out 0x5,r24
 101 0052 4398      		cbi 0x8,3
 102 0054 439A      		sbi 0x8,3
 103               	.L4:
  52:lcd.c         **** 	}
  53:lcd.c         **** 	write_cmd(COLUMN_ADDRESS_SET);
 104               		.stabn	68,0,53,.LM14-.LFBB2
 105               	.LM14:
 106 0056 4498      		cbi 0x8,4
 107 0058 8AE2      		ldi r24,lo8(42)
 108 005a 85B9      		out 0x5,r24
 109 005c 4398      		cbi 0x8,3
 110 005e 439A      		sbi 0x8,3
 111 0060 449A      		sbi 0x8,4
  54:lcd.c         **** 	write_data16(0);
 112               		.stabn	68,0,54,.LM15-.LFBB2
 113               	.LM15:
 114 0062 15B8      		out 0x5,__zero_reg__
 115 0064 4398      		cbi 0x8,3
 116 0066 439A      		sbi 0x8,3
 117 0068 15B8      		out 0x5,__zero_reg__
GAS LISTING /tmp/ccfDWI1C.s 			page 4


 118 006a 4398      		cbi 0x8,3
 119 006c 439A      		sbi 0x8,3
  55:lcd.c         **** 	write_data16(display.width-1);
 120               		.stabn	68,0,55,.LM16-.LFBB2
 121               	.LM16:
 122 006e 8091 0000 		lds r24,display
 123 0072 9091 0000 		lds r25,display+1
 124 0076 0197      		sbiw r24,1
 125 0078 95B9      		out 0x5,r25
 126 007a 4398      		cbi 0x8,3
 127 007c 439A      		sbi 0x8,3
 128 007e 8091 0000 		lds r24,display
 129 0082 8150      		subi r24,lo8(-(-1))
 130 0084 85B9      		out 0x5,r24
 131 0086 4398      		cbi 0x8,3
 132 0088 439A      		sbi 0x8,3
  56:lcd.c         **** 	write_cmd(PAGE_ADDRESS_SET);
 133               		.stabn	68,0,56,.LM17-.LFBB2
 134               	.LM17:
 135 008a 4498      		cbi 0x8,4
 136 008c 8BE2      		ldi r24,lo8(43)
 137 008e 85B9      		out 0x5,r24
 138 0090 4398      		cbi 0x8,3
 139 0092 439A      		sbi 0x8,3
 140 0094 449A      		sbi 0x8,4
  57:lcd.c         **** 	write_data16(0);
 141               		.stabn	68,0,57,.LM18-.LFBB2
 142               	.LM18:
 143 0096 15B8      		out 0x5,__zero_reg__
 144 0098 4398      		cbi 0x8,3
 145 009a 439A      		sbi 0x8,3
 146 009c 15B8      		out 0x5,__zero_reg__
 147 009e 4398      		cbi 0x8,3
 148 00a0 439A      		sbi 0x8,3
  58:lcd.c         **** 	write_data16(display.height-1);
 149               		.stabn	68,0,58,.LM19-.LFBB2
 150               	.LM19:
 151 00a2 8091 0000 		lds r24,display+2
 152 00a6 9091 0000 		lds r25,display+2+1
 153 00aa 0197      		sbiw r24,1
 154 00ac 95B9      		out 0x5,r25
 155 00ae 4398      		cbi 0x8,3
 156 00b0 439A      		sbi 0x8,3
 157 00b2 8091 0000 		lds r24,display+2
 158 00b6 8150      		subi r24,lo8(-(-1))
 159 00b8 85B9      		out 0x5,r24
 160 00ba 4398      		cbi 0x8,3
 161 00bc 439A      		sbi 0x8,3
 162               	/* epilogue start */
  59:lcd.c         **** }
 163               		.stabn	68,0,59,.LM20-.LFBB2
 164               	.LM20:
 165 00be 0895      		ret
 166               	.L3:
  38:lcd.c         **** 		display.width = LCDHEIGHT;
 167               		.stabn	68,0,38,.LM21-.LFBB2
 168               	.LM21:
GAS LISTING /tmp/ccfDWI1C.s 			page 5


 169 00c0 2130      		cpi r18,1
 170 00c2 3105      		cpc r19,__zero_reg__
 171 00c4 01F4      		brne .L5
  39:lcd.c         **** 		display.height = LCDWIDTH;
 172               		.stabn	68,0,39,.LM22-.LFBB2
 173               	.LM22:
 174 00c6 80E4      		ldi r24,lo8(64)
 175 00c8 91E0      		ldi r25,lo8(1)
 176 00ca 9093 0000 		sts display+1,r25
 177 00ce 8093 0000 		sts display,r24
  40:lcd.c         **** 		write_data(0xE8);
 178               		.stabn	68,0,40,.LM23-.LFBB2
 179               	.LM23:
 180 00d2 80EF      		ldi r24,lo8(-16)
 181 00d4 90E0      		ldi r25,0
 182 00d6 9093 0000 		sts display+2+1,r25
 183 00da 8093 0000 		sts display+2,r24
  41:lcd.c         **** 	}
 184               		.stabn	68,0,41,.LM24-.LFBB2
 185               	.LM24:
 186 00de 88EE      		ldi r24,lo8(-24)
 187 00e0 00C0      		rjmp .L7
 188               	.L5:
  43:lcd.c         **** 		display.width = LCDWIDTH;
 189               		.stabn	68,0,43,.LM25-.LFBB2
 190               	.LM25:
 191 00e2 2230      		cpi r18,2
 192 00e4 3105      		cpc r19,__zero_reg__
 193 00e6 01F4      		brne .L6
  44:lcd.c         **** 		display.height = LCDHEIGHT;
 194               		.stabn	68,0,44,.LM26-.LFBB2
 195               	.LM26:
 196 00e8 80EF      		ldi r24,lo8(-16)
 197 00ea 90E0      		ldi r25,0
 198 00ec 9093 0000 		sts display+1,r25
 199 00f0 8093 0000 		sts display,r24
  45:lcd.c         **** 		write_data(0x88);
 200               		.stabn	68,0,45,.LM27-.LFBB2
 201               	.LM27:
 202 00f4 80E4      		ldi r24,lo8(64)
 203 00f6 91E0      		ldi r25,lo8(1)
 204 00f8 9093 0000 		sts display+2+1,r25
 205 00fc 8093 0000 		sts display+2,r24
  46:lcd.c         **** 	}
 206               		.stabn	68,0,46,.LM28-.LFBB2
 207               	.LM28:
 208 0100 88E8      		ldi r24,lo8(-120)
 209 0102 00C0      		rjmp .L7
 210               	.L6:
  48:lcd.c         **** 		display.width = LCDHEIGHT;
 211               		.stabn	68,0,48,.LM29-.LFBB2
 212               	.LM29:
 213 0104 2330      		cpi r18,3
 214 0106 3105      		cpc r19,__zero_reg__
 215 0108 01F0      		breq .+2
 216 010a 00C0      		rjmp .L4
  49:lcd.c         **** 		display.height = LCDWIDTH;
GAS LISTING /tmp/ccfDWI1C.s 			page 6


 217               		.stabn	68,0,49,.LM30-.LFBB2
 218               	.LM30:
 219 010c 80E4      		ldi r24,lo8(64)
 220 010e 91E0      		ldi r25,lo8(1)
 221 0110 9093 0000 		sts display+1,r25
 222 0114 8093 0000 		sts display,r24
  50:lcd.c         **** 		write_data(0x28);
 223               		.stabn	68,0,50,.LM31-.LFBB2
 224               	.LM31:
 225 0118 80EF      		ldi r24,lo8(-16)
 226 011a 90E0      		ldi r25,0
 227 011c 9093 0000 		sts display+2+1,r25
 228 0120 8093 0000 		sts display+2,r24
  51:lcd.c         **** 	}
 229               		.stabn	68,0,51,.LM32-.LFBB2
 230               	.LM32:
 231 0124 88E2      		ldi r24,lo8(40)
 232 0126 00C0      		rjmp .L7
 233               		.size	set_orientation, .-set_orientation
 234               	.Lscope2:
 235               		.stabs	"",36,0,0,.Lscope2-.LFBB2
 236               		.stabs	"init_graphics:F(0,1)",36,0,61,init_graphics
 237               		.stabs	"uint16_t:t(0,6)=(0,7)=r(0,7);0;0177777;",128,0,128,0
 238               		.stabs	"unsigned int:t(0,7)",128,0,0,0
 239               	.global	init_graphics
 240               		.type	init_graphics, @function
 241               	init_graphics:
  60:lcd.c         **** 
  61:lcd.c         **** void init_graphics()
  62:lcd.c         **** {
 242               		.stabn	68,0,62,.LM33-.LFBB3
 243               	.LM33:
 244               	.LFBB3:
 245               	/* prologue: function */
 246               	/* frame size = 0 */
 247               	/* stack size = 0 */
 248               	.L__stack_usage = 0
  63:lcd.c         **** 	uint16_t x, y;
  64:lcd.c         **** 	write_cmd(COLUMN_ADDRESS_SET);
 249               		.stabn	68,0,64,.LM34-.LFBB3
 250               	.LM34:
 251 0128 4498      		cbi 0x8,4
 252 012a 8AE2      		ldi r24,lo8(42)
 253 012c 85B9      		out 0x5,r24
 254 012e 4398      		cbi 0x8,3
 255 0130 439A      		sbi 0x8,3
 256 0132 449A      		sbi 0x8,4
  65:lcd.c         **** 	write_data16(0);
 257               		.stabn	68,0,65,.LM35-.LFBB3
 258               	.LM35:
 259 0134 15B8      		out 0x5,__zero_reg__
 260 0136 4398      		cbi 0x8,3
 261 0138 439A      		sbi 0x8,3
 262 013a 15B8      		out 0x5,__zero_reg__
 263 013c 4398      		cbi 0x8,3
 264 013e 439A      		sbi 0x8,3
  66:lcd.c         **** 	write_data16(240);
GAS LISTING /tmp/ccfDWI1C.s 			page 7


 265               		.stabn	68,0,66,.LM36-.LFBB3
 266               	.LM36:
 267 0140 15B8      		out 0x5,__zero_reg__
 268 0142 4398      		cbi 0x8,3
 269 0144 439A      		sbi 0x8,3
 270 0146 80EF      		ldi r24,lo8(-16)
 271 0148 85B9      		out 0x5,r24
 272 014a 4398      		cbi 0x8,3
 273 014c 439A      		sbi 0x8,3
  67:lcd.c         **** 	write_cmd(PAGE_ADDRESS_SET);
 274               		.stabn	68,0,67,.LM37-.LFBB3
 275               	.LM37:
 276 014e 4498      		cbi 0x8,4
 277 0150 8BE2      		ldi r24,lo8(43)
 278 0152 85B9      		out 0x5,r24
 279 0154 4398      		cbi 0x8,3
 280 0156 439A      		sbi 0x8,3
 281 0158 449A      		sbi 0x8,4
  68:lcd.c         **** 	write_data16(0);
 282               		.stabn	68,0,68,.LM38-.LFBB3
 283               	.LM38:
 284 015a 15B8      		out 0x5,__zero_reg__
 285 015c 4398      		cbi 0x8,3
 286 015e 439A      		sbi 0x8,3
 287 0160 15B8      		out 0x5,__zero_reg__
 288 0162 4398      		cbi 0x8,3
 289 0164 439A      		sbi 0x8,3
  69:lcd.c         **** 	write_data16(160);
 290               		.stabn	68,0,69,.LM39-.LFBB3
 291               	.LM39:
 292 0166 15B8      		out 0x5,__zero_reg__
 293 0168 4398      		cbi 0x8,3
 294 016a 439A      		sbi 0x8,3
 295 016c 80EA      		ldi r24,lo8(-96)
 296 016e 85B9      		out 0x5,r24
 297 0170 4398      		cbi 0x8,3
 298 0172 439A      		sbi 0x8,3
  70:lcd.c         **** 	write_cmd(MEMORY_WRITE);
 299               		.stabn	68,0,70,.LM40-.LFBB3
 300               	.LM40:
 301 0174 4498      		cbi 0x8,4
 302 0176 8CE2      		ldi r24,lo8(44)
 303 0178 85B9      		out 0x5,r24
 304 017a 4398      		cbi 0x8,3
 305 017c 439A      		sbi 0x8,3
 306 017e 449A      		sbi 0x8,4
 307 0180 20E0      		ldi r18,lo8(bg1_1)
 308 0182 30E0      		ldi r19,hi8(bg1_1)
 309 0184 70E0      		ldi r23,0
 310 0186 60E0      		ldi r22,0
 311               	.L9:
  62:lcd.c         **** 	uint16_t x, y;
 312               		.stabn	68,0,62,.LM41-.LFBB3
 313               	.LM41:
 314 0188 C901      		movw r24,r18
  71:lcd.c         **** 	for(y = 0; y <= 79; y++){
  72:lcd.c         **** 		for(x = 0; x <= 119; x++){
GAS LISTING /tmp/ccfDWI1C.s 			page 8


 315               		.stabn	68,0,72,.LM42-.LFBB3
 316               	.LM42:
 317 018a 50E0      		ldi r21,0
 318 018c 40E0      		ldi r20,0
 319               	.L10:
 320               	.LBB2:
  73:lcd.c         **** 			write_data16(pgm_read_word(&bg1_1[x+y*120]));
 321               		.stabn	68,0,73,.LM43-.LFBB3
 322               	.LM43:
 323 018e FC01      		movw r30,r24
 324               	/* #APP */
 325               	 ;  73 "lcd.c" 1
 326 0190 A591      		lpm r26, Z+
 327 0192 B491      		lpm r27, Z
 328               		
 329               	 ;  0 "" 2
 330               	/* #NOAPP */
 331               	.LBE2:
 332 0194 B5B9      		out 0x5,r27
 333 0196 4398      		cbi 0x8,3
 334 0198 439A      		sbi 0x8,3
 335               	.LBB3:
 336 019a FC01      		movw r30,r24
 337               	/* #APP */
 338               	 ;  73 "lcd.c" 1
 339 019c A591      		lpm r26, Z+
 340 019e B491      		lpm r27, Z
 341               		
 342               	 ;  0 "" 2
 343               	/* #NOAPP */
 344               	.LBE3:
 345 01a0 A5B9      		out 0x5,r26
 346 01a2 4398      		cbi 0x8,3
 347 01a4 439A      		sbi 0x8,3
 348               	.LBB4:
  74:lcd.c         **** 			write_data16(pgm_read_word(&bg1_1[x+y*120]));
 349               		.stabn	68,0,74,.LM44-.LFBB3
 350               	.LM44:
 351 01a6 FC01      		movw r30,r24
 352               	/* #APP */
 353               	 ;  74 "lcd.c" 1
 354 01a8 A591      		lpm r26, Z+
 355 01aa B491      		lpm r27, Z
 356               		
 357               	 ;  0 "" 2
 358               	/* #NOAPP */
 359               	.LBE4:
 360 01ac B5B9      		out 0x5,r27
 361 01ae 4398      		cbi 0x8,3
 362 01b0 439A      		sbi 0x8,3
 363               	.LBB5:
 364 01b2 FC01      		movw r30,r24
 365               	/* #APP */
 366               	 ;  74 "lcd.c" 1
 367 01b4 A591      		lpm r26, Z+
 368 01b6 B491      		lpm r27, Z
 369               		
GAS LISTING /tmp/ccfDWI1C.s 			page 9


 370               	 ;  0 "" 2
 371               	/* #NOAPP */
 372               	.LBE5:
 373 01b8 A5B9      		out 0x5,r26
 374 01ba 4398      		cbi 0x8,3
 375 01bc 439A      		sbi 0x8,3
  72:lcd.c         **** 			write_data16(pgm_read_word(&bg1_1[x+y*120]));
 376               		.stabn	68,0,72,.LM45-.LFBB3
 377               	.LM45:
 378 01be 4F5F      		subi r20,-1
 379 01c0 5F4F      		sbci r21,-1
  72:lcd.c         **** 			write_data16(pgm_read_word(&bg1_1[x+y*120]));
 380               		.stabn	68,0,72,.LM46-.LFBB3
 381               	.LM46:
 382 01c2 0296      		adiw r24,2
 383 01c4 4837      		cpi r20,120
 384 01c6 5105      		cpc r21,__zero_reg__
 385 01c8 01F4      		brne .L10
 386 01ca C901      		movw r24,r18
  75:lcd.c         **** 		}
  76:lcd.c         **** 		for(x = 0; x <= 119; x++){
 387               		.stabn	68,0,76,.LM47-.LFBB3
 388               	.LM47:
 389 01cc 50E0      		ldi r21,0
 390 01ce 40E0      		ldi r20,0
 391               	.L11:
 392               	.LBB6:
  77:lcd.c         **** 			write_data16(pgm_read_word(&bg1_1[x+y*120]));
 393               		.stabn	68,0,77,.LM48-.LFBB3
 394               	.LM48:
 395 01d0 FC01      		movw r30,r24
 396               	/* #APP */
 397               	 ;  77 "lcd.c" 1
 398 01d2 A591      		lpm r26, Z+
 399 01d4 B491      		lpm r27, Z
 400               		
 401               	 ;  0 "" 2
 402               	/* #NOAPP */
 403               	.LBE6:
 404 01d6 B5B9      		out 0x5,r27
 405 01d8 4398      		cbi 0x8,3
 406 01da 439A      		sbi 0x8,3
 407               	.LBB7:
 408 01dc FC01      		movw r30,r24
 409               	/* #APP */
 410               	 ;  77 "lcd.c" 1
 411 01de A591      		lpm r26, Z+
 412 01e0 B491      		lpm r27, Z
 413               		
 414               	 ;  0 "" 2
 415               	/* #NOAPP */
 416               	.LBE7:
 417 01e2 A5B9      		out 0x5,r26
 418 01e4 4398      		cbi 0x8,3
 419 01e6 439A      		sbi 0x8,3
 420               	.LBB8:
  78:lcd.c         **** 			write_data16(pgm_read_word(&bg1_1[x+y*120]));
GAS LISTING /tmp/ccfDWI1C.s 			page 10


 421               		.stabn	68,0,78,.LM49-.LFBB3
 422               	.LM49:
 423 01e8 FC01      		movw r30,r24
 424               	/* #APP */
 425               	 ;  78 "lcd.c" 1
 426 01ea A591      		lpm r26, Z+
 427 01ec B491      		lpm r27, Z
 428               		
 429               	 ;  0 "" 2
 430               	/* #NOAPP */
 431               	.LBE8:
 432 01ee B5B9      		out 0x5,r27
 433 01f0 4398      		cbi 0x8,3
 434 01f2 439A      		sbi 0x8,3
 435               	.LBB9:
 436 01f4 FC01      		movw r30,r24
 437               	/* #APP */
 438               	 ;  78 "lcd.c" 1
 439 01f6 A591      		lpm r26, Z+
 440 01f8 B491      		lpm r27, Z
 441               		
 442               	 ;  0 "" 2
 443               	/* #NOAPP */
 444               	.LBE9:
 445 01fa A5B9      		out 0x5,r26
 446 01fc 4398      		cbi 0x8,3
 447 01fe 439A      		sbi 0x8,3
  76:lcd.c         **** 			write_data16(pgm_read_word(&bg1_1[x+y*120]));
 448               		.stabn	68,0,76,.LM50-.LFBB3
 449               	.LM50:
 450 0200 4F5F      		subi r20,-1
 451 0202 5F4F      		sbci r21,-1
  76:lcd.c         **** 			write_data16(pgm_read_word(&bg1_1[x+y*120]));
 452               		.stabn	68,0,76,.LM51-.LFBB3
 453               	.LM51:
 454 0204 0296      		adiw r24,2
 455 0206 4837      		cpi r20,120
 456 0208 5105      		cpc r21,__zero_reg__
 457 020a 01F4      		brne .L11
  71:lcd.c         **** 		for(x = 0; x <= 119; x++){
 458               		.stabn	68,0,71,.LM52-.LFBB3
 459               	.LM52:
 460 020c 2051      		subi r18,16
 461 020e 3F4F      		sbci r19,-1
 462 0210 6858      		subi r22,-120
 463 0212 7F4F      		sbci r23,-1
 464 0214 6038      		cpi r22,-128
 465 0216 85E2      		ldi r24,37
 466 0218 7807      		cpc r23,r24
 467 021a 01F0      		breq .+2
 468 021c 00C0      		rjmp .L9
  79:lcd.c         **** 		}
  80:lcd.c         **** 	}
  81:lcd.c         **** 	write_cmd(COLUMN_ADDRESS_SET);
 469               		.stabn	68,0,81,.LM53-.LFBB3
 470               	.LM53:
 471 021e 4498      		cbi 0x8,4
GAS LISTING /tmp/ccfDWI1C.s 			page 11


 472 0220 8AE2      		ldi r24,lo8(42)
 473 0222 85B9      		out 0x5,r24
 474 0224 4398      		cbi 0x8,3
 475 0226 439A      		sbi 0x8,3
 476 0228 449A      		sbi 0x8,4
  82:lcd.c         **** 	write_data16(0);
 477               		.stabn	68,0,82,.LM54-.LFBB3
 478               	.LM54:
 479 022a 15B8      		out 0x5,__zero_reg__
 480 022c 4398      		cbi 0x8,3
 481 022e 439A      		sbi 0x8,3
 482 0230 15B8      		out 0x5,__zero_reg__
 483 0232 4398      		cbi 0x8,3
 484 0234 439A      		sbi 0x8,3
  83:lcd.c         **** 	write_data16(240);
 485               		.stabn	68,0,83,.LM55-.LFBB3
 486               	.LM55:
 487 0236 15B8      		out 0x5,__zero_reg__
 488 0238 4398      		cbi 0x8,3
 489 023a 439A      		sbi 0x8,3
 490 023c 80EF      		ldi r24,lo8(-16)
 491 023e 85B9      		out 0x5,r24
 492 0240 4398      		cbi 0x8,3
 493 0242 439A      		sbi 0x8,3
  84:lcd.c         **** 	write_cmd(PAGE_ADDRESS_SET);
 494               		.stabn	68,0,84,.LM56-.LFBB3
 495               	.LM56:
 496 0244 4498      		cbi 0x8,4
 497 0246 8BE2      		ldi r24,lo8(43)
 498 0248 85B9      		out 0x5,r24
 499 024a 4398      		cbi 0x8,3
 500 024c 439A      		sbi 0x8,3
 501 024e 449A      		sbi 0x8,4
  85:lcd.c         **** 	write_data16(160);
 502               		.stabn	68,0,85,.LM57-.LFBB3
 503               	.LM57:
 504 0250 15B8      		out 0x5,__zero_reg__
 505 0252 4398      		cbi 0x8,3
 506 0254 439A      		sbi 0x8,3
 507 0256 80EA      		ldi r24,lo8(-96)
 508 0258 85B9      		out 0x5,r24
 509 025a 4398      		cbi 0x8,3
 510 025c 439A      		sbi 0x8,3
  86:lcd.c         **** 	write_data16(320);
 511               		.stabn	68,0,86,.LM58-.LFBB3
 512               	.LM58:
 513 025e 81E0      		ldi r24,lo8(1)
 514 0260 85B9      		out 0x5,r24
 515 0262 4398      		cbi 0x8,3
 516 0264 439A      		sbi 0x8,3
 517 0266 80E4      		ldi r24,lo8(64)
 518 0268 85B9      		out 0x5,r24
 519 026a 4398      		cbi 0x8,3
 520 026c 439A      		sbi 0x8,3
  87:lcd.c         **** 	write_cmd(MEMORY_WRITE);
 521               		.stabn	68,0,87,.LM59-.LFBB3
 522               	.LM59:
GAS LISTING /tmp/ccfDWI1C.s 			page 12


 523 026e 4498      		cbi 0x8,4
 524 0270 8CE2      		ldi r24,lo8(44)
 525 0272 85B9      		out 0x5,r24
 526 0274 4398      		cbi 0x8,3
 527 0276 439A      		sbi 0x8,3
 528 0278 449A      		sbi 0x8,4
 529 027a 20E0      		ldi r18,lo8(bg1_2)
 530 027c 30E0      		ldi r19,hi8(bg1_2)
 531 027e 70E0      		ldi r23,0
 532 0280 60E0      		ldi r22,0
 533               	.L13:
  70:lcd.c         **** 	for(y = 0; y <= 79; y++){
 534               		.stabn	68,0,70,.LM60-.LFBB3
 535               	.LM60:
 536 0282 C901      		movw r24,r18
  88:lcd.c         **** 	for(y = 0; y <= 79; y++){
  89:lcd.c         **** 		for(x = 0; x <= 119; x++){
 537               		.stabn	68,0,89,.LM61-.LFBB3
 538               	.LM61:
 539 0284 50E0      		ldi r21,0
 540 0286 40E0      		ldi r20,0
 541               	.L14:
 542               	.LBB10:
  90:lcd.c         **** 			write_data16(pgm_read_word(&bg1_2[x+y*120]));
 543               		.stabn	68,0,90,.LM62-.LFBB3
 544               	.LM62:
 545 0288 FC01      		movw r30,r24
 546               	/* #APP */
 547               	 ;  90 "lcd.c" 1
 548 028a A591      		lpm r26, Z+
 549 028c B491      		lpm r27, Z
 550               		
 551               	 ;  0 "" 2
 552               	/* #NOAPP */
 553               	.LBE10:
 554 028e B5B9      		out 0x5,r27
 555 0290 4398      		cbi 0x8,3
 556 0292 439A      		sbi 0x8,3
 557               	.LBB11:
 558 0294 FC01      		movw r30,r24
 559               	/* #APP */
 560               	 ;  90 "lcd.c" 1
 561 0296 A591      		lpm r26, Z+
 562 0298 B491      		lpm r27, Z
 563               		
 564               	 ;  0 "" 2
 565               	/* #NOAPP */
 566               	.LBE11:
 567 029a A5B9      		out 0x5,r26
 568 029c 4398      		cbi 0x8,3
 569 029e 439A      		sbi 0x8,3
 570               	.LBB12:
  91:lcd.c         **** 			write_data16(pgm_read_word(&bg1_2[x+y*120]));
 571               		.stabn	68,0,91,.LM63-.LFBB3
 572               	.LM63:
 573 02a0 FC01      		movw r30,r24
 574               	/* #APP */
GAS LISTING /tmp/ccfDWI1C.s 			page 13


 575               	 ;  91 "lcd.c" 1
 576 02a2 A591      		lpm r26, Z+
 577 02a4 B491      		lpm r27, Z
 578               		
 579               	 ;  0 "" 2
 580               	/* #NOAPP */
 581               	.LBE12:
 582 02a6 B5B9      		out 0x5,r27
 583 02a8 4398      		cbi 0x8,3
 584 02aa 439A      		sbi 0x8,3
 585               	.LBB13:
 586 02ac FC01      		movw r30,r24
 587               	/* #APP */
 588               	 ;  91 "lcd.c" 1
 589 02ae A591      		lpm r26, Z+
 590 02b0 B491      		lpm r27, Z
 591               		
 592               	 ;  0 "" 2
 593               	/* #NOAPP */
 594               	.LBE13:
 595 02b2 A5B9      		out 0x5,r26
 596 02b4 4398      		cbi 0x8,3
 597 02b6 439A      		sbi 0x8,3
  89:lcd.c         **** 			write_data16(pgm_read_word(&bg1_2[x+y*120]));
 598               		.stabn	68,0,89,.LM64-.LFBB3
 599               	.LM64:
 600 02b8 4F5F      		subi r20,-1
 601 02ba 5F4F      		sbci r21,-1
  89:lcd.c         **** 			write_data16(pgm_read_word(&bg1_2[x+y*120]));
 602               		.stabn	68,0,89,.LM65-.LFBB3
 603               	.LM65:
 604 02bc 0296      		adiw r24,2
 605 02be 4837      		cpi r20,120
 606 02c0 5105      		cpc r21,__zero_reg__
 607 02c2 01F4      		brne .L14
 608 02c4 C901      		movw r24,r18
  92:lcd.c         **** 		}
  93:lcd.c         **** 		for(x = 0; x <= 119; x++){
 609               		.stabn	68,0,93,.LM66-.LFBB3
 610               	.LM66:
 611 02c6 50E0      		ldi r21,0
 612 02c8 40E0      		ldi r20,0
 613               	.L15:
 614               	.LBB14:
  94:lcd.c         **** 			write_data16(pgm_read_word(&bg1_2[x+y*120]));
 615               		.stabn	68,0,94,.LM67-.LFBB3
 616               	.LM67:
 617 02ca FC01      		movw r30,r24
 618               	/* #APP */
 619               	 ;  94 "lcd.c" 1
 620 02cc A591      		lpm r26, Z+
 621 02ce B491      		lpm r27, Z
 622               		
 623               	 ;  0 "" 2
 624               	/* #NOAPP */
 625               	.LBE14:
 626 02d0 B5B9      		out 0x5,r27
GAS LISTING /tmp/ccfDWI1C.s 			page 14


 627 02d2 4398      		cbi 0x8,3
 628 02d4 439A      		sbi 0x8,3
 629               	.LBB15:
 630 02d6 FC01      		movw r30,r24
 631               	/* #APP */
 632               	 ;  94 "lcd.c" 1
 633 02d8 A591      		lpm r26, Z+
 634 02da B491      		lpm r27, Z
 635               		
 636               	 ;  0 "" 2
 637               	/* #NOAPP */
 638               	.LBE15:
 639 02dc A5B9      		out 0x5,r26
 640 02de 4398      		cbi 0x8,3
 641 02e0 439A      		sbi 0x8,3
 642               	.LBB16:
  95:lcd.c         **** 			write_data16(pgm_read_word(&bg1_2[x+y*120]));
 643               		.stabn	68,0,95,.LM68-.LFBB3
 644               	.LM68:
 645 02e2 FC01      		movw r30,r24
 646               	/* #APP */
 647               	 ;  95 "lcd.c" 1
 648 02e4 A591      		lpm r26, Z+
 649 02e6 B491      		lpm r27, Z
 650               		
 651               	 ;  0 "" 2
 652               	/* #NOAPP */
 653               	.LBE16:
 654 02e8 B5B9      		out 0x5,r27
 655 02ea 4398      		cbi 0x8,3
 656 02ec 439A      		sbi 0x8,3
 657               	.LBB17:
 658 02ee FC01      		movw r30,r24
 659               	/* #APP */
 660               	 ;  95 "lcd.c" 1
 661 02f0 A591      		lpm r26, Z+
 662 02f2 B491      		lpm r27, Z
 663               		
 664               	 ;  0 "" 2
 665               	/* #NOAPP */
 666               	.LBE17:
 667 02f4 A5B9      		out 0x5,r26
 668 02f6 4398      		cbi 0x8,3
 669 02f8 439A      		sbi 0x8,3
  93:lcd.c         **** 			write_data16(pgm_read_word(&bg1_2[x+y*120]));
 670               		.stabn	68,0,93,.LM69-.LFBB3
 671               	.LM69:
 672 02fa 4F5F      		subi r20,-1
 673 02fc 5F4F      		sbci r21,-1
  93:lcd.c         **** 			write_data16(pgm_read_word(&bg1_2[x+y*120]));
 674               		.stabn	68,0,93,.LM70-.LFBB3
 675               	.LM70:
 676 02fe 0296      		adiw r24,2
 677 0300 4837      		cpi r20,120
 678 0302 5105      		cpc r21,__zero_reg__
 679 0304 01F4      		brne .L15
  88:lcd.c         **** 		for(x = 0; x <= 119; x++){
GAS LISTING /tmp/ccfDWI1C.s 			page 15


 680               		.stabn	68,0,88,.LM71-.LFBB3
 681               	.LM71:
 682 0306 2051      		subi r18,16
 683 0308 3F4F      		sbci r19,-1
 684 030a 6858      		subi r22,-120
 685 030c 7F4F      		sbci r23,-1
 686 030e 6038      		cpi r22,-128
 687 0310 85E2      		ldi r24,37
 688 0312 7807      		cpc r23,r24
 689 0314 01F0      		breq .+2
 690 0316 00C0      		rjmp .L13
 691               	/* epilogue start */
  96:lcd.c         **** 		}
  97:lcd.c         **** 	}
  98:lcd.c         **** }
 692               		.stabn	68,0,98,.LM72-.LFBB3
 693               	.LM72:
 694 0318 0895      		ret
 695               		.size	init_graphics, .-init_graphics
 696               	.Lscope3:
 697               		.stabs	"",36,0,0,.Lscope3-.LFBB3
 698               		.stabs	"pwr_kw:F(0,1)",36,0,107,pwr_kw
 699               		.stabs	"digit:P(0,2)",64,0,107,24
 700               	.global	pwr_kw
 701               		.type	pwr_kw, @function
 702               	pwr_kw:
  99:lcd.c         **** 
 100:lcd.c         **** //  Three Digits, digit 1 = kW
 101:lcd.c         **** //  Digit 2 = 100s of W
 102:lcd.c         **** //  Digit 3 = 10s of W
 103:lcd.c         **** //  Digit 1 Anchor (19, 102)
 104:lcd.c         **** //  Digit 2 Anchor (55, 102)
 105:lcd.c         **** //  Digit 3 Anchor (80, 102)  (Multiply by 2 for display)
 106:lcd.c         **** //  Each Digit is 21 x 37, Digit texture is 370 tall, starting at 9.
 107:lcd.c         **** void pwr_kw(uint8_t digit){
 703               		.stabn	68,0,107,.LM73-.LFBB4
 704               	.LM73:
 705               	.LFBB4:
 706 031a CF93      		push r28
 707 031c DF93      		push r29
 708               	/* prologue: function */
 709               	/* frame size = 0 */
 710               	/* stack size = 2 */
 711               	.L__stack_usage = 2
 108:lcd.c         **** 	if(digit >= 3)
 712               		.stabn	68,0,108,.LM74-.LFBB4
 713               	.LM74:
 714 031e 8330      		cpi r24,lo8(3)
 715 0320 00F0      		brlo .L22
 109:lcd.c         **** 		digit = 0;
 716               		.stabn	68,0,109,.LM75-.LFBB4
 717               	.LM75:
 718 0322 80E0      		ldi r24,0
 719               	.L22:
 110:lcd.c         **** 	uint16_t x, y;
 111:lcd.c         **** 	write_cmd(COLUMN_ADDRESS_SET);
 720               		.stabn	68,0,111,.LM76-.LFBB4
GAS LISTING /tmp/ccfDWI1C.s 			page 16


 721               	.LM76:
 722 0324 4498      		cbi 0x8,4
 723 0326 9AE2      		ldi r25,lo8(42)
 724 0328 95B9      		out 0x5,r25
 725 032a 4398      		cbi 0x8,3
 726 032c 439A      		sbi 0x8,3
 727 032e 449A      		sbi 0x8,4
 112:lcd.c         **** 	write_data16(38);
 728               		.stabn	68,0,112,.LM77-.LFBB4
 729               	.LM77:
 730 0330 15B8      		out 0x5,__zero_reg__
 731 0332 4398      		cbi 0x8,3
 732 0334 439A      		sbi 0x8,3
 733 0336 96E2      		ldi r25,lo8(38)
 734 0338 95B9      		out 0x5,r25
 735 033a 4398      		cbi 0x8,3
 736 033c 439A      		sbi 0x8,3
 113:lcd.c         **** 	write_data16(79);
 737               		.stabn	68,0,113,.LM78-.LFBB4
 738               	.LM78:
 739 033e 15B8      		out 0x5,__zero_reg__
 740 0340 4398      		cbi 0x8,3
 741 0342 439A      		sbi 0x8,3
 742 0344 9FE4      		ldi r25,lo8(79)
 743 0346 95B9      		out 0x5,r25
 744 0348 4398      		cbi 0x8,3
 745 034a 439A      		sbi 0x8,3
 114:lcd.c         **** 	write_cmd(PAGE_ADDRESS_SET);
 746               		.stabn	68,0,114,.LM79-.LFBB4
 747               	.LM79:
 748 034c 4498      		cbi 0x8,4
 749 034e 9BE2      		ldi r25,lo8(43)
 750 0350 95B9      		out 0x5,r25
 751 0352 4398      		cbi 0x8,3
 752 0354 439A      		sbi 0x8,3
 753 0356 449A      		sbi 0x8,4
 115:lcd.c         **** 	write_data16(204);
 754               		.stabn	68,0,115,.LM80-.LFBB4
 755               	.LM80:
 756 0358 15B8      		out 0x5,__zero_reg__
 757 035a 4398      		cbi 0x8,3
 758 035c 439A      		sbi 0x8,3
 759 035e 9CEC      		ldi r25,lo8(-52)
 760 0360 95B9      		out 0x5,r25
 761 0362 4398      		cbi 0x8,3
 762 0364 439A      		sbi 0x8,3
 116:lcd.c         **** 	write_data16(277);
 763               		.stabn	68,0,116,.LM81-.LFBB4
 764               	.LM81:
 765 0366 91E0      		ldi r25,lo8(1)
 766 0368 95B9      		out 0x5,r25
 767 036a 4398      		cbi 0x8,3
 768 036c 439A      		sbi 0x8,3
 769 036e 95E1      		ldi r25,lo8(21)
 770 0370 95B9      		out 0x5,r25
 771 0372 4398      		cbi 0x8,3
 772 0374 439A      		sbi 0x8,3
GAS LISTING /tmp/ccfDWI1C.s 			page 17


 117:lcd.c         **** 	write_cmd(MEMORY_WRITE);
 773               		.stabn	68,0,117,.LM82-.LFBB4
 774               	.LM82:
 775 0376 4498      		cbi 0x8,4
 776 0378 9CE2      		ldi r25,lo8(44)
 777 037a 95B9      		out 0x5,r25
 778 037c 4398      		cbi 0x8,3
 779 037e 439A      		sbi 0x8,3
 780 0380 449A      		sbi 0x8,4
 781               	.LBB18:
 118:lcd.c         **** 	for(y = 0; y <= 36; y++){
 119:lcd.c         **** 		for(x = 0; x <= 20; x++){
 120:lcd.c         **** 			write_data16(pgm_read_word(&digit1[(2-digit)*777+x+y*21]));
 782               		.stabn	68,0,120,.LM83-.LFBB4
 783               	.LM83:
 784 0382 22E0      		ldi r18,lo8(2)
 785 0384 30E0      		ldi r19,0
 786 0386 A901      		movw r20,r18
 787 0388 481B      		sub r20,r24
 788 038a 5109      		sbc r21,__zero_reg__
 789 038c CA01      		movw r24,r20
 790 038e 29E0      		ldi r18,lo8(9)
 791 0390 33E0      		ldi r19,lo8(3)
 792 0392 829F      		mul r24,r18
 793 0394 A001      		movw r20,r0
 794 0396 839F      		mul r24,r19
 795 0398 500D      		add r21,r0
 796 039a 929F      		mul r25,r18
 797 039c 500D      		add r21,r0
 798 039e 1124      		clr r1
 799 03a0 9A01      		movw r18,r20
 800 03a2 220F      		lsl r18
 801 03a4 331F      		rol r19
 802 03a6 2050      		subi r18,lo8(-(digit1))
 803 03a8 3040      		sbci r19,hi8(-(digit1))
 804 03aa DA01      		movw r26,r20
 805 03ac A75F      		subi r26,-9
 806 03ae BC4F      		sbci r27,-4
 807               	.L23:
 808               	.LBE18:
 109:lcd.c         **** 	uint16_t x, y;
 809               		.stabn	68,0,109,.LM84-.LFBB4
 810               	.LM84:
 811 03b0 C901      		movw r24,r18
 119:lcd.c         **** 			write_data16(pgm_read_word(&digit1[(2-digit)*777+x+y*21]));
 812               		.stabn	68,0,119,.LM85-.LFBB4
 813               	.LM85:
 814 03b2 70E0      		ldi r23,0
 815 03b4 60E0      		ldi r22,0
 816               	.L24:
 817               	.LBB19:
 818               		.stabn	68,0,120,.LM86-.LFBB4
 819               	.LM86:
 820 03b6 FC01      		movw r30,r24
 821               	/* #APP */
 822               	 ;  120 "lcd.c" 1
 823 03b8 C591      		lpm r28, Z+
GAS LISTING /tmp/ccfDWI1C.s 			page 18


 824 03ba D491      		lpm r29, Z
 825               		
 826               	 ;  0 "" 2
 827               	/* #NOAPP */
 828               	.LBE19:
 829 03bc D5B9      		out 0x5,r29
 830 03be 4398      		cbi 0x8,3
 831 03c0 439A      		sbi 0x8,3
 832               	.LBB20:
 833 03c2 FC01      		movw r30,r24
 834               	/* #APP */
 835               	 ;  120 "lcd.c" 1
 836 03c4 C591      		lpm r28, Z+
 837 03c6 D491      		lpm r29, Z
 838               		
 839               	 ;  0 "" 2
 840               	/* #NOAPP */
 841               	.LBE20:
 842 03c8 C5B9      		out 0x5,r28
 843 03ca 4398      		cbi 0x8,3
 844 03cc 439A      		sbi 0x8,3
 845               	.LBB21:
 121:lcd.c         **** 			write_data16(pgm_read_word(&digit1[(2-digit)*777+x+y*21]));
 846               		.stabn	68,0,121,.LM87-.LFBB4
 847               	.LM87:
 848 03ce FC01      		movw r30,r24
 849               	/* #APP */
 850               	 ;  121 "lcd.c" 1
 851 03d0 C591      		lpm r28, Z+
 852 03d2 D491      		lpm r29, Z
 853               		
 854               	 ;  0 "" 2
 855               	/* #NOAPP */
 856               	.LBE21:
 857 03d4 D5B9      		out 0x5,r29
 858 03d6 4398      		cbi 0x8,3
 859 03d8 439A      		sbi 0x8,3
 860               	.LBB22:
 861 03da FC01      		movw r30,r24
 862               	/* #APP */
 863               	 ;  121 "lcd.c" 1
 864 03dc C591      		lpm r28, Z+
 865 03de D491      		lpm r29, Z
 866               		
 867               	 ;  0 "" 2
 868               	/* #NOAPP */
 869               	.LBE22:
 870 03e0 C5B9      		out 0x5,r28
 871 03e2 4398      		cbi 0x8,3
 872 03e4 439A      		sbi 0x8,3
 119:lcd.c         **** 			write_data16(pgm_read_word(&digit1[(2-digit)*777+x+y*21]));
 873               		.stabn	68,0,119,.LM88-.LFBB4
 874               	.LM88:
 875 03e6 6F5F      		subi r22,-1
 876 03e8 7F4F      		sbci r23,-1
 119:lcd.c         **** 			write_data16(pgm_read_word(&digit1[(2-digit)*777+x+y*21]));
 877               		.stabn	68,0,119,.LM89-.LFBB4
GAS LISTING /tmp/ccfDWI1C.s 			page 19


 878               	.LM89:
 879 03ea 0296      		adiw r24,2
 880 03ec 6531      		cpi r22,21
 881 03ee 7105      		cpc r23,__zero_reg__
 882 03f0 01F4      		brne .L24
 883 03f2 C901      		movw r24,r18
 122:lcd.c         **** 		}
 123:lcd.c         **** 		for(x = 0; x <= 20; x++){
 884               		.stabn	68,0,123,.LM90-.LFBB4
 885               	.LM90:
 886 03f4 70E0      		ldi r23,0
 887 03f6 60E0      		ldi r22,0
 888               	.L25:
 889               	.LBB23:
 124:lcd.c         **** 			write_data16(pgm_read_word(&digit1[(2-digit)*777+x+y*21]));
 890               		.stabn	68,0,124,.LM91-.LFBB4
 891               	.LM91:
 892 03f8 FC01      		movw r30,r24
 893               	/* #APP */
 894               	 ;  124 "lcd.c" 1
 895 03fa C591      		lpm r28, Z+
 896 03fc D491      		lpm r29, Z
 897               		
 898               	 ;  0 "" 2
 899               	/* #NOAPP */
 900               	.LBE23:
 901 03fe D5B9      		out 0x5,r29
 902 0400 4398      		cbi 0x8,3
 903 0402 439A      		sbi 0x8,3
 904               	.LBB24:
 905 0404 FC01      		movw r30,r24
 906               	/* #APP */
 907               	 ;  124 "lcd.c" 1
 908 0406 C591      		lpm r28, Z+
 909 0408 D491      		lpm r29, Z
 910               		
 911               	 ;  0 "" 2
 912               	/* #NOAPP */
 913               	.LBE24:
 914 040a C5B9      		out 0x5,r28
 915 040c 4398      		cbi 0x8,3
 916 040e 439A      		sbi 0x8,3
 917               	.LBB25:
 125:lcd.c         **** 			write_data16(pgm_read_word(&digit1[(2-digit)*777+x+y*21]));
 918               		.stabn	68,0,125,.LM92-.LFBB4
 919               	.LM92:
 920 0410 FC01      		movw r30,r24
 921               	/* #APP */
 922               	 ;  125 "lcd.c" 1
 923 0412 C591      		lpm r28, Z+
 924 0414 D491      		lpm r29, Z
 925               		
 926               	 ;  0 "" 2
 927               	/* #NOAPP */
 928               	.LBE25:
 929 0416 D5B9      		out 0x5,r29
 930 0418 4398      		cbi 0x8,3
GAS LISTING /tmp/ccfDWI1C.s 			page 20


 931 041a 439A      		sbi 0x8,3
 932               	.LBB26:
 933 041c FC01      		movw r30,r24
 934               	/* #APP */
 935               	 ;  125 "lcd.c" 1
 936 041e C591      		lpm r28, Z+
 937 0420 D491      		lpm r29, Z
 938               		
 939               	 ;  0 "" 2
 940               	/* #NOAPP */
 941               	.LBE26:
 942 0422 C5B9      		out 0x5,r28
 943 0424 4398      		cbi 0x8,3
 944 0426 439A      		sbi 0x8,3
 123:lcd.c         **** 			write_data16(pgm_read_word(&digit1[(2-digit)*777+x+y*21]));
 945               		.stabn	68,0,123,.LM93-.LFBB4
 946               	.LM93:
 947 0428 6F5F      		subi r22,-1
 948 042a 7F4F      		sbci r23,-1
 123:lcd.c         **** 			write_data16(pgm_read_word(&digit1[(2-digit)*777+x+y*21]));
 949               		.stabn	68,0,123,.LM94-.LFBB4
 950               	.LM94:
 951 042c 0296      		adiw r24,2
 952 042e 6531      		cpi r22,21
 953 0430 7105      		cpc r23,__zero_reg__
 954 0432 01F4      		brne .L25
 118:lcd.c         **** 		for(x = 0; x <= 20; x++){
 955               		.stabn	68,0,118,.LM95-.LFBB4
 956               	.LM95:
 957 0434 265D      		subi r18,-42
 958 0436 3F4F      		sbci r19,-1
 959 0438 4B5E      		subi r20,-21
 960 043a 5F4F      		sbci r21,-1
 961 043c 4A17      		cp r20,r26
 962 043e 5B07      		cpc r21,r27
 963 0440 01F0      		breq .+2
 964 0442 00C0      		rjmp .L23
 965               	/* epilogue start */
 126:lcd.c         **** 		}
 127:lcd.c         **** 	}
 128:lcd.c         **** }
 966               		.stabn	68,0,128,.LM96-.LFBB4
 967               	.LM96:
 968 0444 DF91      		pop r29
 969 0446 CF91      		pop r28
 970 0448 0895      		ret
 971               		.size	pwr_kw, .-pwr_kw
 972               	.Lscope4:
 973               		.stabs	"",36,0,0,.Lscope4-.LFBB4
 974               		.stabs	"pwr_100:F(0,1)",36,0,130,pwr_100
 975               		.stabs	"digit:P(0,2)",64,0,130,24
 976               	.global	pwr_100
 977               		.type	pwr_100, @function
 978               	pwr_100:
 129:lcd.c         **** 
 130:lcd.c         **** void pwr_100(uint8_t digit){
 979               		.stabn	68,0,130,.LM97-.LFBB5
GAS LISTING /tmp/ccfDWI1C.s 			page 21


 980               	.LM97:
 981               	.LFBB5:
 982 044a CF93      		push r28
 983 044c DF93      		push r29
 984               	/* prologue: function */
 985               	/* frame size = 0 */
 986               	/* stack size = 2 */
 987               	.L__stack_usage = 2
 131:lcd.c         **** 	if(digit >= 10)
 988               		.stabn	68,0,131,.LM98-.LFBB5
 989               	.LM98:
 990 044e 8A30      		cpi r24,lo8(10)
 991 0450 00F0      		brlo .L30
 132:lcd.c         **** 		digit = 0;
 992               		.stabn	68,0,132,.LM99-.LFBB5
 993               	.LM99:
 994 0452 80E0      		ldi r24,0
 995               	.L30:
 133:lcd.c         **** 	uint16_t x, y;
 134:lcd.c         **** 	write_cmd(COLUMN_ADDRESS_SET);
 996               		.stabn	68,0,134,.LM100-.LFBB5
 997               	.LM100:
 998 0454 4498      		cbi 0x8,4
 999 0456 9AE2      		ldi r25,lo8(42)
 1000 0458 95B9      		out 0x5,r25
 1001 045a 4398      		cbi 0x8,3
 1002 045c 439A      		sbi 0x8,3
 1003 045e 449A      		sbi 0x8,4
 135:lcd.c         **** 	write_data16(110);
 1004               		.stabn	68,0,135,.LM101-.LFBB5
 1005               	.LM101:
 1006 0460 15B8      		out 0x5,__zero_reg__
 1007 0462 4398      		cbi 0x8,3
 1008 0464 439A      		sbi 0x8,3
 1009 0466 9EE6      		ldi r25,lo8(110)
 1010 0468 95B9      		out 0x5,r25
 1011 046a 4398      		cbi 0x8,3
 1012 046c 439A      		sbi 0x8,3
 136:lcd.c         **** 	write_data16(151);
 1013               		.stabn	68,0,136,.LM102-.LFBB5
 1014               	.LM102:
 1015 046e 15B8      		out 0x5,__zero_reg__
 1016 0470 4398      		cbi 0x8,3
 1017 0472 439A      		sbi 0x8,3
 1018 0474 97E9      		ldi r25,lo8(-105)
 1019 0476 95B9      		out 0x5,r25
 1020 0478 4398      		cbi 0x8,3
 1021 047a 439A      		sbi 0x8,3
 137:lcd.c         **** 	write_cmd(PAGE_ADDRESS_SET);
 1022               		.stabn	68,0,137,.LM103-.LFBB5
 1023               	.LM103:
 1024 047c 4498      		cbi 0x8,4
 1025 047e 9BE2      		ldi r25,lo8(43)
 1026 0480 95B9      		out 0x5,r25
 1027 0482 4398      		cbi 0x8,3
 1028 0484 439A      		sbi 0x8,3
 1029 0486 449A      		sbi 0x8,4
GAS LISTING /tmp/ccfDWI1C.s 			page 22


 138:lcd.c         **** 	write_data16(204);
 1030               		.stabn	68,0,138,.LM104-.LFBB5
 1031               	.LM104:
 1032 0488 15B8      		out 0x5,__zero_reg__
 1033 048a 4398      		cbi 0x8,3
 1034 048c 439A      		sbi 0x8,3
 1035 048e 9CEC      		ldi r25,lo8(-52)
 1036 0490 95B9      		out 0x5,r25
 1037 0492 4398      		cbi 0x8,3
 1038 0494 439A      		sbi 0x8,3
 139:lcd.c         **** 	write_data16(277);
 1039               		.stabn	68,0,139,.LM105-.LFBB5
 1040               	.LM105:
 1041 0496 91E0      		ldi r25,lo8(1)
 1042 0498 95B9      		out 0x5,r25
 1043 049a 4398      		cbi 0x8,3
 1044 049c 439A      		sbi 0x8,3
 1045 049e 95E1      		ldi r25,lo8(21)
 1046 04a0 95B9      		out 0x5,r25
 1047 04a2 4398      		cbi 0x8,3
 1048 04a4 439A      		sbi 0x8,3
 140:lcd.c         **** 	write_cmd(MEMORY_WRITE);
 1049               		.stabn	68,0,140,.LM106-.LFBB5
 1050               	.LM106:
 1051 04a6 4498      		cbi 0x8,4
 1052 04a8 9CE2      		ldi r25,lo8(44)
 1053 04aa 95B9      		out 0x5,r25
 1054 04ac 4398      		cbi 0x8,3
 1055 04ae 439A      		sbi 0x8,3
 1056 04b0 449A      		sbi 0x8,4
 1057               	.LBB27:
 141:lcd.c         **** 	for(y = 0; y <= 36; y++){
 142:lcd.c         **** 		for(x = 0; x <= 20; x++){
 143:lcd.c         **** 			write_data16(pgm_read_word(&digit2[(9-digit)*777+x+y*21]));
 1058               		.stabn	68,0,143,.LM107-.LFBB5
 1059               	.LM107:
 1060 04b2 29E0      		ldi r18,lo8(9)
 1061 04b4 30E0      		ldi r19,0
 1062 04b6 A901      		movw r20,r18
 1063 04b8 481B      		sub r20,r24
 1064 04ba 5109      		sbc r21,__zero_reg__
 1065 04bc CA01      		movw r24,r20
 1066 04be 29E0      		ldi r18,lo8(9)
 1067 04c0 33E0      		ldi r19,lo8(3)
 1068 04c2 829F      		mul r24,r18
 1069 04c4 A001      		movw r20,r0
 1070 04c6 839F      		mul r24,r19
 1071 04c8 500D      		add r21,r0
 1072 04ca 929F      		mul r25,r18
 1073 04cc 500D      		add r21,r0
 1074 04ce 1124      		clr r1
 1075 04d0 9A01      		movw r18,r20
 1076 04d2 220F      		lsl r18
 1077 04d4 331F      		rol r19
 1078 04d6 2050      		subi r18,lo8(-(digit2))
 1079 04d8 3040      		sbci r19,hi8(-(digit2))
 1080 04da DA01      		movw r26,r20
GAS LISTING /tmp/ccfDWI1C.s 			page 23


 1081 04dc A75F      		subi r26,-9
 1082 04de BC4F      		sbci r27,-4
 1083               	.L31:
 1084               	.LBE27:
 132:lcd.c         **** 	uint16_t x, y;
 1085               		.stabn	68,0,132,.LM108-.LFBB5
 1086               	.LM108:
 1087 04e0 C901      		movw r24,r18
 142:lcd.c         **** 			write_data16(pgm_read_word(&digit2[(9-digit)*777+x+y*21]));
 1088               		.stabn	68,0,142,.LM109-.LFBB5
 1089               	.LM109:
 1090 04e2 70E0      		ldi r23,0
 1091 04e4 60E0      		ldi r22,0
 1092               	.L32:
 1093               	.LBB28:
 1094               		.stabn	68,0,143,.LM110-.LFBB5
 1095               	.LM110:
 1096 04e6 FC01      		movw r30,r24
 1097               	/* #APP */
 1098               	 ;  143 "lcd.c" 1
 1099 04e8 C591      		lpm r28, Z+
 1100 04ea D491      		lpm r29, Z
 1101               		
 1102               	 ;  0 "" 2
 1103               	/* #NOAPP */
 1104               	.LBE28:
 1105 04ec D5B9      		out 0x5,r29
 1106 04ee 4398      		cbi 0x8,3
 1107 04f0 439A      		sbi 0x8,3
 1108               	.LBB29:
 1109 04f2 FC01      		movw r30,r24
 1110               	/* #APP */
 1111               	 ;  143 "lcd.c" 1
 1112 04f4 C591      		lpm r28, Z+
 1113 04f6 D491      		lpm r29, Z
 1114               		
 1115               	 ;  0 "" 2
 1116               	/* #NOAPP */
 1117               	.LBE29:
 1118 04f8 C5B9      		out 0x5,r28
 1119 04fa 4398      		cbi 0x8,3
 1120 04fc 439A      		sbi 0x8,3
 1121               	.LBB30:
 144:lcd.c         **** 			write_data16(pgm_read_word(&digit2[(9-digit)*777+x+y*21]));
 1122               		.stabn	68,0,144,.LM111-.LFBB5
 1123               	.LM111:
 1124 04fe FC01      		movw r30,r24
 1125               	/* #APP */
 1126               	 ;  144 "lcd.c" 1
 1127 0500 C591      		lpm r28, Z+
 1128 0502 D491      		lpm r29, Z
 1129               		
 1130               	 ;  0 "" 2
 1131               	/* #NOAPP */
 1132               	.LBE30:
 1133 0504 D5B9      		out 0x5,r29
 1134 0506 4398      		cbi 0x8,3
GAS LISTING /tmp/ccfDWI1C.s 			page 24


 1135 0508 439A      		sbi 0x8,3
 1136               	.LBB31:
 1137 050a FC01      		movw r30,r24
 1138               	/* #APP */
 1139               	 ;  144 "lcd.c" 1
 1140 050c C591      		lpm r28, Z+
 1141 050e D491      		lpm r29, Z
 1142               		
 1143               	 ;  0 "" 2
 1144               	/* #NOAPP */
 1145               	.LBE31:
 1146 0510 C5B9      		out 0x5,r28
 1147 0512 4398      		cbi 0x8,3
 1148 0514 439A      		sbi 0x8,3
 142:lcd.c         **** 			write_data16(pgm_read_word(&digit2[(9-digit)*777+x+y*21]));
 1149               		.stabn	68,0,142,.LM112-.LFBB5
 1150               	.LM112:
 1151 0516 6F5F      		subi r22,-1
 1152 0518 7F4F      		sbci r23,-1
 142:lcd.c         **** 			write_data16(pgm_read_word(&digit2[(9-digit)*777+x+y*21]));
 1153               		.stabn	68,0,142,.LM113-.LFBB5
 1154               	.LM113:
 1155 051a 0296      		adiw r24,2
 1156 051c 6531      		cpi r22,21
 1157 051e 7105      		cpc r23,__zero_reg__
 1158 0520 01F4      		brne .L32
 1159 0522 C901      		movw r24,r18
 145:lcd.c         **** 		}
 146:lcd.c         **** 		for(x = 0; x <= 20; x++){
 1160               		.stabn	68,0,146,.LM114-.LFBB5
 1161               	.LM114:
 1162 0524 70E0      		ldi r23,0
 1163 0526 60E0      		ldi r22,0
 1164               	.L33:
 1165               	.LBB32:
 147:lcd.c         **** 			write_data16(pgm_read_word(&digit2[(9-digit)*777+x+y*21]));
 1166               		.stabn	68,0,147,.LM115-.LFBB5
 1167               	.LM115:
 1168 0528 FC01      		movw r30,r24
 1169               	/* #APP */
 1170               	 ;  147 "lcd.c" 1
 1171 052a C591      		lpm r28, Z+
 1172 052c D491      		lpm r29, Z
 1173               		
 1174               	 ;  0 "" 2
 1175               	/* #NOAPP */
 1176               	.LBE32:
 1177 052e D5B9      		out 0x5,r29
 1178 0530 4398      		cbi 0x8,3
 1179 0532 439A      		sbi 0x8,3
 1180               	.LBB33:
 1181 0534 FC01      		movw r30,r24
 1182               	/* #APP */
 1183               	 ;  147 "lcd.c" 1
 1184 0536 C591      		lpm r28, Z+
 1185 0538 D491      		lpm r29, Z
 1186               		
GAS LISTING /tmp/ccfDWI1C.s 			page 25


 1187               	 ;  0 "" 2
 1188               	/* #NOAPP */
 1189               	.LBE33:
 1190 053a C5B9      		out 0x5,r28
 1191 053c 4398      		cbi 0x8,3
 1192 053e 439A      		sbi 0x8,3
 1193               	.LBB34:
 148:lcd.c         **** 			write_data16(pgm_read_word(&digit2[(9-digit)*777+x+y*21]));
 1194               		.stabn	68,0,148,.LM116-.LFBB5
 1195               	.LM116:
 1196 0540 FC01      		movw r30,r24
 1197               	/* #APP */
 1198               	 ;  148 "lcd.c" 1
 1199 0542 C591      		lpm r28, Z+
 1200 0544 D491      		lpm r29, Z
 1201               		
 1202               	 ;  0 "" 2
 1203               	/* #NOAPP */
 1204               	.LBE34:
 1205 0546 D5B9      		out 0x5,r29
 1206 0548 4398      		cbi 0x8,3
 1207 054a 439A      		sbi 0x8,3
 1208               	.LBB35:
 1209 054c FC01      		movw r30,r24
 1210               	/* #APP */
 1211               	 ;  148 "lcd.c" 1
 1212 054e C591      		lpm r28, Z+
 1213 0550 D491      		lpm r29, Z
 1214               		
 1215               	 ;  0 "" 2
 1216               	/* #NOAPP */
 1217               	.LBE35:
 1218 0552 C5B9      		out 0x5,r28
 1219 0554 4398      		cbi 0x8,3
 1220 0556 439A      		sbi 0x8,3
 146:lcd.c         **** 			write_data16(pgm_read_word(&digit2[(9-digit)*777+x+y*21]));
 1221               		.stabn	68,0,146,.LM117-.LFBB5
 1222               	.LM117:
 1223 0558 6F5F      		subi r22,-1
 1224 055a 7F4F      		sbci r23,-1
 146:lcd.c         **** 			write_data16(pgm_read_word(&digit2[(9-digit)*777+x+y*21]));
 1225               		.stabn	68,0,146,.LM118-.LFBB5
 1226               	.LM118:
 1227 055c 0296      		adiw r24,2
 1228 055e 6531      		cpi r22,21
 1229 0560 7105      		cpc r23,__zero_reg__
 1230 0562 01F4      		brne .L33
 141:lcd.c         **** 		for(x = 0; x <= 20; x++){
 1231               		.stabn	68,0,141,.LM119-.LFBB5
 1232               	.LM119:
 1233 0564 265D      		subi r18,-42
 1234 0566 3F4F      		sbci r19,-1
 1235 0568 4B5E      		subi r20,-21
 1236 056a 5F4F      		sbci r21,-1
 1237 056c 4A17      		cp r20,r26
 1238 056e 5B07      		cpc r21,r27
 1239 0570 01F0      		breq .+2
GAS LISTING /tmp/ccfDWI1C.s 			page 26


 1240 0572 00C0      		rjmp .L31
 1241               	/* epilogue start */
 149:lcd.c         **** 		}
 150:lcd.c         **** 	}
 151:lcd.c         **** }
 1242               		.stabn	68,0,151,.LM120-.LFBB5
 1243               	.LM120:
 1244 0574 DF91      		pop r29
 1245 0576 CF91      		pop r28
 1246 0578 0895      		ret
 1247               		.size	pwr_100, .-pwr_100
 1248               	.Lscope5:
 1249               		.stabs	"",36,0,0,.Lscope5-.LFBB5
 1250               		.stabs	"pwr_10:F(0,1)",36,0,153,pwr_10
 1251               		.stabs	"digit:P(0,2)",64,0,153,24
 1252               	.global	pwr_10
 1253               		.type	pwr_10, @function
 1254               	pwr_10:
 152:lcd.c         **** 
 153:lcd.c         **** void pwr_10(uint8_t digit){
 1255               		.stabn	68,0,153,.LM121-.LFBB6
 1256               	.LM121:
 1257               	.LFBB6:
 1258 057a CF93      		push r28
 1259 057c DF93      		push r29
 1260               	/* prologue: function */
 1261               	/* frame size = 0 */
 1262               	/* stack size = 2 */
 1263               	.L__stack_usage = 2
 154:lcd.c         **** 	if(digit >= 10)
 1264               		.stabn	68,0,154,.LM122-.LFBB6
 1265               	.LM122:
 1266 057e 8A30      		cpi r24,lo8(10)
 1267 0580 00F0      		brlo .L38
 155:lcd.c         **** 		digit = 0;
 1268               		.stabn	68,0,155,.LM123-.LFBB6
 1269               	.LM123:
 1270 0582 80E0      		ldi r24,0
 1271               	.L38:
 156:lcd.c         **** 	uint16_t x, y;
 157:lcd.c         **** 	write_cmd(COLUMN_ADDRESS_SET);
 1272               		.stabn	68,0,157,.LM124-.LFBB6
 1273               	.LM124:
 1274 0584 4498      		cbi 0x8,4
 1275 0586 9AE2      		ldi r25,lo8(42)
 1276 0588 95B9      		out 0x5,r25
 1277 058a 4398      		cbi 0x8,3
 1278 058c 439A      		sbi 0x8,3
 1279 058e 449A      		sbi 0x8,4
 158:lcd.c         **** 	write_data16(160);
 1280               		.stabn	68,0,158,.LM125-.LFBB6
 1281               	.LM125:
 1282 0590 15B8      		out 0x5,__zero_reg__
 1283 0592 4398      		cbi 0x8,3
 1284 0594 439A      		sbi 0x8,3
 1285 0596 90EA      		ldi r25,lo8(-96)
 1286 0598 95B9      		out 0x5,r25
GAS LISTING /tmp/ccfDWI1C.s 			page 27


 1287 059a 4398      		cbi 0x8,3
 1288 059c 439A      		sbi 0x8,3
 159:lcd.c         **** 	write_data16(201);
 1289               		.stabn	68,0,159,.LM126-.LFBB6
 1290               	.LM126:
 1291 059e 15B8      		out 0x5,__zero_reg__
 1292 05a0 4398      		cbi 0x8,3
 1293 05a2 439A      		sbi 0x8,3
 1294 05a4 99EC      		ldi r25,lo8(-55)
 1295 05a6 95B9      		out 0x5,r25
 1296 05a8 4398      		cbi 0x8,3
 1297 05aa 439A      		sbi 0x8,3
 160:lcd.c         **** 	write_cmd(PAGE_ADDRESS_SET);
 1298               		.stabn	68,0,160,.LM127-.LFBB6
 1299               	.LM127:
 1300 05ac 4498      		cbi 0x8,4
 1301 05ae 9BE2      		ldi r25,lo8(43)
 1302 05b0 95B9      		out 0x5,r25
 1303 05b2 4398      		cbi 0x8,3
 1304 05b4 439A      		sbi 0x8,3
 1305 05b6 449A      		sbi 0x8,4
 161:lcd.c         **** 	write_data16(204);
 1306               		.stabn	68,0,161,.LM128-.LFBB6
 1307               	.LM128:
 1308 05b8 15B8      		out 0x5,__zero_reg__
 1309 05ba 4398      		cbi 0x8,3
 1310 05bc 439A      		sbi 0x8,3
 1311 05be 9CEC      		ldi r25,lo8(-52)
 1312 05c0 95B9      		out 0x5,r25
 1313 05c2 4398      		cbi 0x8,3
 1314 05c4 439A      		sbi 0x8,3
 162:lcd.c         **** 	write_data16(277);
 1315               		.stabn	68,0,162,.LM129-.LFBB6
 1316               	.LM129:
 1317 05c6 91E0      		ldi r25,lo8(1)
 1318 05c8 95B9      		out 0x5,r25
 1319 05ca 4398      		cbi 0x8,3
 1320 05cc 439A      		sbi 0x8,3
 1321 05ce 95E1      		ldi r25,lo8(21)
 1322 05d0 95B9      		out 0x5,r25
 1323 05d2 4398      		cbi 0x8,3
 1324 05d4 439A      		sbi 0x8,3
 163:lcd.c         **** 	write_cmd(MEMORY_WRITE);
 1325               		.stabn	68,0,163,.LM130-.LFBB6
 1326               	.LM130:
 1327 05d6 4498      		cbi 0x8,4
 1328 05d8 9CE2      		ldi r25,lo8(44)
 1329 05da 95B9      		out 0x5,r25
 1330 05dc 4398      		cbi 0x8,3
 1331 05de 439A      		sbi 0x8,3
 1332 05e0 449A      		sbi 0x8,4
 1333               	.LBB36:
 164:lcd.c         **** 	for(y = 0; y <= 36; y++){
 165:lcd.c         **** 		for(x = 0; x <= 20; x++){
 166:lcd.c         **** 			write_data16(pgm_read_word(&d3[(9-digit)*777+x+y*21]));
 1334               		.stabn	68,0,166,.LM131-.LFBB6
 1335               	.LM131:
GAS LISTING /tmp/ccfDWI1C.s 			page 28


 1336 05e2 29E0      		ldi r18,lo8(9)
 1337 05e4 30E0      		ldi r19,0
 1338 05e6 A901      		movw r20,r18
 1339 05e8 481B      		sub r20,r24
 1340 05ea 5109      		sbc r21,__zero_reg__
 1341 05ec CA01      		movw r24,r20
 1342 05ee 29E0      		ldi r18,lo8(9)
 1343 05f0 33E0      		ldi r19,lo8(3)
 1344 05f2 829F      		mul r24,r18
 1345 05f4 A001      		movw r20,r0
 1346 05f6 839F      		mul r24,r19
 1347 05f8 500D      		add r21,r0
 1348 05fa 929F      		mul r25,r18
 1349 05fc 500D      		add r21,r0
 1350 05fe 1124      		clr r1
 1351 0600 9A01      		movw r18,r20
 1352 0602 220F      		lsl r18
 1353 0604 331F      		rol r19
 1354 0606 2050      		subi r18,lo8(-(d3))
 1355 0608 3040      		sbci r19,hi8(-(d3))
 1356 060a DA01      		movw r26,r20
 1357 060c A75F      		subi r26,-9
 1358 060e BC4F      		sbci r27,-4
 1359               	.L39:
 1360               	.LBE36:
 155:lcd.c         **** 	uint16_t x, y;
 1361               		.stabn	68,0,155,.LM132-.LFBB6
 1362               	.LM132:
 1363 0610 C901      		movw r24,r18
 165:lcd.c         **** 			write_data16(pgm_read_word(&d3[(9-digit)*777+x+y*21]));
 1364               		.stabn	68,0,165,.LM133-.LFBB6
 1365               	.LM133:
 1366 0612 70E0      		ldi r23,0
 1367 0614 60E0      		ldi r22,0
 1368               	.L40:
 1369               	.LBB37:
 1370               		.stabn	68,0,166,.LM134-.LFBB6
 1371               	.LM134:
 1372 0616 FC01      		movw r30,r24
 1373               	/* #APP */
 1374               	 ;  166 "lcd.c" 1
 1375 0618 C591      		lpm r28, Z+
 1376 061a D491      		lpm r29, Z
 1377               		
 1378               	 ;  0 "" 2
 1379               	/* #NOAPP */
 1380               	.LBE37:
 1381 061c D5B9      		out 0x5,r29
 1382 061e 4398      		cbi 0x8,3
 1383 0620 439A      		sbi 0x8,3
 1384               	.LBB38:
 1385 0622 FC01      		movw r30,r24
 1386               	/* #APP */
 1387               	 ;  166 "lcd.c" 1
 1388 0624 C591      		lpm r28, Z+
 1389 0626 D491      		lpm r29, Z
 1390               		
GAS LISTING /tmp/ccfDWI1C.s 			page 29


 1391               	 ;  0 "" 2
 1392               	/* #NOAPP */
 1393               	.LBE38:
 1394 0628 C5B9      		out 0x5,r28
 1395 062a 4398      		cbi 0x8,3
 1396 062c 439A      		sbi 0x8,3
 1397               	.LBB39:
 167:lcd.c         **** 			write_data16(pgm_read_word(&d3[(9-digit)*777+x+y*21]));
 1398               		.stabn	68,0,167,.LM135-.LFBB6
 1399               	.LM135:
 1400 062e FC01      		movw r30,r24
 1401               	/* #APP */
 1402               	 ;  167 "lcd.c" 1
 1403 0630 C591      		lpm r28, Z+
 1404 0632 D491      		lpm r29, Z
 1405               		
 1406               	 ;  0 "" 2
 1407               	/* #NOAPP */
 1408               	.LBE39:
 1409 0634 D5B9      		out 0x5,r29
 1410 0636 4398      		cbi 0x8,3
 1411 0638 439A      		sbi 0x8,3
 1412               	.LBB40:
 1413 063a FC01      		movw r30,r24
 1414               	/* #APP */
 1415               	 ;  167 "lcd.c" 1
 1416 063c C591      		lpm r28, Z+
 1417 063e D491      		lpm r29, Z
 1418               		
 1419               	 ;  0 "" 2
 1420               	/* #NOAPP */
 1421               	.LBE40:
 1422 0640 C5B9      		out 0x5,r28
 1423 0642 4398      		cbi 0x8,3
 1424 0644 439A      		sbi 0x8,3
 165:lcd.c         **** 			write_data16(pgm_read_word(&d3[(9-digit)*777+x+y*21]));
 1425               		.stabn	68,0,165,.LM136-.LFBB6
 1426               	.LM136:
 1427 0646 6F5F      		subi r22,-1
 1428 0648 7F4F      		sbci r23,-1
 165:lcd.c         **** 			write_data16(pgm_read_word(&d3[(9-digit)*777+x+y*21]));
 1429               		.stabn	68,0,165,.LM137-.LFBB6
 1430               	.LM137:
 1431 064a 0296      		adiw r24,2
 1432 064c 6531      		cpi r22,21
 1433 064e 7105      		cpc r23,__zero_reg__
 1434 0650 01F4      		brne .L40
 1435 0652 C901      		movw r24,r18
 168:lcd.c         **** 		}
 169:lcd.c         **** 		for(x = 0; x <= 20; x++){
 1436               		.stabn	68,0,169,.LM138-.LFBB6
 1437               	.LM138:
 1438 0654 70E0      		ldi r23,0
 1439 0656 60E0      		ldi r22,0
 1440               	.L41:
 1441               	.LBB41:
 170:lcd.c         **** 			write_data16(pgm_read_word(&d3[(9-digit)*777+x+y*21]));
GAS LISTING /tmp/ccfDWI1C.s 			page 30


 1442               		.stabn	68,0,170,.LM139-.LFBB6
 1443               	.LM139:
 1444 0658 FC01      		movw r30,r24
 1445               	/* #APP */
 1446               	 ;  170 "lcd.c" 1
 1447 065a C591      		lpm r28, Z+
 1448 065c D491      		lpm r29, Z
 1449               		
 1450               	 ;  0 "" 2
 1451               	/* #NOAPP */
 1452               	.LBE41:
 1453 065e D5B9      		out 0x5,r29
 1454 0660 4398      		cbi 0x8,3
 1455 0662 439A      		sbi 0x8,3
 1456               	.LBB42:
 1457 0664 FC01      		movw r30,r24
 1458               	/* #APP */
 1459               	 ;  170 "lcd.c" 1
 1460 0666 C591      		lpm r28, Z+
 1461 0668 D491      		lpm r29, Z
 1462               		
 1463               	 ;  0 "" 2
 1464               	/* #NOAPP */
 1465               	.LBE42:
 1466 066a C5B9      		out 0x5,r28
 1467 066c 4398      		cbi 0x8,3
 1468 066e 439A      		sbi 0x8,3
 1469               	.LBB43:
 171:lcd.c         **** 			write_data16(pgm_read_word(&d3[(9-digit)*777+x+y*21]));
 1470               		.stabn	68,0,171,.LM140-.LFBB6
 1471               	.LM140:
 1472 0670 FC01      		movw r30,r24
 1473               	/* #APP */
 1474               	 ;  171 "lcd.c" 1
 1475 0672 C591      		lpm r28, Z+
 1476 0674 D491      		lpm r29, Z
 1477               		
 1478               	 ;  0 "" 2
 1479               	/* #NOAPP */
 1480               	.LBE43:
 1481 0676 D5B9      		out 0x5,r29
 1482 0678 4398      		cbi 0x8,3
 1483 067a 439A      		sbi 0x8,3
 1484               	.LBB44:
 1485 067c FC01      		movw r30,r24
 1486               	/* #APP */
 1487               	 ;  171 "lcd.c" 1
 1488 067e C591      		lpm r28, Z+
 1489 0680 D491      		lpm r29, Z
 1490               		
 1491               	 ;  0 "" 2
 1492               	/* #NOAPP */
 1493               	.LBE44:
 1494 0682 C5B9      		out 0x5,r28
 1495 0684 4398      		cbi 0x8,3
 1496 0686 439A      		sbi 0x8,3
 169:lcd.c         **** 			write_data16(pgm_read_word(&d3[(9-digit)*777+x+y*21]));
GAS LISTING /tmp/ccfDWI1C.s 			page 31


 1497               		.stabn	68,0,169,.LM141-.LFBB6
 1498               	.LM141:
 1499 0688 6F5F      		subi r22,-1
 1500 068a 7F4F      		sbci r23,-1
 169:lcd.c         **** 			write_data16(pgm_read_word(&d3[(9-digit)*777+x+y*21]));
 1501               		.stabn	68,0,169,.LM142-.LFBB6
 1502               	.LM142:
 1503 068c 0296      		adiw r24,2
 1504 068e 6531      		cpi r22,21
 1505 0690 7105      		cpc r23,__zero_reg__
 1506 0692 01F4      		brne .L41
 164:lcd.c         **** 		for(x = 0; x <= 20; x++){
 1507               		.stabn	68,0,164,.LM143-.LFBB6
 1508               	.LM143:
 1509 0694 265D      		subi r18,-42
 1510 0696 3F4F      		sbci r19,-1
 1511 0698 4B5E      		subi r20,-21
 1512 069a 5F4F      		sbci r21,-1
 1513 069c 4A17      		cp r20,r26
 1514 069e 5B07      		cpc r21,r27
 1515 06a0 01F0      		breq .+2
 1516 06a2 00C0      		rjmp .L39
 1517               	/* epilogue start */
 172:lcd.c         **** 		}
 173:lcd.c         **** 	}
 174:lcd.c         **** }
 1518               		.stabn	68,0,174,.LM144-.LFBB6
 1519               	.LM144:
 1520 06a4 DF91      		pop r29
 1521 06a6 CF91      		pop r28
 1522 06a8 0895      		ret
 1523               		.size	pwr_10, .-pwr_10
 1524               	.Lscope6:
 1525               		.stabs	"",36,0,0,.Lscope6-.LFBB6
 1526               		.stabs	"bat_pwr:F(0,1)",36,0,176,bat_pwr
 1527               		.stabs	"state:P(0,8)=@s8;-16;",64,0,176,24
 1528               		.stabs	"_Bool:t(0,8)",128,0,0,0
 1529               	.global	bat_pwr
 1530               		.type	bat_pwr, @function
 1531               	bat_pwr:
 175:lcd.c         **** 
 176:lcd.c         **** void bat_pwr(bool state){
 1532               		.stabn	68,0,176,.LM145-.LFBB7
 1533               	.LM145:
 1534               	.LFBB7:
 1535               	/* prologue: function */
 1536               	/* frame size = 0 */
 1537               	/* stack size = 0 */
 1538               	.L__stack_usage = 0
 177:lcd.c         **** 	//  14px wide, 25px tall
 178:lcd.c         **** 	//  Anchoring to coordinate (106, 28)
 179:lcd.c         **** 	uint16_t x, y;
 180:lcd.c         **** 	write_cmd(COLUMN_ADDRESS_SET);
 1539               		.stabn	68,0,180,.LM146-.LFBB7
 1540               	.LM146:
 1541 06aa 4498      		cbi 0x8,4
 1542 06ac 9AE2      		ldi r25,lo8(42)
GAS LISTING /tmp/ccfDWI1C.s 			page 32


 1543 06ae 95B9      		out 0x5,r25
 1544 06b0 4398      		cbi 0x8,3
 1545 06b2 439A      		sbi 0x8,3
 1546 06b4 449A      		sbi 0x8,4
 181:lcd.c         **** 	write_data16(106);
 1547               		.stabn	68,0,181,.LM147-.LFBB7
 1548               	.LM147:
 1549 06b6 15B8      		out 0x5,__zero_reg__
 1550 06b8 4398      		cbi 0x8,3
 1551 06ba 439A      		sbi 0x8,3
 1552 06bc 9AE6      		ldi r25,lo8(106)
 1553 06be 95B9      		out 0x5,r25
 1554 06c0 4398      		cbi 0x8,3
 1555 06c2 439A      		sbi 0x8,3
 182:lcd.c         **** 	write_data16(133);
 1556               		.stabn	68,0,182,.LM148-.LFBB7
 1557               	.LM148:
 1558 06c4 15B8      		out 0x5,__zero_reg__
 1559 06c6 4398      		cbi 0x8,3
 1560 06c8 439A      		sbi 0x8,3
 1561 06ca 95E8      		ldi r25,lo8(-123)
 1562 06cc 95B9      		out 0x5,r25
 1563 06ce 4398      		cbi 0x8,3
 1564 06d0 439A      		sbi 0x8,3
 183:lcd.c         **** 	write_cmd(PAGE_ADDRESS_SET);
 1565               		.stabn	68,0,183,.LM149-.LFBB7
 1566               	.LM149:
 1567 06d2 4498      		cbi 0x8,4
 1568 06d4 9BE2      		ldi r25,lo8(43)
 1569 06d6 95B9      		out 0x5,r25
 1570 06d8 4398      		cbi 0x8,3
 1571 06da 439A      		sbi 0x8,3
 1572 06dc 449A      		sbi 0x8,4
 184:lcd.c         **** 	write_data16(28);
 1573               		.stabn	68,0,184,.LM150-.LFBB7
 1574               	.LM150:
 1575 06de 15B8      		out 0x5,__zero_reg__
 1576 06e0 4398      		cbi 0x8,3
 1577 06e2 439A      		sbi 0x8,3
 1578 06e4 9CE1      		ldi r25,lo8(28)
 1579 06e6 95B9      		out 0x5,r25
 1580 06e8 4398      		cbi 0x8,3
 1581 06ea 439A      		sbi 0x8,3
 185:lcd.c         **** 	write_data16(77);
 1582               		.stabn	68,0,185,.LM151-.LFBB7
 1583               	.LM151:
 1584 06ec 15B8      		out 0x5,__zero_reg__
 1585 06ee 4398      		cbi 0x8,3
 1586 06f0 439A      		sbi 0x8,3
 1587 06f2 9DE4      		ldi r25,lo8(77)
 1588 06f4 95B9      		out 0x5,r25
 1589 06f6 4398      		cbi 0x8,3
 1590 06f8 439A      		sbi 0x8,3
 186:lcd.c         **** 	write_cmd(MEMORY_WRITE);
 1591               		.stabn	68,0,186,.LM152-.LFBB7
 1592               	.LM152:
 1593 06fa 4498      		cbi 0x8,4
GAS LISTING /tmp/ccfDWI1C.s 			page 33


 1594 06fc 9CE2      		ldi r25,lo8(44)
 1595 06fe 95B9      		out 0x5,r25
 1596 0700 4398      		cbi 0x8,3
 1597 0702 439A      		sbi 0x8,3
 1598 0704 449A      		sbi 0x8,4
 1599 0706 20E0      		ldi r18,lo8(BATDRN)
 1600 0708 30E0      		ldi r19,hi8(BATDRN)
 187:lcd.c         **** 	if(state){
 1601               		.stabn	68,0,187,.LM153-.LFBB7
 1602               	.LM153:
 1603 070a 70E0      		ldi r23,0
 1604 070c 60E0      		ldi r22,0
 1605 070e 8823      		tst r24
 1606 0710 01F4      		brne .+2
 1607 0712 00C0      		rjmp .L47
 1608 0714 20E0      		ldi r18,lo8(BATCHR)
 1609 0716 30E0      		ldi r19,hi8(BATCHR)
 1610 0718 70E0      		ldi r23,0
 1611 071a 60E0      		ldi r22,0
 1612               	.L48:
 176:lcd.c         **** 	//  14px wide, 25px tall
 1613               		.stabn	68,0,176,.LM154-.LFBB7
 1614               	.LM154:
 1615 071c C901      		movw r24,r18
 188:lcd.c         **** 		for(y = 0; y <= 24; y++){
 189:lcd.c         **** 			for(x = 0; x <= 13; x++){
 1616               		.stabn	68,0,189,.LM155-.LFBB7
 1617               	.LM155:
 1618 071e 50E0      		ldi r21,0
 1619 0720 40E0      		ldi r20,0
 1620               	.L49:
 1621               	.LBB45:
 190:lcd.c         **** 				write_data16(pgm_read_word_near(&BATCHR[x+y*14]));
 1622               		.stabn	68,0,190,.LM156-.LFBB7
 1623               	.LM156:
 1624 0722 FC01      		movw r30,r24
 1625               	/* #APP */
 1626               	 ;  190 "lcd.c" 1
 1627 0724 A591      		lpm r26, Z+
 1628 0726 B491      		lpm r27, Z
 1629               		
 1630               	 ;  0 "" 2
 1631               	/* #NOAPP */
 1632               	.LBE45:
 1633 0728 B5B9      		out 0x5,r27
 1634 072a 4398      		cbi 0x8,3
 1635 072c 439A      		sbi 0x8,3
 1636               	.LBB46:
 1637 072e FC01      		movw r30,r24
 1638               	/* #APP */
 1639               	 ;  190 "lcd.c" 1
 1640 0730 A591      		lpm r26, Z+
 1641 0732 B491      		lpm r27, Z
 1642               		
 1643               	 ;  0 "" 2
 1644               	/* #NOAPP */
 1645               	.LBE46:
GAS LISTING /tmp/ccfDWI1C.s 			page 34


 1646 0734 A5B9      		out 0x5,r26
 1647 0736 4398      		cbi 0x8,3
 1648 0738 439A      		sbi 0x8,3
 1649               	.LBB47:
 191:lcd.c         **** 				write_data16(pgm_read_word_near(&BATCHR[x+y*14]));
 1650               		.stabn	68,0,191,.LM157-.LFBB7
 1651               	.LM157:
 1652 073a FC01      		movw r30,r24
 1653               	/* #APP */
 1654               	 ;  191 "lcd.c" 1
 1655 073c A591      		lpm r26, Z+
 1656 073e B491      		lpm r27, Z
 1657               		
 1658               	 ;  0 "" 2
 1659               	/* #NOAPP */
 1660               	.LBE47:
 1661 0740 B5B9      		out 0x5,r27
 1662 0742 4398      		cbi 0x8,3
 1663 0744 439A      		sbi 0x8,3
 1664               	.LBB48:
 1665 0746 FC01      		movw r30,r24
 1666               	/* #APP */
 1667               	 ;  191 "lcd.c" 1
 1668 0748 A591      		lpm r26, Z+
 1669 074a B491      		lpm r27, Z
 1670               		
 1671               	 ;  0 "" 2
 1672               	/* #NOAPP */
 1673               	.LBE48:
 1674 074c A5B9      		out 0x5,r26
 1675 074e 4398      		cbi 0x8,3
 1676 0750 439A      		sbi 0x8,3
 189:lcd.c         **** 				write_data16(pgm_read_word_near(&BATCHR[x+y*14]));
 1677               		.stabn	68,0,189,.LM158-.LFBB7
 1678               	.LM158:
 1679 0752 4F5F      		subi r20,-1
 1680 0754 5F4F      		sbci r21,-1
 189:lcd.c         **** 				write_data16(pgm_read_word_near(&BATCHR[x+y*14]));
 1681               		.stabn	68,0,189,.LM159-.LFBB7
 1682               	.LM159:
 1683 0756 0296      		adiw r24,2
 1684 0758 4E30      		cpi r20,14
 1685 075a 5105      		cpc r21,__zero_reg__
 1686 075c 01F4      		brne .L49
 1687 075e C901      		movw r24,r18
 192:lcd.c         **** 			}
 193:lcd.c         **** 			for(x = 0; x <= 13; x++){
 1688               		.stabn	68,0,193,.LM160-.LFBB7
 1689               	.LM160:
 1690 0760 50E0      		ldi r21,0
 1691 0762 40E0      		ldi r20,0
 1692               	.L50:
 1693               	.LBB49:
 194:lcd.c         **** 				write_data16(pgm_read_word_near(&BATCHR[x+y*14]));
 1694               		.stabn	68,0,194,.LM161-.LFBB7
 1695               	.LM161:
 1696 0764 FC01      		movw r30,r24
GAS LISTING /tmp/ccfDWI1C.s 			page 35


 1697               	/* #APP */
 1698               	 ;  194 "lcd.c" 1
 1699 0766 A591      		lpm r26, Z+
 1700 0768 B491      		lpm r27, Z
 1701               		
 1702               	 ;  0 "" 2
 1703               	/* #NOAPP */
 1704               	.LBE49:
 1705 076a B5B9      		out 0x5,r27
 1706 076c 4398      		cbi 0x8,3
 1707 076e 439A      		sbi 0x8,3
 1708               	.LBB50:
 1709 0770 FC01      		movw r30,r24
 1710               	/* #APP */
 1711               	 ;  194 "lcd.c" 1
 1712 0772 A591      		lpm r26, Z+
 1713 0774 B491      		lpm r27, Z
 1714               		
 1715               	 ;  0 "" 2
 1716               	/* #NOAPP */
 1717               	.LBE50:
 1718 0776 A5B9      		out 0x5,r26
 1719 0778 4398      		cbi 0x8,3
 1720 077a 439A      		sbi 0x8,3
 1721               	.LBB51:
 195:lcd.c         **** 				write_data16(pgm_read_word_near(&BATCHR[x+y*14]));
 1722               		.stabn	68,0,195,.LM162-.LFBB7
 1723               	.LM162:
 1724 077c FC01      		movw r30,r24
 1725               	/* #APP */
 1726               	 ;  195 "lcd.c" 1
 1727 077e A591      		lpm r26, Z+
 1728 0780 B491      		lpm r27, Z
 1729               		
 1730               	 ;  0 "" 2
 1731               	/* #NOAPP */
 1732               	.LBE51:
 1733 0782 B5B9      		out 0x5,r27
 1734 0784 4398      		cbi 0x8,3
 1735 0786 439A      		sbi 0x8,3
 1736               	.LBB52:
 1737 0788 FC01      		movw r30,r24
 1738               	/* #APP */
 1739               	 ;  195 "lcd.c" 1
 1740 078a A591      		lpm r26, Z+
 1741 078c B491      		lpm r27, Z
 1742               		
 1743               	 ;  0 "" 2
 1744               	/* #NOAPP */
 1745               	.LBE52:
 1746 078e A5B9      		out 0x5,r26
 1747 0790 4398      		cbi 0x8,3
 1748 0792 439A      		sbi 0x8,3
 193:lcd.c         **** 				write_data16(pgm_read_word_near(&BATCHR[x+y*14]));
 1749               		.stabn	68,0,193,.LM163-.LFBB7
 1750               	.LM163:
 1751 0794 4F5F      		subi r20,-1
GAS LISTING /tmp/ccfDWI1C.s 			page 36


 1752 0796 5F4F      		sbci r21,-1
 193:lcd.c         **** 				write_data16(pgm_read_word_near(&BATCHR[x+y*14]));
 1753               		.stabn	68,0,193,.LM164-.LFBB7
 1754               	.LM164:
 1755 0798 0296      		adiw r24,2
 1756 079a 4E30      		cpi r20,14
 1757 079c 5105      		cpc r21,__zero_reg__
 1758 079e 01F4      		brne .L50
 188:lcd.c         **** 			for(x = 0; x <= 13; x++){
 1759               		.stabn	68,0,188,.LM165-.LFBB7
 1760               	.LM165:
 1761 07a0 245E      		subi r18,-28
 1762 07a2 3F4F      		sbci r19,-1
 1763 07a4 625F      		subi r22,-14
 1764 07a6 7F4F      		sbci r23,-1
 1765 07a8 6E35      		cpi r22,94
 1766 07aa 81E0      		ldi r24,1
 1767 07ac 7807      		cpc r23,r24
 1768 07ae 01F0      		breq .+2
 1769 07b0 00C0      		rjmp .L48
 1770               	.L45:
 1771               	/* epilogue start */
 196:lcd.c         **** 			}
 197:lcd.c         **** 		}
 198:lcd.c         **** 	}
 199:lcd.c         **** 	else {
 200:lcd.c         **** 		for(y = 0; y <= 24; y++){
 201:lcd.c         **** 			for(x = 0; x <= 13; x++){
 202:lcd.c         **** 				write_data16(pgm_read_word_near(&BATDRN[x+y*14]));
 203:lcd.c         **** 				write_data16(pgm_read_word_near(&BATDRN[x+y*14]));
 204:lcd.c         **** 			}
 205:lcd.c         **** 			for(x = 0; x <= 13; x++){
 206:lcd.c         **** 				write_data16(pgm_read_word_near(&BATDRN[x+y*14]));
 207:lcd.c         **** 				write_data16(pgm_read_word_near(&BATDRN[x+y*14]));
 208:lcd.c         **** 			}
 209:lcd.c         **** 		}
 210:lcd.c         **** 	}
 211:lcd.c         **** }
 1772               		.stabn	68,0,211,.LM166-.LFBB7
 1773               	.LM166:
 1774 07b2 0895      		ret
 1775               	.L52:
 1776               	.LBB53:
 202:lcd.c         **** 				write_data16(pgm_read_word_near(&BATDRN[x+y*14]));
 1777               		.stabn	68,0,202,.LM167-.LFBB7
 1778               	.LM167:
 1779 07b4 FC01      		movw r30,r24
 1780               	/* #APP */
 1781               	 ;  202 "lcd.c" 1
 1782 07b6 A591      		lpm r26, Z+
 1783 07b8 B491      		lpm r27, Z
 1784               		
 1785               	 ;  0 "" 2
 1786               	/* #NOAPP */
 1787               	.LBE53:
 1788 07ba B5B9      		out 0x5,r27
 1789 07bc 4398      		cbi 0x8,3
GAS LISTING /tmp/ccfDWI1C.s 			page 37


 1790 07be 439A      		sbi 0x8,3
 1791               	.LBB54:
 1792 07c0 FC01      		movw r30,r24
 1793               	/* #APP */
 1794               	 ;  202 "lcd.c" 1
 1795 07c2 A591      		lpm r26, Z+
 1796 07c4 B491      		lpm r27, Z
 1797               		
 1798               	 ;  0 "" 2
 1799               	/* #NOAPP */
 1800               	.LBE54:
 1801 07c6 A5B9      		out 0x5,r26
 1802 07c8 4398      		cbi 0x8,3
 1803 07ca 439A      		sbi 0x8,3
 1804               	.LBB55:
 203:lcd.c         **** 			}
 1805               		.stabn	68,0,203,.LM168-.LFBB7
 1806               	.LM168:
 1807 07cc FC01      		movw r30,r24
 1808               	/* #APP */
 1809               	 ;  203 "lcd.c" 1
 1810 07ce A591      		lpm r26, Z+
 1811 07d0 B491      		lpm r27, Z
 1812               		
 1813               	 ;  0 "" 2
 1814               	/* #NOAPP */
 1815               	.LBE55:
 1816 07d2 B5B9      		out 0x5,r27
 1817 07d4 4398      		cbi 0x8,3
 1818 07d6 439A      		sbi 0x8,3
 1819               	.LBB56:
 1820 07d8 FC01      		movw r30,r24
 1821               	/* #APP */
 1822               	 ;  203 "lcd.c" 1
 1823 07da A591      		lpm r26, Z+
 1824 07dc B491      		lpm r27, Z
 1825               		
 1826               	 ;  0 "" 2
 1827               	/* #NOAPP */
 1828               	.LBE56:
 1829 07de A5B9      		out 0x5,r26
 1830 07e0 4398      		cbi 0x8,3
 1831 07e2 439A      		sbi 0x8,3
 201:lcd.c         **** 				write_data16(pgm_read_word_near(&BATDRN[x+y*14]));
 1832               		.stabn	68,0,201,.LM169-.LFBB7
 1833               	.LM169:
 1834 07e4 4F5F      		subi r20,-1
 1835 07e6 5F4F      		sbci r21,-1
 201:lcd.c         **** 				write_data16(pgm_read_word_near(&BATDRN[x+y*14]));
 1836               		.stabn	68,0,201,.LM170-.LFBB7
 1837               	.LM170:
 1838 07e8 0296      		adiw r24,2
 1839 07ea 4E30      		cpi r20,14
 1840 07ec 5105      		cpc r21,__zero_reg__
 1841 07ee 01F4      		brne .L52
 1842 07f0 C901      		movw r24,r18
 205:lcd.c         **** 				write_data16(pgm_read_word_near(&BATDRN[x+y*14]));
GAS LISTING /tmp/ccfDWI1C.s 			page 38


 1843               		.stabn	68,0,205,.LM171-.LFBB7
 1844               	.LM171:
 1845 07f2 50E0      		ldi r21,0
 1846 07f4 40E0      		ldi r20,0
 1847               	.L53:
 1848               	.LBB57:
 206:lcd.c         **** 				write_data16(pgm_read_word_near(&BATDRN[x+y*14]));
 1849               		.stabn	68,0,206,.LM172-.LFBB7
 1850               	.LM172:
 1851 07f6 FC01      		movw r30,r24
 1852               	/* #APP */
 1853               	 ;  206 "lcd.c" 1
 1854 07f8 A591      		lpm r26, Z+
 1855 07fa B491      		lpm r27, Z
 1856               		
 1857               	 ;  0 "" 2
 1858               	/* #NOAPP */
 1859               	.LBE57:
 1860 07fc B5B9      		out 0x5,r27
 1861 07fe 4398      		cbi 0x8,3
 1862 0800 439A      		sbi 0x8,3
 1863               	.LBB58:
 1864 0802 FC01      		movw r30,r24
 1865               	/* #APP */
 1866               	 ;  206 "lcd.c" 1
 1867 0804 A591      		lpm r26, Z+
 1868 0806 B491      		lpm r27, Z
 1869               		
 1870               	 ;  0 "" 2
 1871               	/* #NOAPP */
 1872               	.LBE58:
 1873 0808 A5B9      		out 0x5,r26
 1874 080a 4398      		cbi 0x8,3
 1875 080c 439A      		sbi 0x8,3
 1876               	.LBB59:
 207:lcd.c         **** 			}
 1877               		.stabn	68,0,207,.LM173-.LFBB7
 1878               	.LM173:
 1879 080e FC01      		movw r30,r24
 1880               	/* #APP */
 1881               	 ;  207 "lcd.c" 1
 1882 0810 A591      		lpm r26, Z+
 1883 0812 B491      		lpm r27, Z
 1884               		
 1885               	 ;  0 "" 2
 1886               	/* #NOAPP */
 1887               	.LBE59:
 1888 0814 B5B9      		out 0x5,r27
 1889 0816 4398      		cbi 0x8,3
 1890 0818 439A      		sbi 0x8,3
 1891               	.LBB60:
 1892 081a FC01      		movw r30,r24
 1893               	/* #APP */
 1894               	 ;  207 "lcd.c" 1
 1895 081c A591      		lpm r26, Z+
 1896 081e B491      		lpm r27, Z
 1897               		
GAS LISTING /tmp/ccfDWI1C.s 			page 39


 1898               	 ;  0 "" 2
 1899               	/* #NOAPP */
 1900               	.LBE60:
 1901 0820 A5B9      		out 0x5,r26
 1902 0822 4398      		cbi 0x8,3
 1903 0824 439A      		sbi 0x8,3
 205:lcd.c         **** 				write_data16(pgm_read_word_near(&BATDRN[x+y*14]));
 1904               		.stabn	68,0,205,.LM174-.LFBB7
 1905               	.LM174:
 1906 0826 4F5F      		subi r20,-1
 1907 0828 5F4F      		sbci r21,-1
 205:lcd.c         **** 				write_data16(pgm_read_word_near(&BATDRN[x+y*14]));
 1908               		.stabn	68,0,205,.LM175-.LFBB7
 1909               	.LM175:
 1910 082a 0296      		adiw r24,2
 1911 082c 4E30      		cpi r20,14
 1912 082e 5105      		cpc r21,__zero_reg__
 1913 0830 01F4      		brne .L53
 200:lcd.c         **** 			for(x = 0; x <= 13; x++){
 1914               		.stabn	68,0,200,.LM176-.LFBB7
 1915               	.LM176:
 1916 0832 245E      		subi r18,-28
 1917 0834 3F4F      		sbci r19,-1
 1918 0836 625F      		subi r22,-14
 1919 0838 7F4F      		sbci r23,-1
 1920 083a 6E35      		cpi r22,94
 1921 083c 81E0      		ldi r24,1
 1922 083e 7807      		cpc r23,r24
 1923 0840 01F4      		brne .+2
 1924 0842 00C0      		rjmp .L45
 1925               	.L47:
 187:lcd.c         **** 		for(y = 0; y <= 24; y++){
 1926               		.stabn	68,0,187,.LM177-.LFBB7
 1927               	.LM177:
 1928 0844 C901      		movw r24,r18
 201:lcd.c         **** 				write_data16(pgm_read_word_near(&BATDRN[x+y*14]));
 1929               		.stabn	68,0,201,.LM178-.LFBB7
 1930               	.LM178:
 1931 0846 50E0      		ldi r21,0
 1932 0848 40E0      		ldi r20,0
 1933 084a 00C0      		rjmp .L52
 1934               		.size	bat_pwr, .-bat_pwr
 1935               	.Lscope7:
 1936               		.stabs	"",36,0,0,.Lscope7-.LFBB7
 1937               	.global	display
 1938               		.data
 1939               		.type	display, @object
 1940               		.size	display, 14
 1941               	display:
 1942 0000 F000      		.word	240
 1943 0002 4001      		.word	320
 1944 0004 0000      		.word	0
 1945 0006 0000      		.word	0
 1946 0008 0000      		.word	0
 1947 000a E420      		.word	8420
 1948 000c 99FF      		.word	-103
 1949               		.stabs	"display:G(0,9)=(0,10)=s14width:(0,6),0,16;height:(0,6),16,16;orient:(0,5),32,16;x:(0,6),48
GAS LISTING /tmp/ccfDWI1C.s 			page 40


 1950               		.stabs	"lcd:t(0,9)",128,0,29,0
 1951               		.text
 1952               		.stabs	"",100,0,0,.Letext0
 1953               	.Letext0:
 1954               		.ident	"GCC: (GNU) 11.2.0"
 1955               	.global __do_copy_data
GAS LISTING /tmp/ccfDWI1C.s 			page 41


DEFINED SYMBOLS
                            *ABS*:0000000000000000 lcd.c
     /tmp/ccfDWI1C.s:2      *ABS*:000000000000003e __SP_H__
     /tmp/ccfDWI1C.s:3      *ABS*:000000000000003d __SP_L__
     /tmp/ccfDWI1C.s:4      *ABS*:000000000000003f __SREG__
     /tmp/ccfDWI1C.s:5      *ABS*:0000000000000000 __tmp_reg__
     /tmp/ccfDWI1C.s:6      *ABS*:0000000000000001 __zero_reg__
     /tmp/ccfDWI1C.s:18     .text:0000000000000000 init_lcd
     /tmp/ccfDWI1C.s:55     .text:0000000000000018 set_orientation
     /tmp/ccfDWI1C.s:1941   .data:0000000000000000 display
     /tmp/ccfDWI1C.s:241    .text:0000000000000128 init_graphics
     /tmp/ccfDWI1C.s:702    .text:000000000000031a pwr_kw
     /tmp/ccfDWI1C.s:978    .text:000000000000044a pwr_100
     /tmp/ccfDWI1C.s:1254   .text:000000000000057a pwr_10
     /tmp/ccfDWI1C.s:1531   .text:00000000000006aa bat_pwr

UNDEFINED SYMBOLS
init_display_controller
bg1_1
bg1_2
digit1
digit2
d3
BATDRN
BATCHR
__do_copy_data
