GAS LISTING /tmp/ccBau7gc.s 			page 1


   1               		.file	"lcd.c"
   2               	__SP_H__ = 0x3e
   3               	__SP_L__ = 0x3d
   4               	__SREG__ = 0x3f
   5               	__tmp_reg__ = 0
   6               	__zero_reg__ = 1
   7               		.text
   8               	.Ltext0:
   9               		.cfi_sections	.debug_frame
  10               		.file 0 "/home/kaicho/Documents/Southampton/D5/lcdtest/liblcd" "lcd.c"
  11               	.global	init_lcd
  12               		.type	init_lcd, @function
  13               	init_lcd:
  14               	.LFB1:
  15               		.file 1 "lcd.c"
   1:lcd.c         **** /*  Author: Steve Gunn
   2:lcd.c         ****  * Licence: This work is licensed under the Creative Commons Attribution License.
   3:lcd.c         ****  *           View this license at http://creativecommons.org/about/licenses/
   4:lcd.c         ****  */
   5:lcd.c         ****  
   6:lcd.c         **** #include "ili934x.h"
   7:lcd.c         **** #include "graphics.h"
   8:lcd.c         **** #include "lcd.h"
   9:lcd.c         **** 
  10:lcd.c         **** lcd display = {LCDWIDTH, LCDHEIGHT, North, 0, 0, 0x20E4, 0xFF99};
  11:lcd.c         **** 
  12:lcd.c         **** void init_lcd()
  13:lcd.c         **** {
  16               		.loc 1 13 1 view -0
  17               		.cfi_startproc
  18               	/* prologue: function */
  19               	/* frame size = 0 */
  20               	/* stack size = 0 */
  21               	.L__stack_usage = 0
  14:lcd.c         **** 	/* Disable JTAG in software, so that it does not interfere with Port C  */
  15:lcd.c         **** 	/* It will be re-enabled after a power cycle if the JTAGEN fuse is set. */
  16:lcd.c         **** 	MCUCR |= (1<<JTD);
  22               		.loc 1 16 2 view .LVU1
  23 0000 85B7      		in r24,0x35
  24               		.loc 1 16 8 is_stmt 0 view .LVU2
  25 0002 8068      		ori r24,lo8(-128)
  26 0004 85BF      		out 0x35,r24
  17:lcd.c         **** 	MCUCR |= (1<<JTD);
  27               		.loc 1 17 2 is_stmt 1 view .LVU3
  28 0006 85B7      		in r24,0x35
  29               		.loc 1 17 8 is_stmt 0 view .LVU4
  30 0008 8068      		ori r24,lo8(-128)
  31 000a 85BF      		out 0x35,r24
  18:lcd.c         **** 	
  19:lcd.c         **** 	/* Configure ports */
  20:lcd.c         **** 	CTRL_DDR = 0x7F;
  32               		.loc 1 20 2 is_stmt 1 view .LVU5
  33               		.loc 1 20 11 is_stmt 0 view .LVU6
  34 000c 8FE7      		ldi r24,lo8(127)
  35 000e 87B9      		out 0x7,r24
  21:lcd.c         **** 	// PIN 7 on the control port is an input.
  22:lcd.c         **** 	DATA_DDR = 0xFF;
GAS LISTING /tmp/ccBau7gc.s 			page 2


  36               		.loc 1 22 2 is_stmt 1 view .LVU7
  37               		.loc 1 22 11 is_stmt 0 view .LVU8
  38 0010 8FEF      		ldi r24,lo8(-1)
  39 0012 84B9      		out 0x4,r24
  23:lcd.c         **** 	
  24:lcd.c         **** 	init_display_controller();
  40               		.loc 1 24 2 is_stmt 1 view .LVU9
  41 0014 0C94 0000 		jmp init_display_controller
  42               	.LVL0:
  43               		.cfi_endproc
  44               	.LFE1:
  45               		.size	init_lcd, .-init_lcd
  46               	.global	set_orientation
  47               		.type	set_orientation, @function
  48               	set_orientation:
  49               	.LVL1:
  50               	.LFB2:
  25:lcd.c         **** }
  26:lcd.c         **** 
  27:lcd.c         **** void set_orientation(orientation o)
  28:lcd.c         **** {
  51               		.loc 1 28 1 view -0
  52               		.cfi_startproc
  53               	/* prologue: function */
  54               	/* frame size = 0 */
  55               	/* stack size = 0 */
  56               	.L__stack_usage = 0
  57               		.loc 1 28 1 is_stmt 0 view .LVU11
  58 0018 9C01      		movw r18,r24
  29:lcd.c         **** 	display.orient = o;
  59               		.loc 1 29 2 is_stmt 1 view .LVU12
  60               		.loc 1 29 17 is_stmt 0 view .LVU13
  61 001a 9093 0000 		sts display+4+1,r25
  62 001e 8093 0000 		sts display+4,r24
  30:lcd.c         **** 	write_cmd(MEMORY_ACCESS_CONTROL);
  63               		.loc 1 30 2 is_stmt 1 view .LVU14
  64 0022 4498      		cbi 0x8,4
  65               		.loc 1 30 2 view .LVU15
  66 0024 86E3      		ldi r24,lo8(54)
  67               	.LVL2:
  68               		.loc 1 30 2 is_stmt 0 view .LVU16
  69 0026 85B9      		out 0x5,r24
  70               		.loc 1 30 2 is_stmt 1 view .LVU17
  71 0028 4398      		cbi 0x8,3
  72               		.loc 1 30 2 view .LVU18
  73 002a 439A      		sbi 0x8,3
  74               		.loc 1 30 2 view .LVU19
  75 002c 449A      		sbi 0x8,4
  76               		.loc 1 30 34 view .LVU20
  31:lcd.c         **** 	if (o==North) { 
  77               		.loc 1 31 2 view .LVU21
  78               		.loc 1 31 5 is_stmt 0 view .LVU22
  79 002e 2115      		cp r18,__zero_reg__
  80 0030 3105      		cpc r19,__zero_reg__
  81 0032 01F0      		breq .+2
  82 0034 00C0      		rjmp .L3
  32:lcd.c         **** 		display.width = LCDWIDTH;
GAS LISTING /tmp/ccBau7gc.s 			page 3


  83               		.loc 1 32 3 is_stmt 1 view .LVU23
  84               		.loc 1 32 17 is_stmt 0 view .LVU24
  85 0036 80EF      		ldi r24,lo8(-16)
  86 0038 90E0      		ldi r25,0
  87 003a 9093 0000 		sts display+1,r25
  88 003e 8093 0000 		sts display,r24
  33:lcd.c         **** 		display.height = LCDHEIGHT;
  89               		.loc 1 33 3 is_stmt 1 view .LVU25
  90               		.loc 1 33 18 is_stmt 0 view .LVU26
  91 0042 80E4      		ldi r24,lo8(64)
  92 0044 91E0      		ldi r25,lo8(1)
  93 0046 9093 0000 		sts display+2+1,r25
  94 004a 8093 0000 		sts display+2,r24
  34:lcd.c         **** 		write_data(0x48);
  95               		.loc 1 34 3 is_stmt 1 view .LVU27
  96 004e 88E4      		ldi r24,lo8(72)
  97               	.L7:
  35:lcd.c         **** 	}
  36:lcd.c         **** 	else if (o==West) {
  37:lcd.c         **** 		display.width = LCDHEIGHT;
  38:lcd.c         **** 		display.height = LCDWIDTH;
  39:lcd.c         **** 		write_data(0xE8);
  40:lcd.c         **** 	}
  41:lcd.c         **** 	else if (o==South) {
  42:lcd.c         **** 		display.width = LCDWIDTH;
  43:lcd.c         **** 		display.height = LCDHEIGHT;
  44:lcd.c         **** 		write_data(0x88);
  45:lcd.c         **** 	}
  46:lcd.c         **** 	else if (o==East) {
  47:lcd.c         **** 		display.width = LCDHEIGHT;
  48:lcd.c         **** 		display.height = LCDWIDTH;
  49:lcd.c         **** 		write_data(0x28);
  98               		.loc 1 49 3 is_stmt 0 view .LVU28
  99 0050 85B9      		out 0x5,r24
 100               		.loc 1 49 3 is_stmt 1 view .LVU29
 101 0052 4398      		cbi 0x8,3
 102               		.loc 1 49 3 view .LVU30
 103 0054 439A      		sbi 0x8,3
 104               	.L4:
 105               		.loc 1 49 19 discriminator 1 view .LVU31
  50:lcd.c         **** 	}
  51:lcd.c         **** 	write_cmd(COLUMN_ADDRESS_SET);
 106               		.loc 1 51 2 discriminator 1 view .LVU32
 107 0056 4498      		cbi 0x8,4
 108               		.loc 1 51 2 discriminator 1 view .LVU33
 109 0058 8AE2      		ldi r24,lo8(42)
 110 005a 85B9      		out 0x5,r24
 111               		.loc 1 51 2 discriminator 1 view .LVU34
 112 005c 4398      		cbi 0x8,3
 113               		.loc 1 51 2 discriminator 1 view .LVU35
 114 005e 439A      		sbi 0x8,3
 115               		.loc 1 51 2 discriminator 1 view .LVU36
 116 0060 449A      		sbi 0x8,4
 117               		.loc 1 51 31 discriminator 1 view .LVU37
  52:lcd.c         **** 	write_data16(0);
 118               		.loc 1 52 2 discriminator 1 view .LVU38
 119 0062 15B8      		out 0x5,__zero_reg__
GAS LISTING /tmp/ccBau7gc.s 			page 4


 120               		.loc 1 52 2 discriminator 1 view .LVU39
 121 0064 4398      		cbi 0x8,3
 122               		.loc 1 52 2 discriminator 1 view .LVU40
 123 0066 439A      		sbi 0x8,3
 124               		.loc 1 52 2 discriminator 1 view .LVU41
 125               		.loc 1 52 2 discriminator 1 view .LVU42
 126 0068 15B8      		out 0x5,__zero_reg__
 127               		.loc 1 52 2 discriminator 1 view .LVU43
 128 006a 4398      		cbi 0x8,3
 129               		.loc 1 52 2 discriminator 1 view .LVU44
 130 006c 439A      		sbi 0x8,3
 131               		.loc 1 52 2 discriminator 1 view .LVU45
 132               		.loc 1 52 17 discriminator 1 view .LVU46
  53:lcd.c         **** 	write_data16(display.width-1);
 133               		.loc 1 53 2 discriminator 1 view .LVU47
 134 006e 8091 0000 		lds r24,display
 135 0072 9091 0000 		lds r25,display+1
 136 0076 0197      		sbiw r24,1
 137 0078 95B9      		out 0x5,r25
 138               		.loc 1 53 2 discriminator 1 view .LVU48
 139 007a 4398      		cbi 0x8,3
 140               		.loc 1 53 2 discriminator 1 view .LVU49
 141 007c 439A      		sbi 0x8,3
 142               		.loc 1 53 2 discriminator 1 view .LVU50
 143               		.loc 1 53 2 discriminator 1 view .LVU51
 144 007e 8091 0000 		lds r24,display
 145 0082 8150      		subi r24,lo8(-(-1))
 146 0084 85B9      		out 0x5,r24
 147               		.loc 1 53 2 discriminator 1 view .LVU52
 148 0086 4398      		cbi 0x8,3
 149               		.loc 1 53 2 discriminator 1 view .LVU53
 150 0088 439A      		sbi 0x8,3
 151               		.loc 1 53 2 discriminator 1 view .LVU54
 152               		.loc 1 53 31 discriminator 1 view .LVU55
  54:lcd.c         **** 	write_cmd(PAGE_ADDRESS_SET);
 153               		.loc 1 54 2 discriminator 1 view .LVU56
 154 008a 4498      		cbi 0x8,4
 155               		.loc 1 54 2 discriminator 1 view .LVU57
 156 008c 8BE2      		ldi r24,lo8(43)
 157 008e 85B9      		out 0x5,r24
 158               		.loc 1 54 2 discriminator 1 view .LVU58
 159 0090 4398      		cbi 0x8,3
 160               		.loc 1 54 2 discriminator 1 view .LVU59
 161 0092 439A      		sbi 0x8,3
 162               		.loc 1 54 2 discriminator 1 view .LVU60
 163 0094 449A      		sbi 0x8,4
 164               		.loc 1 54 29 discriminator 1 view .LVU61
  55:lcd.c         **** 	write_data16(0);
 165               		.loc 1 55 2 discriminator 1 view .LVU62
 166 0096 15B8      		out 0x5,__zero_reg__
 167               		.loc 1 55 2 discriminator 1 view .LVU63
 168 0098 4398      		cbi 0x8,3
 169               		.loc 1 55 2 discriminator 1 view .LVU64
 170 009a 439A      		sbi 0x8,3
 171               		.loc 1 55 2 discriminator 1 view .LVU65
 172               		.loc 1 55 2 discriminator 1 view .LVU66
 173 009c 15B8      		out 0x5,__zero_reg__
GAS LISTING /tmp/ccBau7gc.s 			page 5


 174               		.loc 1 55 2 discriminator 1 view .LVU67
 175 009e 4398      		cbi 0x8,3
 176               		.loc 1 55 2 discriminator 1 view .LVU68
 177 00a0 439A      		sbi 0x8,3
 178               		.loc 1 55 2 discriminator 1 view .LVU69
 179               		.loc 1 55 17 discriminator 1 view .LVU70
  56:lcd.c         **** 	write_data16(display.height-1);
 180               		.loc 1 56 2 discriminator 1 view .LVU71
 181 00a2 8091 0000 		lds r24,display+2
 182 00a6 9091 0000 		lds r25,display+2+1
 183 00aa 0197      		sbiw r24,1
 184 00ac 95B9      		out 0x5,r25
 185               		.loc 1 56 2 discriminator 1 view .LVU72
 186 00ae 4398      		cbi 0x8,3
 187               		.loc 1 56 2 discriminator 1 view .LVU73
 188 00b0 439A      		sbi 0x8,3
 189               		.loc 1 56 2 discriminator 1 view .LVU74
 190               		.loc 1 56 2 discriminator 1 view .LVU75
 191 00b2 8091 0000 		lds r24,display+2
 192 00b6 8150      		subi r24,lo8(-(-1))
 193 00b8 85B9      		out 0x5,r24
 194               		.loc 1 56 2 discriminator 1 view .LVU76
 195 00ba 4398      		cbi 0x8,3
 196               		.loc 1 56 2 discriminator 1 view .LVU77
 197 00bc 439A      		sbi 0x8,3
 198               		.loc 1 56 2 discriminator 1 view .LVU78
 199               		.loc 1 56 32 discriminator 1 view .LVU79
 200               	/* epilogue start */
  57:lcd.c         **** }
 201               		.loc 1 57 1 is_stmt 0 discriminator 1 view .LVU80
 202 00be 0895      		ret
 203               	.L3:
  36:lcd.c         **** 		display.width = LCDHEIGHT;
 204               		.loc 1 36 7 is_stmt 1 view .LVU81
  36:lcd.c         **** 		display.width = LCDHEIGHT;
 205               		.loc 1 36 10 is_stmt 0 view .LVU82
 206 00c0 2130      		cpi r18,1
 207 00c2 3105      		cpc r19,__zero_reg__
 208 00c4 01F4      		brne .L5
  37:lcd.c         **** 		display.height = LCDWIDTH;
 209               		.loc 1 37 3 is_stmt 1 view .LVU83
  37:lcd.c         **** 		display.height = LCDWIDTH;
 210               		.loc 1 37 17 is_stmt 0 view .LVU84
 211 00c6 80E4      		ldi r24,lo8(64)
 212 00c8 91E0      		ldi r25,lo8(1)
 213 00ca 9093 0000 		sts display+1,r25
 214 00ce 8093 0000 		sts display,r24
  38:lcd.c         **** 		write_data(0xE8);
 215               		.loc 1 38 3 is_stmt 1 view .LVU85
  38:lcd.c         **** 		write_data(0xE8);
 216               		.loc 1 38 18 is_stmt 0 view .LVU86
 217 00d2 80EF      		ldi r24,lo8(-16)
 218 00d4 90E0      		ldi r25,0
 219 00d6 9093 0000 		sts display+2+1,r25
 220 00da 8093 0000 		sts display+2,r24
  39:lcd.c         **** 	}
 221               		.loc 1 39 3 is_stmt 1 view .LVU87
GAS LISTING /tmp/ccBau7gc.s 			page 6


 222 00de 88EE      		ldi r24,lo8(-24)
 223 00e0 00C0      		rjmp .L7
 224               	.L5:
  41:lcd.c         **** 		display.width = LCDWIDTH;
 225               		.loc 1 41 7 view .LVU88
  41:lcd.c         **** 		display.width = LCDWIDTH;
 226               		.loc 1 41 10 is_stmt 0 view .LVU89
 227 00e2 2230      		cpi r18,2
 228 00e4 3105      		cpc r19,__zero_reg__
 229 00e6 01F4      		brne .L6
  42:lcd.c         **** 		display.height = LCDHEIGHT;
 230               		.loc 1 42 3 is_stmt 1 view .LVU90
  42:lcd.c         **** 		display.height = LCDHEIGHT;
 231               		.loc 1 42 17 is_stmt 0 view .LVU91
 232 00e8 80EF      		ldi r24,lo8(-16)
 233 00ea 90E0      		ldi r25,0
 234 00ec 9093 0000 		sts display+1,r25
 235 00f0 8093 0000 		sts display,r24
  43:lcd.c         **** 		write_data(0x88);
 236               		.loc 1 43 3 is_stmt 1 view .LVU92
  43:lcd.c         **** 		write_data(0x88);
 237               		.loc 1 43 18 is_stmt 0 view .LVU93
 238 00f4 80E4      		ldi r24,lo8(64)
 239 00f6 91E0      		ldi r25,lo8(1)
 240 00f8 9093 0000 		sts display+2+1,r25
 241 00fc 8093 0000 		sts display+2,r24
  44:lcd.c         **** 	}
 242               		.loc 1 44 3 is_stmt 1 view .LVU94
 243 0100 88E8      		ldi r24,lo8(-120)
 244 0102 00C0      		rjmp .L7
 245               	.L6:
  46:lcd.c         **** 		display.width = LCDHEIGHT;
 246               		.loc 1 46 7 view .LVU95
  46:lcd.c         **** 		display.width = LCDHEIGHT;
 247               		.loc 1 46 10 is_stmt 0 view .LVU96
 248 0104 2330      		cpi r18,3
 249 0106 3105      		cpc r19,__zero_reg__
 250 0108 01F0      		breq .+2
 251 010a 00C0      		rjmp .L4
  47:lcd.c         **** 		display.height = LCDWIDTH;
 252               		.loc 1 47 3 is_stmt 1 view .LVU97
  47:lcd.c         **** 		display.height = LCDWIDTH;
 253               		.loc 1 47 17 is_stmt 0 view .LVU98
 254 010c 80E4      		ldi r24,lo8(64)
 255 010e 91E0      		ldi r25,lo8(1)
 256 0110 9093 0000 		sts display+1,r25
 257 0114 8093 0000 		sts display,r24
  48:lcd.c         **** 		write_data(0x28);
 258               		.loc 1 48 3 is_stmt 1 view .LVU99
  48:lcd.c         **** 		write_data(0x28);
 259               		.loc 1 48 18 is_stmt 0 view .LVU100
 260 0118 80EF      		ldi r24,lo8(-16)
 261 011a 90E0      		ldi r25,0
 262 011c 9093 0000 		sts display+2+1,r25
 263 0120 8093 0000 		sts display+2,r24
  49:lcd.c         **** 	}
 264               		.loc 1 49 3 is_stmt 1 view .LVU101
GAS LISTING /tmp/ccBau7gc.s 			page 7


 265 0124 88E2      		ldi r24,lo8(40)
 266 0126 00C0      		rjmp .L7
 267               		.cfi_endproc
 268               	.LFE2:
 269               		.size	set_orientation, .-set_orientation
 270               	.global	init_graphics
 271               		.type	init_graphics, @function
 272               	init_graphics:
 273               	.LFB3:
  58:lcd.c         **** 
  59:lcd.c         **** void init_graphics()
  60:lcd.c         **** {
 274               		.loc 1 60 1 view -0
 275               		.cfi_startproc
 276               	/* prologue: function */
 277               	/* frame size = 0 */
 278               	/* stack size = 0 */
 279               	.L__stack_usage = 0
  61:lcd.c         **** 	uint16_t x, y;
 280               		.loc 1 61 2 view .LVU103
  62:lcd.c         **** 	write_cmd(COLUMN_ADDRESS_SET);
 281               		.loc 1 62 2 view .LVU104
 282 0128 4498      		cbi 0x8,4
 283               		.loc 1 62 2 view .LVU105
 284 012a 8AE2      		ldi r24,lo8(42)
 285 012c 85B9      		out 0x5,r24
 286               		.loc 1 62 2 view .LVU106
 287 012e 4398      		cbi 0x8,3
 288               		.loc 1 62 2 view .LVU107
 289 0130 439A      		sbi 0x8,3
 290               		.loc 1 62 2 view .LVU108
 291 0132 449A      		sbi 0x8,4
 292               		.loc 1 62 31 view .LVU109
  63:lcd.c         **** 	write_data16(0);
 293               		.loc 1 63 2 view .LVU110
 294 0134 15B8      		out 0x5,__zero_reg__
 295               		.loc 1 63 2 view .LVU111
 296 0136 4398      		cbi 0x8,3
 297               		.loc 1 63 2 view .LVU112
 298 0138 439A      		sbi 0x8,3
 299               		.loc 1 63 2 view .LVU113
 300               		.loc 1 63 2 view .LVU114
 301 013a 15B8      		out 0x5,__zero_reg__
 302               		.loc 1 63 2 view .LVU115
 303 013c 4398      		cbi 0x8,3
 304               		.loc 1 63 2 view .LVU116
 305 013e 439A      		sbi 0x8,3
 306               		.loc 1 63 2 view .LVU117
 307               		.loc 1 63 17 view .LVU118
  64:lcd.c         **** 	write_data16(240);
 308               		.loc 1 64 2 view .LVU119
 309 0140 15B8      		out 0x5,__zero_reg__
 310               		.loc 1 64 2 view .LVU120
 311 0142 4398      		cbi 0x8,3
 312               		.loc 1 64 2 view .LVU121
 313 0144 439A      		sbi 0x8,3
 314               		.loc 1 64 2 view .LVU122
GAS LISTING /tmp/ccBau7gc.s 			page 8


 315               		.loc 1 64 2 view .LVU123
 316 0146 80EF      		ldi r24,lo8(-16)
 317 0148 85B9      		out 0x5,r24
 318               		.loc 1 64 2 view .LVU124
 319 014a 4398      		cbi 0x8,3
 320               		.loc 1 64 2 view .LVU125
 321 014c 439A      		sbi 0x8,3
 322               		.loc 1 64 2 view .LVU126
 323               		.loc 1 64 19 view .LVU127
  65:lcd.c         **** 	write_cmd(PAGE_ADDRESS_SET);
 324               		.loc 1 65 2 view .LVU128
 325 014e 4498      		cbi 0x8,4
 326               		.loc 1 65 2 view .LVU129
 327 0150 8BE2      		ldi r24,lo8(43)
 328 0152 85B9      		out 0x5,r24
 329               		.loc 1 65 2 view .LVU130
 330 0154 4398      		cbi 0x8,3
 331               		.loc 1 65 2 view .LVU131
 332 0156 439A      		sbi 0x8,3
 333               		.loc 1 65 2 view .LVU132
 334 0158 449A      		sbi 0x8,4
 335               		.loc 1 65 29 view .LVU133
  66:lcd.c         **** 	write_data16(0);
 336               		.loc 1 66 2 view .LVU134
 337 015a 15B8      		out 0x5,__zero_reg__
 338               		.loc 1 66 2 view .LVU135
 339 015c 4398      		cbi 0x8,3
 340               		.loc 1 66 2 view .LVU136
 341 015e 439A      		sbi 0x8,3
 342               		.loc 1 66 2 view .LVU137
 343               		.loc 1 66 2 view .LVU138
 344 0160 15B8      		out 0x5,__zero_reg__
 345               		.loc 1 66 2 view .LVU139
 346 0162 4398      		cbi 0x8,3
 347               		.loc 1 66 2 view .LVU140
 348 0164 439A      		sbi 0x8,3
 349               		.loc 1 66 2 view .LVU141
 350               		.loc 1 66 17 view .LVU142
  67:lcd.c         **** 	write_data16(320);
 351               		.loc 1 67 2 view .LVU143
 352 0166 81E0      		ldi r24,lo8(1)
 353 0168 85B9      		out 0x5,r24
 354               		.loc 1 67 2 view .LVU144
 355 016a 4398      		cbi 0x8,3
 356               		.loc 1 67 2 view .LVU145
 357 016c 439A      		sbi 0x8,3
 358               		.loc 1 67 2 view .LVU146
 359               		.loc 1 67 2 view .LVU147
 360 016e 80E4      		ldi r24,lo8(64)
 361 0170 85B9      		out 0x5,r24
 362               		.loc 1 67 2 view .LVU148
 363 0172 4398      		cbi 0x8,3
 364               		.loc 1 67 2 view .LVU149
 365 0174 439A      		sbi 0x8,3
 366               		.loc 1 67 2 view .LVU150
 367               		.loc 1 67 19 view .LVU151
  68:lcd.c         **** 	write_cmd(MEMORY_WRITE);
GAS LISTING /tmp/ccBau7gc.s 			page 9


 368               		.loc 1 68 2 view .LVU152
 369 0176 4498      		cbi 0x8,4
 370               		.loc 1 68 2 view .LVU153
 371 0178 8CE2      		ldi r24,lo8(44)
 372 017a 85B9      		out 0x5,r24
 373               		.loc 1 68 2 view .LVU154
 374 017c 4398      		cbi 0x8,3
 375               		.loc 1 68 2 view .LVU155
 376 017e 439A      		sbi 0x8,3
 377               		.loc 1 68 2 view .LVU156
 378 0180 449A      		sbi 0x8,4
 379               		.loc 1 68 25 view .LVU157
  69:lcd.c         **** 	for(y = 0; y <= 79; y++){
 380               		.loc 1 69 2 view .LVU158
 381               	.LVL3:
 382               		.loc 1 69 15 view .LVU159
 383 0182 20E0      		ldi r18,lo8(bg1_1)
 384 0184 30E0      		ldi r19,hi8(bg1_1)
  68:lcd.c         **** 	write_cmd(MEMORY_WRITE);
 385               		.loc 1 68 2 is_stmt 0 view .LVU160
 386 0186 60E0      		ldi r22,0
 387 0188 70E0      		ldi r23,0
 388               	.LVL4:
 389               	.L9:
  70:lcd.c         **** 		for(x = 0; x <= 119; x++){
 390               		.loc 1 70 16 is_stmt 1 view .LVU161
  60:lcd.c         **** 	uint16_t x, y;
 391               		.loc 1 60 1 is_stmt 0 view .LVU162
 392 018a C901      		movw r24,r18
 393               		.loc 1 70 9 view .LVU163
 394 018c 40E0      		ldi r20,0
 395 018e 50E0      		ldi r21,0
 396               	.LVL5:
 397               	.L10:
  71:lcd.c         **** 			write_data16(pgm_read_word(&bg1_1[x+y*120]));
 398               		.loc 1 71 4 is_stmt 1 discriminator 3 view .LVU164
 399               	.LBB2:
 400               		.loc 1 71 4 discriminator 3 view .LVU165
 401               		.loc 1 71 4 discriminator 3 view .LVU166
 402               		.loc 1 71 4 discriminator 3 view .LVU167
 403 0190 FC01      		movw r30,r24
 404               	/* #APP */
 405               	 ;  71 "lcd.c" 1
 406 0192 A591      		lpm r26, Z+
 407 0194 B491      		lpm r27, Z
 408               		
 409               	 ;  0 "" 2
 410               	.LVL6:
 411               		.loc 1 71 4 discriminator 3 view .LVU168
 412               	/* #NOAPP */
 413               	.LBE2:
 414 0196 B5B9      		out 0x5,r27
 415               		.loc 1 71 4 discriminator 3 view .LVU169
 416 0198 4398      		cbi 0x8,3
 417               		.loc 1 71 4 discriminator 3 view .LVU170
 418 019a 439A      		sbi 0x8,3
 419               		.loc 1 71 4 discriminator 3 view .LVU171
GAS LISTING /tmp/ccBau7gc.s 			page 10


 420               		.loc 1 71 4 discriminator 3 view .LVU172
 421               	.LBB3:
 422               		.loc 1 71 4 discriminator 3 view .LVU173
 423               	.LVL7:
 424               		.loc 1 71 4 discriminator 3 view .LVU174
 425               		.loc 1 71 4 discriminator 3 view .LVU175
 426 019c FC01      		movw r30,r24
 427               	/* #APP */
 428               	 ;  71 "lcd.c" 1
 429 019e A591      		lpm r26, Z+
 430 01a0 B491      		lpm r27, Z
 431               		
 432               	 ;  0 "" 2
 433               	.LVL8:
 434               		.loc 1 71 4 discriminator 3 view .LVU176
 435               	/* #NOAPP */
 436               	.LBE3:
 437 01a2 A5B9      		out 0x5,r26
 438               		.loc 1 71 4 discriminator 3 view .LVU177
 439 01a4 4398      		cbi 0x8,3
 440               		.loc 1 71 4 discriminator 3 view .LVU178
 441 01a6 439A      		sbi 0x8,3
 442               		.loc 1 71 4 discriminator 3 view .LVU179
 443               		.loc 1 71 48 discriminator 3 view .LVU180
  72:lcd.c         **** 			write_data16(pgm_read_word(&bg1_1[x+y*120]));
 444               		.loc 1 72 4 discriminator 3 view .LVU181
 445               	.LBB4:
 446               		.loc 1 72 4 discriminator 3 view .LVU182
 447               	.LVL9:
 448               		.loc 1 72 4 discriminator 3 view .LVU183
 449               		.loc 1 72 4 discriminator 3 view .LVU184
 450 01a8 FC01      		movw r30,r24
 451               	/* #APP */
 452               	 ;  72 "lcd.c" 1
 453 01aa A591      		lpm r26, Z+
 454 01ac B491      		lpm r27, Z
 455               		
 456               	 ;  0 "" 2
 457               	.LVL10:
 458               		.loc 1 72 4 discriminator 3 view .LVU185
 459               	/* #NOAPP */
 460               	.LBE4:
 461 01ae B5B9      		out 0x5,r27
 462               		.loc 1 72 4 discriminator 3 view .LVU186
 463 01b0 4398      		cbi 0x8,3
 464               		.loc 1 72 4 discriminator 3 view .LVU187
 465 01b2 439A      		sbi 0x8,3
 466               		.loc 1 72 4 discriminator 3 view .LVU188
 467               		.loc 1 72 4 discriminator 3 view .LVU189
 468               	.LBB5:
 469               		.loc 1 72 4 discriminator 3 view .LVU190
 470               	.LVL11:
 471               		.loc 1 72 4 discriminator 3 view .LVU191
 472               		.loc 1 72 4 discriminator 3 view .LVU192
 473 01b4 FC01      		movw r30,r24
 474               	/* #APP */
 475               	 ;  72 "lcd.c" 1
GAS LISTING /tmp/ccBau7gc.s 			page 11


 476 01b6 A591      		lpm r26, Z+
 477 01b8 B491      		lpm r27, Z
 478               		
 479               	 ;  0 "" 2
 480               	.LVL12:
 481               		.loc 1 72 4 discriminator 3 view .LVU193
 482               	/* #NOAPP */
 483               	.LBE5:
 484 01ba A5B9      		out 0x5,r26
 485               		.loc 1 72 4 discriminator 3 view .LVU194
 486 01bc 4398      		cbi 0x8,3
 487               		.loc 1 72 4 discriminator 3 view .LVU195
 488 01be 439A      		sbi 0x8,3
 489               		.loc 1 72 4 discriminator 3 view .LVU196
 490               		.loc 1 72 48 discriminator 3 view .LVU197
  70:lcd.c         **** 			write_data16(pgm_read_word(&bg1_1[x+y*120]));
 491               		.loc 1 70 25 discriminator 3 view .LVU198
 492 01c0 4F5F      		subi r20,-1
 493 01c2 5F4F      		sbci r21,-1
 494               	.LVL13:
  70:lcd.c         **** 			write_data16(pgm_read_word(&bg1_1[x+y*120]));
 495               		.loc 1 70 16 discriminator 3 view .LVU199
 496 01c4 0296      		adiw r24,2
 497 01c6 4837      		cpi r20,120
 498 01c8 5105      		cpc r21,__zero_reg__
 499 01ca 01F4      		brne .L10
 500 01cc C901      		movw r24,r18
  73:lcd.c         **** 		}
  74:lcd.c         **** 		for(x = 0; x <= 119; x++){
 501               		.loc 1 74 9 is_stmt 0 view .LVU200
 502 01ce 40E0      		ldi r20,0
 503 01d0 50E0      		ldi r21,0
 504               	.LVL14:
 505               	.L11:
  75:lcd.c         **** 			write_data16(pgm_read_word(&bg1_1[x+y*120]));
 506               		.loc 1 75 4 is_stmt 1 discriminator 3 view .LVU201
 507               	.LBB6:
 508               		.loc 1 75 4 discriminator 3 view .LVU202
 509               		.loc 1 75 4 discriminator 3 view .LVU203
 510               		.loc 1 75 4 discriminator 3 view .LVU204
 511 01d2 FC01      		movw r30,r24
 512               	/* #APP */
 513               	 ;  75 "lcd.c" 1
 514 01d4 A591      		lpm r26, Z+
 515 01d6 B491      		lpm r27, Z
 516               		
 517               	 ;  0 "" 2
 518               	.LVL15:
 519               		.loc 1 75 4 discriminator 3 view .LVU205
 520               	/* #NOAPP */
 521               	.LBE6:
 522 01d8 B5B9      		out 0x5,r27
 523               		.loc 1 75 4 discriminator 3 view .LVU206
 524 01da 4398      		cbi 0x8,3
 525               		.loc 1 75 4 discriminator 3 view .LVU207
 526 01dc 439A      		sbi 0x8,3
 527               		.loc 1 75 4 discriminator 3 view .LVU208
GAS LISTING /tmp/ccBau7gc.s 			page 12


 528               		.loc 1 75 4 discriminator 3 view .LVU209
 529               	.LBB7:
 530               		.loc 1 75 4 discriminator 3 view .LVU210
 531               	.LVL16:
 532               		.loc 1 75 4 discriminator 3 view .LVU211
 533               		.loc 1 75 4 discriminator 3 view .LVU212
 534 01de FC01      		movw r30,r24
 535               	/* #APP */
 536               	 ;  75 "lcd.c" 1
 537 01e0 A591      		lpm r26, Z+
 538 01e2 B491      		lpm r27, Z
 539               		
 540               	 ;  0 "" 2
 541               	.LVL17:
 542               		.loc 1 75 4 discriminator 3 view .LVU213
 543               	/* #NOAPP */
 544               	.LBE7:
 545 01e4 A5B9      		out 0x5,r26
 546               		.loc 1 75 4 discriminator 3 view .LVU214
 547 01e6 4398      		cbi 0x8,3
 548               		.loc 1 75 4 discriminator 3 view .LVU215
 549 01e8 439A      		sbi 0x8,3
 550               		.loc 1 75 4 discriminator 3 view .LVU216
 551               		.loc 1 75 48 discriminator 3 view .LVU217
  76:lcd.c         **** 			write_data16(pgm_read_word(&bg1_1[x+y*120]));
 552               		.loc 1 76 4 discriminator 3 view .LVU218
 553               	.LBB8:
 554               		.loc 1 76 4 discriminator 3 view .LVU219
 555               	.LVL18:
 556               		.loc 1 76 4 discriminator 3 view .LVU220
 557               		.loc 1 76 4 discriminator 3 view .LVU221
 558 01ea FC01      		movw r30,r24
 559               	/* #APP */
 560               	 ;  76 "lcd.c" 1
 561 01ec A591      		lpm r26, Z+
 562 01ee B491      		lpm r27, Z
 563               		
 564               	 ;  0 "" 2
 565               	.LVL19:
 566               		.loc 1 76 4 discriminator 3 view .LVU222
 567               	/* #NOAPP */
 568               	.LBE8:
 569 01f0 B5B9      		out 0x5,r27
 570               		.loc 1 76 4 discriminator 3 view .LVU223
 571 01f2 4398      		cbi 0x8,3
 572               		.loc 1 76 4 discriminator 3 view .LVU224
 573 01f4 439A      		sbi 0x8,3
 574               		.loc 1 76 4 discriminator 3 view .LVU225
 575               		.loc 1 76 4 discriminator 3 view .LVU226
 576               	.LBB9:
 577               		.loc 1 76 4 discriminator 3 view .LVU227
 578               	.LVL20:
 579               		.loc 1 76 4 discriminator 3 view .LVU228
 580               		.loc 1 76 4 discriminator 3 view .LVU229
 581 01f6 FC01      		movw r30,r24
 582               	/* #APP */
 583               	 ;  76 "lcd.c" 1
GAS LISTING /tmp/ccBau7gc.s 			page 13


 584 01f8 A591      		lpm r26, Z+
 585 01fa B491      		lpm r27, Z
 586               		
 587               	 ;  0 "" 2
 588               	.LVL21:
 589               		.loc 1 76 4 discriminator 3 view .LVU230
 590               	/* #NOAPP */
 591               	.LBE9:
 592 01fc A5B9      		out 0x5,r26
 593               		.loc 1 76 4 discriminator 3 view .LVU231
 594 01fe 4398      		cbi 0x8,3
 595               		.loc 1 76 4 discriminator 3 view .LVU232
 596 0200 439A      		sbi 0x8,3
 597               		.loc 1 76 4 discriminator 3 view .LVU233
 598               		.loc 1 76 48 discriminator 3 view .LVU234
  74:lcd.c         **** 			write_data16(pgm_read_word(&bg1_1[x+y*120]));
 599               		.loc 1 74 25 discriminator 3 view .LVU235
 600 0202 4F5F      		subi r20,-1
 601 0204 5F4F      		sbci r21,-1
 602               	.LVL22:
  74:lcd.c         **** 			write_data16(pgm_read_word(&bg1_1[x+y*120]));
 603               		.loc 1 74 16 discriminator 3 view .LVU236
 604 0206 0296      		adiw r24,2
 605 0208 4837      		cpi r20,120
 606 020a 5105      		cpc r21,__zero_reg__
 607 020c 01F4      		brne .L11
  69:lcd.c         **** 		for(x = 0; x <= 119; x++){
 608               		.loc 1 69 23 discriminator 2 view .LVU237
  69:lcd.c         **** 		for(x = 0; x <= 119; x++){
 609               		.loc 1 69 15 discriminator 2 view .LVU238
 610 020e 2051      		subi r18,16
 611 0210 3F4F      		sbci r19,-1
 612 0212 6858      		subi r22,-120
 613 0214 7F4F      		sbci r23,-1
 614 0216 6038      		cpi r22,-128
 615 0218 85E2      		ldi r24,37
 616 021a 7807      		cpc r23,r24
 617 021c 01F0      		breq .+2
 618 021e 00C0      		rjmp .L9
  77:lcd.c         **** 		}
  78:lcd.c         **** 	}
  79:lcd.c         **** 	write_cmd(COLUMN_ADDRESS_SET);
 619               		.loc 1 79 2 view .LVU239
 620 0220 4498      		cbi 0x8,4
 621               		.loc 1 79 2 view .LVU240
 622 0222 8AE2      		ldi r24,lo8(42)
 623 0224 85B9      		out 0x5,r24
 624               		.loc 1 79 2 view .LVU241
 625 0226 4398      		cbi 0x8,3
 626               		.loc 1 79 2 view .LVU242
 627 0228 439A      		sbi 0x8,3
 628               		.loc 1 79 2 view .LVU243
 629 022a 449A      		sbi 0x8,4
 630               		.loc 1 79 31 view .LVU244
  80:lcd.c         **** 	write_data16(0);
 631               		.loc 1 80 2 view .LVU245
 632 022c 15B8      		out 0x5,__zero_reg__
GAS LISTING /tmp/ccBau7gc.s 			page 14


 633               		.loc 1 80 2 view .LVU246
 634 022e 4398      		cbi 0x8,3
 635               		.loc 1 80 2 view .LVU247
 636 0230 439A      		sbi 0x8,3
 637               		.loc 1 80 2 view .LVU248
 638               		.loc 1 80 2 view .LVU249
 639 0232 15B8      		out 0x5,__zero_reg__
 640               		.loc 1 80 2 view .LVU250
 641 0234 4398      		cbi 0x8,3
 642               		.loc 1 80 2 view .LVU251
 643 0236 439A      		sbi 0x8,3
 644               		.loc 1 80 2 view .LVU252
 645               		.loc 1 80 17 view .LVU253
  81:lcd.c         **** 	write_data16(240);
 646               		.loc 1 81 2 view .LVU254
 647 0238 15B8      		out 0x5,__zero_reg__
 648               		.loc 1 81 2 view .LVU255
 649 023a 4398      		cbi 0x8,3
 650               		.loc 1 81 2 view .LVU256
 651 023c 439A      		sbi 0x8,3
 652               		.loc 1 81 2 view .LVU257
 653               		.loc 1 81 2 view .LVU258
 654 023e 80EF      		ldi r24,lo8(-16)
 655 0240 85B9      		out 0x5,r24
 656               		.loc 1 81 2 view .LVU259
 657 0242 4398      		cbi 0x8,3
 658               		.loc 1 81 2 view .LVU260
 659 0244 439A      		sbi 0x8,3
 660               		.loc 1 81 2 view .LVU261
 661               		.loc 1 81 19 view .LVU262
  82:lcd.c         **** 	write_cmd(PAGE_ADDRESS_SET);
 662               		.loc 1 82 2 view .LVU263
 663 0246 4498      		cbi 0x8,4
 664               		.loc 1 82 2 view .LVU264
 665 0248 8BE2      		ldi r24,lo8(43)
 666 024a 85B9      		out 0x5,r24
 667               		.loc 1 82 2 view .LVU265
 668 024c 4398      		cbi 0x8,3
 669               		.loc 1 82 2 view .LVU266
 670 024e 439A      		sbi 0x8,3
 671               		.loc 1 82 2 view .LVU267
 672 0250 449A      		sbi 0x8,4
 673               		.loc 1 82 29 view .LVU268
  83:lcd.c         **** 	write_data16(160);
 674               		.loc 1 83 2 view .LVU269
 675 0252 15B8      		out 0x5,__zero_reg__
 676               		.loc 1 83 2 view .LVU270
 677 0254 4398      		cbi 0x8,3
 678               		.loc 1 83 2 view .LVU271
 679 0256 439A      		sbi 0x8,3
 680               		.loc 1 83 2 view .LVU272
 681               		.loc 1 83 2 view .LVU273
 682 0258 80EA      		ldi r24,lo8(-96)
 683 025a 85B9      		out 0x5,r24
 684               		.loc 1 83 2 view .LVU274
 685 025c 4398      		cbi 0x8,3
 686               		.loc 1 83 2 view .LVU275
GAS LISTING /tmp/ccBau7gc.s 			page 15


 687 025e 439A      		sbi 0x8,3
 688               		.loc 1 83 2 view .LVU276
 689               		.loc 1 83 19 view .LVU277
  84:lcd.c         **** 	write_data16(320);
 690               		.loc 1 84 2 view .LVU278
 691 0260 81E0      		ldi r24,lo8(1)
 692 0262 85B9      		out 0x5,r24
 693               		.loc 1 84 2 view .LVU279
 694 0264 4398      		cbi 0x8,3
 695               		.loc 1 84 2 view .LVU280
 696 0266 439A      		sbi 0x8,3
 697               		.loc 1 84 2 view .LVU281
 698               		.loc 1 84 2 view .LVU282
 699 0268 80E4      		ldi r24,lo8(64)
 700 026a 85B9      		out 0x5,r24
 701               		.loc 1 84 2 view .LVU283
 702 026c 4398      		cbi 0x8,3
 703               		.loc 1 84 2 view .LVU284
 704 026e 439A      		sbi 0x8,3
 705               		.loc 1 84 2 view .LVU285
 706               		.loc 1 84 19 view .LVU286
  85:lcd.c         **** 	write_cmd(MEMORY_WRITE);
 707               		.loc 1 85 2 view .LVU287
 708 0270 4498      		cbi 0x8,4
 709               		.loc 1 85 2 view .LVU288
 710 0272 8CE2      		ldi r24,lo8(44)
 711 0274 85B9      		out 0x5,r24
 712               		.loc 1 85 2 view .LVU289
 713 0276 4398      		cbi 0x8,3
 714               		.loc 1 85 2 view .LVU290
 715 0278 439A      		sbi 0x8,3
 716               		.loc 1 85 2 view .LVU291
 717 027a 449A      		sbi 0x8,4
 718               		.loc 1 85 25 view .LVU292
  86:lcd.c         **** 	for(y = 0; y <= 79; y++){
 719               		.loc 1 86 2 view .LVU293
 720               	.LVL23:
 721               		.loc 1 86 15 view .LVU294
 722 027c 20E0      		ldi r18,lo8(bg1_2)
 723 027e 30E0      		ldi r19,hi8(bg1_2)
  85:lcd.c         **** 	write_cmd(MEMORY_WRITE);
 724               		.loc 1 85 2 is_stmt 0 view .LVU295
 725 0280 60E0      		ldi r22,0
 726 0282 70E0      		ldi r23,0
 727               	.LVL24:
 728               	.L13:
  87:lcd.c         **** 		for(x = 0; x <= 119; x++){
 729               		.loc 1 87 16 is_stmt 1 view .LVU296
  68:lcd.c         **** 	for(y = 0; y <= 79; y++){
 730               		.loc 1 68 2 is_stmt 0 view .LVU297
 731 0284 C901      		movw r24,r18
 732               		.loc 1 87 9 view .LVU298
 733 0286 40E0      		ldi r20,0
 734 0288 50E0      		ldi r21,0
 735               	.LVL25:
 736               	.L14:
  88:lcd.c         **** 			write_data16(pgm_read_word(&bg1_2[x+y*120]));
GAS LISTING /tmp/ccBau7gc.s 			page 16


 737               		.loc 1 88 4 is_stmt 1 discriminator 3 view .LVU299
 738               	.LBB10:
 739               		.loc 1 88 4 discriminator 3 view .LVU300
 740               		.loc 1 88 4 discriminator 3 view .LVU301
 741               		.loc 1 88 4 discriminator 3 view .LVU302
 742 028a FC01      		movw r30,r24
 743               	/* #APP */
 744               	 ;  88 "lcd.c" 1
 745 028c A591      		lpm r26, Z+
 746 028e B491      		lpm r27, Z
 747               		
 748               	 ;  0 "" 2
 749               	.LVL26:
 750               		.loc 1 88 4 discriminator 3 view .LVU303
 751               	/* #NOAPP */
 752               	.LBE10:
 753 0290 B5B9      		out 0x5,r27
 754               		.loc 1 88 4 discriminator 3 view .LVU304
 755 0292 4398      		cbi 0x8,3
 756               		.loc 1 88 4 discriminator 3 view .LVU305
 757 0294 439A      		sbi 0x8,3
 758               		.loc 1 88 4 discriminator 3 view .LVU306
 759               		.loc 1 88 4 discriminator 3 view .LVU307
 760               	.LBB11:
 761               		.loc 1 88 4 discriminator 3 view .LVU308
 762               	.LVL27:
 763               		.loc 1 88 4 discriminator 3 view .LVU309
 764               		.loc 1 88 4 discriminator 3 view .LVU310
 765 0296 FC01      		movw r30,r24
 766               	/* #APP */
 767               	 ;  88 "lcd.c" 1
 768 0298 A591      		lpm r26, Z+
 769 029a B491      		lpm r27, Z
 770               		
 771               	 ;  0 "" 2
 772               	.LVL28:
 773               		.loc 1 88 4 discriminator 3 view .LVU311
 774               	/* #NOAPP */
 775               	.LBE11:
 776 029c A5B9      		out 0x5,r26
 777               		.loc 1 88 4 discriminator 3 view .LVU312
 778 029e 4398      		cbi 0x8,3
 779               		.loc 1 88 4 discriminator 3 view .LVU313
 780 02a0 439A      		sbi 0x8,3
 781               		.loc 1 88 4 discriminator 3 view .LVU314
 782               		.loc 1 88 48 discriminator 3 view .LVU315
  89:lcd.c         **** 			write_data16(pgm_read_word(&bg1_2[x+y*120]));
 783               		.loc 1 89 4 discriminator 3 view .LVU316
 784               	.LBB12:
 785               		.loc 1 89 4 discriminator 3 view .LVU317
 786               	.LVL29:
 787               		.loc 1 89 4 discriminator 3 view .LVU318
 788               		.loc 1 89 4 discriminator 3 view .LVU319
 789 02a2 FC01      		movw r30,r24
 790               	/* #APP */
 791               	 ;  89 "lcd.c" 1
 792 02a4 A591      		lpm r26, Z+
GAS LISTING /tmp/ccBau7gc.s 			page 17


 793 02a6 B491      		lpm r27, Z
 794               		
 795               	 ;  0 "" 2
 796               	.LVL30:
 797               		.loc 1 89 4 discriminator 3 view .LVU320
 798               	/* #NOAPP */
 799               	.LBE12:
 800 02a8 B5B9      		out 0x5,r27
 801               		.loc 1 89 4 discriminator 3 view .LVU321
 802 02aa 4398      		cbi 0x8,3
 803               		.loc 1 89 4 discriminator 3 view .LVU322
 804 02ac 439A      		sbi 0x8,3
 805               		.loc 1 89 4 discriminator 3 view .LVU323
 806               		.loc 1 89 4 discriminator 3 view .LVU324
 807               	.LBB13:
 808               		.loc 1 89 4 discriminator 3 view .LVU325
 809               	.LVL31:
 810               		.loc 1 89 4 discriminator 3 view .LVU326
 811               		.loc 1 89 4 discriminator 3 view .LVU327
 812 02ae FC01      		movw r30,r24
 813               	/* #APP */
 814               	 ;  89 "lcd.c" 1
 815 02b0 A591      		lpm r26, Z+
 816 02b2 B491      		lpm r27, Z
 817               		
 818               	 ;  0 "" 2
 819               	.LVL32:
 820               		.loc 1 89 4 discriminator 3 view .LVU328
 821               	/* #NOAPP */
 822               	.LBE13:
 823 02b4 A5B9      		out 0x5,r26
 824               		.loc 1 89 4 discriminator 3 view .LVU329
 825 02b6 4398      		cbi 0x8,3
 826               		.loc 1 89 4 discriminator 3 view .LVU330
 827 02b8 439A      		sbi 0x8,3
 828               		.loc 1 89 4 discriminator 3 view .LVU331
 829               		.loc 1 89 48 discriminator 3 view .LVU332
  87:lcd.c         **** 			write_data16(pgm_read_word(&bg1_2[x+y*120]));
 830               		.loc 1 87 25 discriminator 3 view .LVU333
 831 02ba 4F5F      		subi r20,-1
 832 02bc 5F4F      		sbci r21,-1
 833               	.LVL33:
  87:lcd.c         **** 			write_data16(pgm_read_word(&bg1_2[x+y*120]));
 834               		.loc 1 87 16 discriminator 3 view .LVU334
 835 02be 0296      		adiw r24,2
 836 02c0 4837      		cpi r20,120
 837 02c2 5105      		cpc r21,__zero_reg__
 838 02c4 01F4      		brne .L14
 839 02c6 C901      		movw r24,r18
  90:lcd.c         **** 		}
  91:lcd.c         **** 		for(x = 0; x <= 119; x++){
 840               		.loc 1 91 9 is_stmt 0 view .LVU335
 841 02c8 40E0      		ldi r20,0
 842 02ca 50E0      		ldi r21,0
 843               	.LVL34:
 844               	.L15:
  92:lcd.c         **** 			write_data16(pgm_read_word(&bg1_2[x+y*120]));
GAS LISTING /tmp/ccBau7gc.s 			page 18


 845               		.loc 1 92 4 is_stmt 1 discriminator 3 view .LVU336
 846               	.LBB14:
 847               		.loc 1 92 4 discriminator 3 view .LVU337
 848               		.loc 1 92 4 discriminator 3 view .LVU338
 849               		.loc 1 92 4 discriminator 3 view .LVU339
 850 02cc FC01      		movw r30,r24
 851               	/* #APP */
 852               	 ;  92 "lcd.c" 1
 853 02ce A591      		lpm r26, Z+
 854 02d0 B491      		lpm r27, Z
 855               		
 856               	 ;  0 "" 2
 857               	.LVL35:
 858               		.loc 1 92 4 discriminator 3 view .LVU340
 859               	/* #NOAPP */
 860               	.LBE14:
 861 02d2 B5B9      		out 0x5,r27
 862               		.loc 1 92 4 discriminator 3 view .LVU341
 863 02d4 4398      		cbi 0x8,3
 864               		.loc 1 92 4 discriminator 3 view .LVU342
 865 02d6 439A      		sbi 0x8,3
 866               		.loc 1 92 4 discriminator 3 view .LVU343
 867               		.loc 1 92 4 discriminator 3 view .LVU344
 868               	.LBB15:
 869               		.loc 1 92 4 discriminator 3 view .LVU345
 870               	.LVL36:
 871               		.loc 1 92 4 discriminator 3 view .LVU346
 872               		.loc 1 92 4 discriminator 3 view .LVU347
 873 02d8 FC01      		movw r30,r24
 874               	/* #APP */
 875               	 ;  92 "lcd.c" 1
 876 02da A591      		lpm r26, Z+
 877 02dc B491      		lpm r27, Z
 878               		
 879               	 ;  0 "" 2
 880               	.LVL37:
 881               		.loc 1 92 4 discriminator 3 view .LVU348
 882               	/* #NOAPP */
 883               	.LBE15:
 884 02de A5B9      		out 0x5,r26
 885               		.loc 1 92 4 discriminator 3 view .LVU349
 886 02e0 4398      		cbi 0x8,3
 887               		.loc 1 92 4 discriminator 3 view .LVU350
 888 02e2 439A      		sbi 0x8,3
 889               		.loc 1 92 4 discriminator 3 view .LVU351
 890               		.loc 1 92 48 discriminator 3 view .LVU352
  93:lcd.c         **** 			write_data16(pgm_read_word(&bg1_2[x+y*120]));
 891               		.loc 1 93 4 discriminator 3 view .LVU353
 892               	.LBB16:
 893               		.loc 1 93 4 discriminator 3 view .LVU354
 894               	.LVL38:
 895               		.loc 1 93 4 discriminator 3 view .LVU355
 896               		.loc 1 93 4 discriminator 3 view .LVU356
 897 02e4 FC01      		movw r30,r24
 898               	/* #APP */
 899               	 ;  93 "lcd.c" 1
 900 02e6 A591      		lpm r26, Z+
GAS LISTING /tmp/ccBau7gc.s 			page 19


 901 02e8 B491      		lpm r27, Z
 902               		
 903               	 ;  0 "" 2
 904               	.LVL39:
 905               		.loc 1 93 4 discriminator 3 view .LVU357
 906               	/* #NOAPP */
 907               	.LBE16:
 908 02ea B5B9      		out 0x5,r27
 909               		.loc 1 93 4 discriminator 3 view .LVU358
 910 02ec 4398      		cbi 0x8,3
 911               		.loc 1 93 4 discriminator 3 view .LVU359
 912 02ee 439A      		sbi 0x8,3
 913               		.loc 1 93 4 discriminator 3 view .LVU360
 914               		.loc 1 93 4 discriminator 3 view .LVU361
 915               	.LBB17:
 916               		.loc 1 93 4 discriminator 3 view .LVU362
 917               	.LVL40:
 918               		.loc 1 93 4 discriminator 3 view .LVU363
 919               		.loc 1 93 4 discriminator 3 view .LVU364
 920 02f0 FC01      		movw r30,r24
 921               	/* #APP */
 922               	 ;  93 "lcd.c" 1
 923 02f2 A591      		lpm r26, Z+
 924 02f4 B491      		lpm r27, Z
 925               		
 926               	 ;  0 "" 2
 927               	.LVL41:
 928               		.loc 1 93 4 discriminator 3 view .LVU365
 929               	/* #NOAPP */
 930               	.LBE17:
 931 02f6 A5B9      		out 0x5,r26
 932               		.loc 1 93 4 discriminator 3 view .LVU366
 933 02f8 4398      		cbi 0x8,3
 934               		.loc 1 93 4 discriminator 3 view .LVU367
 935 02fa 439A      		sbi 0x8,3
 936               		.loc 1 93 4 discriminator 3 view .LVU368
 937               		.loc 1 93 48 discriminator 3 view .LVU369
  91:lcd.c         **** 			write_data16(pgm_read_word(&bg1_2[x+y*120]));
 938               		.loc 1 91 25 discriminator 3 view .LVU370
 939 02fc 4F5F      		subi r20,-1
 940 02fe 5F4F      		sbci r21,-1
 941               	.LVL42:
  91:lcd.c         **** 			write_data16(pgm_read_word(&bg1_2[x+y*120]));
 942               		.loc 1 91 16 discriminator 3 view .LVU371
 943 0300 0296      		adiw r24,2
 944 0302 4837      		cpi r20,120
 945 0304 5105      		cpc r21,__zero_reg__
 946 0306 01F4      		brne .L15
  86:lcd.c         **** 		for(x = 0; x <= 119; x++){
 947               		.loc 1 86 23 discriminator 2 view .LVU372
  86:lcd.c         **** 		for(x = 0; x <= 119; x++){
 948               		.loc 1 86 15 discriminator 2 view .LVU373
 949 0308 2051      		subi r18,16
 950 030a 3F4F      		sbci r19,-1
 951 030c 6858      		subi r22,-120
 952 030e 7F4F      		sbci r23,-1
 953 0310 6038      		cpi r22,-128
GAS LISTING /tmp/ccBau7gc.s 			page 20


 954 0312 85E2      		ldi r24,37
 955 0314 7807      		cpc r23,r24
 956 0316 01F0      		breq .+2
 957 0318 00C0      		rjmp .L13
 958               	/* epilogue start */
  94:lcd.c         **** 		}
  95:lcd.c         **** 	}
  96:lcd.c         **** }
 959               		.loc 1 96 1 is_stmt 0 view .LVU374
 960 031a 0895      		ret
 961               		.cfi_endproc
 962               	.LFE3:
 963               		.size	init_graphics, .-init_graphics
 964               	.global	calibrate_graphics
 965               		.type	calibrate_graphics, @function
 966               	calibrate_graphics:
 967               	.LFB4:
  97:lcd.c         **** 
  98:lcd.c         **** void calibrate_graphics()
  99:lcd.c         **** //  Calibration graphic 120*39px
 100:lcd.c         **** //  Y offset 216px
 101:lcd.c         **** {
 968               		.loc 1 101 1 is_stmt 1 view -0
 969               		.cfi_startproc
 970               	/* prologue: function */
 971               	/* frame size = 0 */
 972               	/* stack size = 0 */
 973               	.L__stack_usage = 0
 102:lcd.c         **** 	uint8_t x, y;
 974               		.loc 1 102 2 view .LVU376
 103:lcd.c         **** 	write_cmd(COLUMN_ADDRESS_SET);
 975               		.loc 1 103 2 view .LVU377
 976 031c 4498      		cbi 0x8,4
 977               		.loc 1 103 2 view .LVU378
 978 031e 8AE2      		ldi r24,lo8(42)
 979 0320 85B9      		out 0x5,r24
 980               		.loc 1 103 2 view .LVU379
 981 0322 4398      		cbi 0x8,3
 982               		.loc 1 103 2 view .LVU380
 983 0324 439A      		sbi 0x8,3
 984               		.loc 1 103 2 view .LVU381
 985 0326 449A      		sbi 0x8,4
 986               		.loc 1 103 31 view .LVU382
 104:lcd.c         **** 	write_data16(0);
 987               		.loc 1 104 2 view .LVU383
 988 0328 15B8      		out 0x5,__zero_reg__
 989               		.loc 1 104 2 view .LVU384
 990 032a 4398      		cbi 0x8,3
 991               		.loc 1 104 2 view .LVU385
 992 032c 439A      		sbi 0x8,3
 993               		.loc 1 104 2 view .LVU386
 994               		.loc 1 104 2 view .LVU387
 995 032e 15B8      		out 0x5,__zero_reg__
 996               		.loc 1 104 2 view .LVU388
 997 0330 4398      		cbi 0x8,3
 998               		.loc 1 104 2 view .LVU389
 999 0332 439A      		sbi 0x8,3
GAS LISTING /tmp/ccBau7gc.s 			page 21


 1000               		.loc 1 104 2 view .LVU390
 1001               		.loc 1 104 17 view .LVU391
 105:lcd.c         **** 	write_data16(240);
 1002               		.loc 1 105 2 view .LVU392
 1003 0334 15B8      		out 0x5,__zero_reg__
 1004               		.loc 1 105 2 view .LVU393
 1005 0336 4398      		cbi 0x8,3
 1006               		.loc 1 105 2 view .LVU394
 1007 0338 439A      		sbi 0x8,3
 1008               		.loc 1 105 2 view .LVU395
 1009               		.loc 1 105 2 view .LVU396
 1010 033a 80EF      		ldi r24,lo8(-16)
 1011 033c 85B9      		out 0x5,r24
 1012               		.loc 1 105 2 view .LVU397
 1013 033e 4398      		cbi 0x8,3
 1014               		.loc 1 105 2 view .LVU398
 1015 0340 439A      		sbi 0x8,3
 1016               		.loc 1 105 2 view .LVU399
 1017               		.loc 1 105 19 view .LVU400
 106:lcd.c         **** 	write_cmd(PAGE_ADDRESS_SET);
 1018               		.loc 1 106 2 view .LVU401
 1019 0342 4498      		cbi 0x8,4
 1020               		.loc 1 106 2 view .LVU402
 1021 0344 8BE2      		ldi r24,lo8(43)
 1022 0346 85B9      		out 0x5,r24
 1023               		.loc 1 106 2 view .LVU403
 1024 0348 4398      		cbi 0x8,3
 1025               		.loc 1 106 2 view .LVU404
 1026 034a 439A      		sbi 0x8,3
 1027               		.loc 1 106 2 view .LVU405
 1028 034c 449A      		sbi 0x8,4
 1029               		.loc 1 106 29 view .LVU406
 107:lcd.c         **** 	write_data16(216);
 1030               		.loc 1 107 2 view .LVU407
 1031 034e 15B8      		out 0x5,__zero_reg__
 1032               		.loc 1 107 2 view .LVU408
 1033 0350 4398      		cbi 0x8,3
 1034               		.loc 1 107 2 view .LVU409
 1035 0352 439A      		sbi 0x8,3
 1036               		.loc 1 107 2 view .LVU410
 1037               		.loc 1 107 2 view .LVU411
 1038 0354 88ED      		ldi r24,lo8(-40)
 1039 0356 85B9      		out 0x5,r24
 1040               		.loc 1 107 2 view .LVU412
 1041 0358 4398      		cbi 0x8,3
 1042               		.loc 1 107 2 view .LVU413
 1043 035a 439A      		sbi 0x8,3
 1044               		.loc 1 107 2 view .LVU414
 1045               		.loc 1 107 19 view .LVU415
 108:lcd.c         **** 	write_data16(294);
 1046               		.loc 1 108 2 view .LVU416
 1047 035c 81E0      		ldi r24,lo8(1)
 1048 035e 85B9      		out 0x5,r24
 1049               		.loc 1 108 2 view .LVU417
 1050 0360 4398      		cbi 0x8,3
 1051               		.loc 1 108 2 view .LVU418
 1052 0362 439A      		sbi 0x8,3
GAS LISTING /tmp/ccBau7gc.s 			page 22


 1053               		.loc 1 108 2 view .LVU419
 1054               		.loc 1 108 2 view .LVU420
 1055 0364 86E2      		ldi r24,lo8(38)
 1056 0366 85B9      		out 0x5,r24
 1057               		.loc 1 108 2 view .LVU421
 1058 0368 4398      		cbi 0x8,3
 1059               		.loc 1 108 2 view .LVU422
 1060 036a 439A      		sbi 0x8,3
 1061               		.loc 1 108 2 view .LVU423
 1062               		.loc 1 108 19 view .LVU424
 109:lcd.c         **** 	write_cmd(MEMORY_WRITE);
 1063               		.loc 1 109 2 view .LVU425
 1064 036c 4498      		cbi 0x8,4
 1065               		.loc 1 109 2 view .LVU426
 1066 036e 8CE2      		ldi r24,lo8(44)
 1067 0370 85B9      		out 0x5,r24
 1068               		.loc 1 109 2 view .LVU427
 1069 0372 4398      		cbi 0x8,3
 1070               		.loc 1 109 2 view .LVU428
 1071 0374 439A      		sbi 0x8,3
 1072               		.loc 1 109 2 view .LVU429
 1073 0376 449A      		sbi 0x8,4
 1074               		.loc 1 109 25 view .LVU430
 110:lcd.c         **** 	for(y = 0; y <= 38; y++){
 1075               		.loc 1 110 2 view .LVU431
 1076               	.LVL43:
 1077               		.loc 1 110 15 view .LVU432
 1078 0378 20E0      		ldi r18,lo8(bg1_3)
 1079 037a 30E0      		ldi r19,hi8(bg1_3)
 109:lcd.c         **** 	write_cmd(MEMORY_WRITE);
 1080               		.loc 1 109 2 is_stmt 0 view .LVU433
 1081 037c 60E0      		ldi r22,0
 1082 037e 70E0      		ldi r23,0
 1083               	.LVL44:
 1084               	.L22:
 111:lcd.c         **** 		for(x = 0; x <= 119; x++){
 1085               		.loc 1 111 16 is_stmt 1 view .LVU434
 101:lcd.c         **** 	uint8_t x, y;
 1086               		.loc 1 101 1 is_stmt 0 view .LVU435
 1087 0380 C901      		movw r24,r18
 1088               		.loc 1 111 9 view .LVU436
 1089 0382 40E0      		ldi r20,0
 1090               	.LVL45:
 1091               	.L23:
 112:lcd.c         **** 			write_data16(pgm_read_word(&bg1_3[x+y*120]));
 1092               		.loc 1 112 4 is_stmt 1 discriminator 3 view .LVU437
 1093               	.LBB18:
 1094               		.loc 1 112 4 discriminator 3 view .LVU438
 1095               		.loc 1 112 4 discriminator 3 view .LVU439
 1096               		.loc 1 112 4 discriminator 3 view .LVU440
 1097 0384 FC01      		movw r30,r24
 1098               	/* #APP */
 1099               	 ;  112 "lcd.c" 1
 1100 0386 A591      		lpm r26, Z+
 1101 0388 B491      		lpm r27, Z
 1102               		
 1103               	 ;  0 "" 2
GAS LISTING /tmp/ccBau7gc.s 			page 23


 1104               	.LVL46:
 1105               		.loc 1 112 4 discriminator 3 view .LVU441
 1106               	/* #NOAPP */
 1107               	.LBE18:
 1108 038a B5B9      		out 0x5,r27
 1109               		.loc 1 112 4 discriminator 3 view .LVU442
 1110 038c 4398      		cbi 0x8,3
 1111               		.loc 1 112 4 discriminator 3 view .LVU443
 1112 038e 439A      		sbi 0x8,3
 1113               		.loc 1 112 4 discriminator 3 view .LVU444
 1114               		.loc 1 112 4 discriminator 3 view .LVU445
 1115               	.LBB19:
 1116               		.loc 1 112 4 discriminator 3 view .LVU446
 1117               	.LVL47:
 1118               		.loc 1 112 4 discriminator 3 view .LVU447
 1119               		.loc 1 112 4 discriminator 3 view .LVU448
 1120 0390 FC01      		movw r30,r24
 1121               	/* #APP */
 1122               	 ;  112 "lcd.c" 1
 1123 0392 A591      		lpm r26, Z+
 1124 0394 B491      		lpm r27, Z
 1125               		
 1126               	 ;  0 "" 2
 1127               	.LVL48:
 1128               		.loc 1 112 4 discriminator 3 view .LVU449
 1129               	/* #NOAPP */
 1130               	.LBE19:
 1131 0396 A5B9      		out 0x5,r26
 1132               		.loc 1 112 4 discriminator 3 view .LVU450
 1133 0398 4398      		cbi 0x8,3
 1134               		.loc 1 112 4 discriminator 3 view .LVU451
 1135 039a 439A      		sbi 0x8,3
 1136               		.loc 1 112 4 discriminator 3 view .LVU452
 1137               		.loc 1 112 48 discriminator 3 view .LVU453
 113:lcd.c         **** 			write_data16(pgm_read_word(&bg1_3[x+y*120]));
 1138               		.loc 1 113 4 discriminator 3 view .LVU454
 1139               	.LBB20:
 1140               		.loc 1 113 4 discriminator 3 view .LVU455
 1141               	.LVL49:
 1142               		.loc 1 113 4 discriminator 3 view .LVU456
 1143               		.loc 1 113 4 discriminator 3 view .LVU457
 1144 039c FC01      		movw r30,r24
 1145               	/* #APP */
 1146               	 ;  113 "lcd.c" 1
 1147 039e A591      		lpm r26, Z+
 1148 03a0 B491      		lpm r27, Z
 1149               		
 1150               	 ;  0 "" 2
 1151               	.LVL50:
 1152               		.loc 1 113 4 discriminator 3 view .LVU458
 1153               	/* #NOAPP */
 1154               	.LBE20:
 1155 03a2 B5B9      		out 0x5,r27
 1156               		.loc 1 113 4 discriminator 3 view .LVU459
 1157 03a4 4398      		cbi 0x8,3
 1158               		.loc 1 113 4 discriminator 3 view .LVU460
 1159 03a6 439A      		sbi 0x8,3
GAS LISTING /tmp/ccBau7gc.s 			page 24


 1160               		.loc 1 113 4 discriminator 3 view .LVU461
 1161               		.loc 1 113 4 discriminator 3 view .LVU462
 1162               	.LBB21:
 1163               		.loc 1 113 4 discriminator 3 view .LVU463
 1164               	.LVL51:
 1165               		.loc 1 113 4 discriminator 3 view .LVU464
 1166               		.loc 1 113 4 discriminator 3 view .LVU465
 1167 03a8 FC01      		movw r30,r24
 1168               	/* #APP */
 1169               	 ;  113 "lcd.c" 1
 1170 03aa A591      		lpm r26, Z+
 1171 03ac B491      		lpm r27, Z
 1172               		
 1173               	 ;  0 "" 2
 1174               	.LVL52:
 1175               		.loc 1 113 4 discriminator 3 view .LVU466
 1176               	/* #NOAPP */
 1177               	.LBE21:
 1178 03ae A5B9      		out 0x5,r26
 1179               		.loc 1 113 4 discriminator 3 view .LVU467
 1180 03b0 4398      		cbi 0x8,3
 1181               		.loc 1 113 4 discriminator 3 view .LVU468
 1182 03b2 439A      		sbi 0x8,3
 1183               		.loc 1 113 4 discriminator 3 view .LVU469
 1184               		.loc 1 113 48 discriminator 3 view .LVU470
 111:lcd.c         **** 			write_data16(pgm_read_word(&bg1_3[x+y*120]));
 1185               		.loc 1 111 25 discriminator 3 view .LVU471
 1186 03b4 4F5F      		subi r20,lo8(-(1))
 1187               	.LVL53:
 111:lcd.c         **** 			write_data16(pgm_read_word(&bg1_3[x+y*120]));
 1188               		.loc 1 111 16 discriminator 3 view .LVU472
 1189 03b6 0296      		adiw r24,2
 1190 03b8 4837      		cpi r20,lo8(120)
 1191 03ba 01F4      		brne .L23
 1192 03bc C901      		movw r24,r18
 114:lcd.c         **** 		}
 115:lcd.c         **** 		for(x = 0; x <= 119; x++){
 1193               		.loc 1 115 9 is_stmt 0 view .LVU473
 1194 03be 40E0      		ldi r20,0
 1195               	.LVL54:
 1196               	.L24:
 116:lcd.c         **** 			write_data16(pgm_read_word(&bg1_3[x+y*120]));
 1197               		.loc 1 116 4 is_stmt 1 discriminator 3 view .LVU474
 1198               	.LBB22:
 1199               		.loc 1 116 4 discriminator 3 view .LVU475
 1200               		.loc 1 116 4 discriminator 3 view .LVU476
 1201               		.loc 1 116 4 discriminator 3 view .LVU477
 1202 03c0 FC01      		movw r30,r24
 1203               	/* #APP */
 1204               	 ;  116 "lcd.c" 1
 1205 03c2 A591      		lpm r26, Z+
 1206 03c4 B491      		lpm r27, Z
 1207               		
 1208               	 ;  0 "" 2
 1209               	.LVL55:
 1210               		.loc 1 116 4 discriminator 3 view .LVU478
 1211               	/* #NOAPP */
GAS LISTING /tmp/ccBau7gc.s 			page 25


 1212               	.LBE22:
 1213 03c6 B5B9      		out 0x5,r27
 1214               		.loc 1 116 4 discriminator 3 view .LVU479
 1215 03c8 4398      		cbi 0x8,3
 1216               		.loc 1 116 4 discriminator 3 view .LVU480
 1217 03ca 439A      		sbi 0x8,3
 1218               		.loc 1 116 4 discriminator 3 view .LVU481
 1219               		.loc 1 116 4 discriminator 3 view .LVU482
 1220               	.LBB23:
 1221               		.loc 1 116 4 discriminator 3 view .LVU483
 1222               	.LVL56:
 1223               		.loc 1 116 4 discriminator 3 view .LVU484
 1224               		.loc 1 116 4 discriminator 3 view .LVU485
 1225 03cc FC01      		movw r30,r24
 1226               	/* #APP */
 1227               	 ;  116 "lcd.c" 1
 1228 03ce A591      		lpm r26, Z+
 1229 03d0 B491      		lpm r27, Z
 1230               		
 1231               	 ;  0 "" 2
 1232               	.LVL57:
 1233               		.loc 1 116 4 discriminator 3 view .LVU486
 1234               	/* #NOAPP */
 1235               	.LBE23:
 1236 03d2 A5B9      		out 0x5,r26
 1237               		.loc 1 116 4 discriminator 3 view .LVU487
 1238 03d4 4398      		cbi 0x8,3
 1239               		.loc 1 116 4 discriminator 3 view .LVU488
 1240 03d6 439A      		sbi 0x8,3
 1241               		.loc 1 116 4 discriminator 3 view .LVU489
 1242               		.loc 1 116 48 discriminator 3 view .LVU490
 117:lcd.c         **** 			write_data16(pgm_read_word(&bg1_3[x+y*120]));
 1243               		.loc 1 117 4 discriminator 3 view .LVU491
 1244               	.LBB24:
 1245               		.loc 1 117 4 discriminator 3 view .LVU492
 1246               	.LVL58:
 1247               		.loc 1 117 4 discriminator 3 view .LVU493
 1248               		.loc 1 117 4 discriminator 3 view .LVU494
 1249 03d8 FC01      		movw r30,r24
 1250               	/* #APP */
 1251               	 ;  117 "lcd.c" 1
 1252 03da A591      		lpm r26, Z+
 1253 03dc B491      		lpm r27, Z
 1254               		
 1255               	 ;  0 "" 2
 1256               	.LVL59:
 1257               		.loc 1 117 4 discriminator 3 view .LVU495
 1258               	/* #NOAPP */
 1259               	.LBE24:
 1260 03de B5B9      		out 0x5,r27
 1261               		.loc 1 117 4 discriminator 3 view .LVU496
 1262 03e0 4398      		cbi 0x8,3
 1263               		.loc 1 117 4 discriminator 3 view .LVU497
 1264 03e2 439A      		sbi 0x8,3
 1265               		.loc 1 117 4 discriminator 3 view .LVU498
 1266               		.loc 1 117 4 discriminator 3 view .LVU499
 1267               	.LBB25:
GAS LISTING /tmp/ccBau7gc.s 			page 26


 1268               		.loc 1 117 4 discriminator 3 view .LVU500
 1269               	.LVL60:
 1270               		.loc 1 117 4 discriminator 3 view .LVU501
 1271               		.loc 1 117 4 discriminator 3 view .LVU502
 1272 03e4 FC01      		movw r30,r24
 1273               	/* #APP */
 1274               	 ;  117 "lcd.c" 1
 1275 03e6 A591      		lpm r26, Z+
 1276 03e8 B491      		lpm r27, Z
 1277               		
 1278               	 ;  0 "" 2
 1279               	.LVL61:
 1280               		.loc 1 117 4 discriminator 3 view .LVU503
 1281               	/* #NOAPP */
 1282               	.LBE25:
 1283 03ea A5B9      		out 0x5,r26
 1284               		.loc 1 117 4 discriminator 3 view .LVU504
 1285 03ec 4398      		cbi 0x8,3
 1286               		.loc 1 117 4 discriminator 3 view .LVU505
 1287 03ee 439A      		sbi 0x8,3
 1288               		.loc 1 117 4 discriminator 3 view .LVU506
 1289               		.loc 1 117 48 discriminator 3 view .LVU507
 115:lcd.c         **** 			write_data16(pgm_read_word(&bg1_3[x+y*120]));
 1290               		.loc 1 115 25 discriminator 3 view .LVU508
 1291 03f0 4F5F      		subi r20,lo8(-(1))
 1292               	.LVL62:
 115:lcd.c         **** 			write_data16(pgm_read_word(&bg1_3[x+y*120]));
 1293               		.loc 1 115 16 discriminator 3 view .LVU509
 1294 03f2 0296      		adiw r24,2
 1295 03f4 4837      		cpi r20,lo8(120)
 1296 03f6 01F4      		brne .L24
 110:lcd.c         **** 		for(x = 0; x <= 119; x++){
 1297               		.loc 1 110 23 discriminator 2 view .LVU510
 1298               	.LVL63:
 110:lcd.c         **** 		for(x = 0; x <= 119; x++){
 1299               		.loc 1 110 15 discriminator 2 view .LVU511
 1300 03f8 2051      		subi r18,16
 1301 03fa 3F4F      		sbci r19,-1
 1302 03fc 6858      		subi r22,-120
 1303 03fe 7F4F      		sbci r23,-1
 1304               	.LVL64:
 110:lcd.c         **** 		for(x = 0; x <= 119; x++){
 1305               		.loc 1 110 15 is_stmt 0 discriminator 2 view .LVU512
 1306 0400 6834      		cpi r22,72
 1307 0402 82E1      		ldi r24,18
 1308 0404 7807      		cpc r23,r24
 1309 0406 01F0      		breq .+2
 1310 0408 00C0      		rjmp .L22
 1311               	/* epilogue start */
 118:lcd.c         **** 		}
 119:lcd.c         **** 	}
 120:lcd.c         **** }
 1312               		.loc 1 120 1 view .LVU513
 1313 040a 0895      		ret
 1314               		.cfi_endproc
 1315               	.LFE4:
 1316               		.size	calibrate_graphics, .-calibrate_graphics
GAS LISTING /tmp/ccBau7gc.s 			page 27


 1317               	.global	display
 1318               		.data
 1319               		.type	display, @object
 1320               		.size	display, 14
 1321               	display:
 1322 0000 F000      		.word	240
 1323 0002 4001      		.word	320
 1324 0004 0000      		.word	0
 1325 0006 0000      		.word	0
 1326 0008 0000      		.word	0
 1327 000a E420      		.word	8420
 1328 000c 99FF      		.word	-103
 1329               		.text
 1330               	.Letext0:
 1331               		.file 2 "/usr/avr/include/stdint.h"
 1332               		.file 3 "graphics.h"
 1333               		.file 4 "lcd.h"
 1334               		.file 5 "ili934x.h"
 1335               		.section	.debug_info,"",@progbits
 1336               	.Ldebug_info0:
 1337 0000 0606 0000 		.long	0x606
 1338 0004 0500      		.word	0x5
 1339 0006 01        		.byte	0x1
 1340 0007 04        		.byte	0x4
 1341 0008 0000 0000 		.long	.Ldebug_abbrev0
 1342 000c 0E        		.uleb128 0xe
 1343 000d 0000 0000 		.long	.LASF29
 1344 0011 1D        		.byte	0x1d
 1345 0012 0000 0000 		.long	.LASF0
 1346 0016 0000 0000 		.long	.LASF1
 1347 001a 0000 0000 		.long	.Ltext0
 1348 001e 0C04 0000 		.long	.Letext0-.Ltext0
 1349 0022 0000 0000 		.long	.Ldebug_line0
 1350 0026 04        		.uleb128 0x4
 1351 0027 01        		.byte	0x1
 1352 0028 06        		.byte	0x6
 1353 0029 0000 0000 		.long	.LASF2
 1354 002d 09        		.uleb128 0x9
 1355 002e 0000 0000 		.long	.LASF4
 1356 0032 02        		.byte	0x2
 1357 0033 7E        		.byte	0x7e
 1358 0034 16        		.byte	0x16
 1359 0035 3900 0000 		.long	0x39
 1360 0039 04        		.uleb128 0x4
 1361 003a 01        		.byte	0x1
 1362 003b 08        		.byte	0x8
 1363 003c 0000 0000 		.long	.LASF3
 1364 0040 0F        		.uleb128 0xf
 1365 0041 02        		.byte	0x2
 1366 0042 05        		.byte	0x5
 1367 0043 696E 7400 		.string	"int"
 1368 0047 09        		.uleb128 0x9
 1369 0048 0000 0000 		.long	.LASF5
 1370 004c 02        		.byte	0x2
 1371 004d 80        		.byte	0x80
 1372 004e 16        		.byte	0x16
 1373 004f 5800 0000 		.long	0x58
GAS LISTING /tmp/ccBau7gc.s 			page 28


 1374 0053 0A        		.uleb128 0xa
 1375 0054 4700 0000 		.long	0x47
 1376 0058 04        		.uleb128 0x4
 1377 0059 02        		.byte	0x2
 1378 005a 07        		.byte	0x7
 1379 005b 0000 0000 		.long	.LASF6
 1380 005f 04        		.uleb128 0x4
 1381 0060 04        		.byte	0x4
 1382 0061 05        		.byte	0x5
 1383 0062 0000 0000 		.long	.LASF7
 1384 0066 04        		.uleb128 0x4
 1385 0067 04        		.byte	0x4
 1386 0068 07        		.byte	0x7
 1387 0069 0000 0000 		.long	.LASF8
 1388 006d 04        		.uleb128 0x4
 1389 006e 08        		.byte	0x8
 1390 006f 05        		.byte	0x5
 1391 0070 0000 0000 		.long	.LASF9
 1392 0074 04        		.uleb128 0x4
 1393 0075 08        		.byte	0x8
 1394 0076 07        		.byte	0x7
 1395 0077 0000 0000 		.long	.LASF10
 1396 007b 10        		.uleb128 0x10
 1397 007c 5300 0000 		.long	0x53
 1398 0080 8600 0000 		.long	0x86
 1399 0084 11        		.uleb128 0x11
 1400 0085 00        		.byte	0
 1401 0086 0A        		.uleb128 0xa
 1402 0087 7B00 0000 		.long	0x7b
 1403 008b 06        		.uleb128 0x6
 1404 008c 0000 0000 		.long	.LASF11
 1405 0090 03        		.byte	0x3
 1406 0091 03        		.byte	0x3
 1407 0092 17        		.byte	0x17
 1408 0093 8600 0000 		.long	0x86
 1409 0097 06        		.uleb128 0x6
 1410 0098 0000 0000 		.long	.LASF12
 1411 009c 03        		.byte	0x3
 1412 009d 04        		.byte	0x4
 1413 009e 17        		.byte	0x17
 1414 009f 8600 0000 		.long	0x86
 1415 00a3 06        		.uleb128 0x6
 1416 00a4 0000 0000 		.long	.LASF13
 1417 00a8 03        		.byte	0x3
 1418 00a9 05        		.byte	0x5
 1419 00aa 17        		.byte	0x17
 1420 00ab 8600 0000 		.long	0x86
 1421 00af 12        		.uleb128 0x12
 1422 00b0 07        		.byte	0x7
 1423 00b1 02        		.byte	0x2
 1424 00b2 5800 0000 		.long	0x58
 1425 00b6 04        		.byte	0x4
 1426 00b7 15        		.byte	0x15
 1427 00b8 0E        		.byte	0xe
 1428 00b9 D600 0000 		.long	0xd6
 1429 00bd 07        		.uleb128 0x7
 1430 00be 0000 0000 		.long	.LASF14
GAS LISTING /tmp/ccBau7gc.s 			page 29


 1431 00c2 00        		.byte	0
 1432 00c3 07        		.uleb128 0x7
 1433 00c4 0000 0000 		.long	.LASF15
 1434 00c8 01        		.byte	0x1
 1435 00c9 07        		.uleb128 0x7
 1436 00ca 0000 0000 		.long	.LASF16
 1437 00ce 02        		.byte	0x2
 1438 00cf 07        		.uleb128 0x7
 1439 00d0 0000 0000 		.long	.LASF17
 1440 00d4 03        		.byte	0x3
 1441 00d5 00        		.byte	0
 1442 00d6 09        		.uleb128 0x9
 1443 00d7 0000 0000 		.long	.LASF18
 1444 00db 04        		.byte	0x4
 1445 00dc 15        		.byte	0x15
 1446 00dd 29        		.byte	0x29
 1447 00de AF00 0000 		.long	0xaf
 1448 00e2 13        		.uleb128 0x13
 1449 00e3 0E        		.byte	0xe
 1450 00e4 04        		.byte	0x4
 1451 00e5 17        		.byte	0x17
 1452 00e6 09        		.byte	0x9
 1453 00e7 3A01 0000 		.long	0x13a
 1454 00eb 05        		.uleb128 0x5
 1455 00ec 0000 0000 		.long	.LASF19
 1456 00f0 18        		.byte	0x18
 1457 00f1 0B        		.byte	0xb
 1458 00f2 4700 0000 		.long	0x47
 1459 00f6 00        		.byte	0
 1460 00f7 05        		.uleb128 0x5
 1461 00f8 0000 0000 		.long	.LASF20
 1462 00fc 18        		.byte	0x18
 1463 00fd 12        		.byte	0x12
 1464 00fe 4700 0000 		.long	0x47
 1465 0102 02        		.byte	0x2
 1466 0103 05        		.uleb128 0x5
 1467 0104 0000 0000 		.long	.LASF21
 1468 0108 19        		.byte	0x19
 1469 0109 0E        		.byte	0xe
 1470 010a D600 0000 		.long	0xd6
 1471 010e 04        		.byte	0x4
 1472 010f 0B        		.uleb128 0xb
 1473 0110 7800      		.string	"x"
 1474 0112 0B        		.byte	0xb
 1475 0113 4700 0000 		.long	0x47
 1476 0117 06        		.byte	0x6
 1477 0118 0B        		.uleb128 0xb
 1478 0119 7900      		.string	"y"
 1479 011b 0E        		.byte	0xe
 1480 011c 4700 0000 		.long	0x47
 1481 0120 08        		.byte	0x8
 1482 0121 05        		.uleb128 0x5
 1483 0122 0000 0000 		.long	.LASF22
 1484 0126 1B        		.byte	0x1b
 1485 0127 0B        		.byte	0xb
 1486 0128 4700 0000 		.long	0x47
 1487 012c 0A        		.byte	0xa
GAS LISTING /tmp/ccBau7gc.s 			page 30


 1488 012d 05        		.uleb128 0x5
 1489 012e 0000 0000 		.long	.LASF23
 1490 0132 1B        		.byte	0x1b
 1491 0133 17        		.byte	0x17
 1492 0134 4700 0000 		.long	0x47
 1493 0138 0C        		.byte	0xc
 1494 0139 00        		.byte	0
 1495 013a 14        		.uleb128 0x14
 1496 013b 6C63 6400 		.string	"lcd"
 1497 013f 04        		.byte	0x4
 1498 0140 1C        		.byte	0x1c
 1499 0141 03        		.byte	0x3
 1500 0142 E200 0000 		.long	0xe2
 1501 0146 06        		.uleb128 0x6
 1502 0147 0000 0000 		.long	.LASF24
 1503 014b 04        		.byte	0x4
 1504 014c 1E        		.byte	0x1e
 1505 014d 0C        		.byte	0xc
 1506 014e 3A01 0000 		.long	0x13a
 1507 0152 15        		.uleb128 0x15
 1508 0153 4601 0000 		.long	0x146
 1509 0157 01        		.byte	0x1
 1510 0158 0A        		.byte	0xa
 1511 0159 05        		.byte	0x5
 1512 015a 05        		.uleb128 0x5
 1513 015b 03        		.byte	0x3
 1514 015c 0000 0000 		.long	display
 1515 0160 16        		.uleb128 0x16
 1516 0161 0000 0000 		.long	.LASF30
 1517 0165 05        		.byte	0x5
 1518 0166 7E        		.byte	0x7e
 1519 0167 06        		.byte	0x6
 1520 0168 6E01 0000 		.long	0x16e
 1521 016c 17        		.uleb128 0x17
 1522 016d 00        		.byte	0
 1523 016e 0C        		.uleb128 0xc
 1524 016f 0000 0000 		.long	.LASF27
 1525 0173 62        		.byte	0x62
 1526 0174 0000 0000 		.long	.LFB4
 1527 0178 F000 0000 		.long	.LFE4-.LFB4
 1528 017c 01        		.uleb128 0x1
 1529 017d 9C        		.byte	0x9c
 1530 017e F102 0000 		.long	0x2f1
 1531 0182 08        		.uleb128 0x8
 1532 0183 7800      		.string	"x"
 1533 0185 66        		.byte	0x66
 1534 0186 0A        		.byte	0xa
 1535 0187 2D00 0000 		.long	0x2d
 1536 018b 0000 0000 		.long	.LLST19
 1537 018f 0000 0000 		.long	.LVUS19
 1538 0193 08        		.uleb128 0x8
 1539 0194 7900      		.string	"y"
 1540 0196 66        		.byte	0x66
 1541 0197 0D        		.byte	0xd
 1542 0198 2D00 0000 		.long	0x2d
 1543 019c 0000 0000 		.long	.LLST20
 1544 01a0 0000 0000 		.long	.LVUS20
GAS LISTING /tmp/ccBau7gc.s 			page 31


 1545 01a4 03        		.uleb128 0x3
 1546 01a5 0000 0000 		.long	.LBB18
 1547 01a9 0600 0000 		.long	.LBE18-.LBB18
 1548 01ad CE01 0000 		.long	0x1ce
 1549 01b1 01        		.uleb128 0x1
 1550 01b2 0000 0000 		.long	.LASF25
 1551 01b6 70        		.byte	0x70
 1552 01b7 4700 0000 		.long	0x47
 1553 01bb 0000 0000 		.long	.LLST21
 1554 01bf 0000 0000 		.long	.LVUS21
 1555 01c3 02        		.uleb128 0x2
 1556 01c4 0000 0000 		.long	.LASF26
 1557 01c8 70        		.byte	0x70
 1558 01c9 4700 0000 		.long	0x47
 1559 01cd 00        		.byte	0
 1560 01ce 03        		.uleb128 0x3
 1561 01cf 0000 0000 		.long	.LBB19
 1562 01d3 0600 0000 		.long	.LBE19-.LBB19
 1563 01d7 F801 0000 		.long	0x1f8
 1564 01db 01        		.uleb128 0x1
 1565 01dc 0000 0000 		.long	.LASF25
 1566 01e0 70        		.byte	0x70
 1567 01e1 4700 0000 		.long	0x47
 1568 01e5 0000 0000 		.long	.LLST22
 1569 01e9 0000 0000 		.long	.LVUS22
 1570 01ed 02        		.uleb128 0x2
 1571 01ee 0000 0000 		.long	.LASF26
 1572 01f2 70        		.byte	0x70
 1573 01f3 4700 0000 		.long	0x47
 1574 01f7 00        		.byte	0
 1575 01f8 03        		.uleb128 0x3
 1576 01f9 0000 0000 		.long	.LBB20
 1577 01fd 0600 0000 		.long	.LBE20-.LBB20
 1578 0201 2202 0000 		.long	0x222
 1579 0205 01        		.uleb128 0x1
 1580 0206 0000 0000 		.long	.LASF25
 1581 020a 71        		.byte	0x71
 1582 020b 4700 0000 		.long	0x47
 1583 020f 0000 0000 		.long	.LLST23
 1584 0213 0000 0000 		.long	.LVUS23
 1585 0217 02        		.uleb128 0x2
 1586 0218 0000 0000 		.long	.LASF26
 1587 021c 71        		.byte	0x71
 1588 021d 4700 0000 		.long	0x47
 1589 0221 00        		.byte	0
 1590 0222 03        		.uleb128 0x3
 1591 0223 0000 0000 		.long	.LBB21
 1592 0227 0600 0000 		.long	.LBE21-.LBB21
 1593 022b 4C02 0000 		.long	0x24c
 1594 022f 01        		.uleb128 0x1
 1595 0230 0000 0000 		.long	.LASF25
 1596 0234 71        		.byte	0x71
 1597 0235 4700 0000 		.long	0x47
 1598 0239 0000 0000 		.long	.LLST24
 1599 023d 0000 0000 		.long	.LVUS24
 1600 0241 02        		.uleb128 0x2
 1601 0242 0000 0000 		.long	.LASF26
GAS LISTING /tmp/ccBau7gc.s 			page 32


 1602 0246 71        		.byte	0x71
 1603 0247 4700 0000 		.long	0x47
 1604 024b 00        		.byte	0
 1605 024c 03        		.uleb128 0x3
 1606 024d 0000 0000 		.long	.LBB22
 1607 0251 0600 0000 		.long	.LBE22-.LBB22
 1608 0255 7602 0000 		.long	0x276
 1609 0259 01        		.uleb128 0x1
 1610 025a 0000 0000 		.long	.LASF25
 1611 025e 74        		.byte	0x74
 1612 025f 4700 0000 		.long	0x47
 1613 0263 0000 0000 		.long	.LLST25
 1614 0267 0000 0000 		.long	.LVUS25
 1615 026b 02        		.uleb128 0x2
 1616 026c 0000 0000 		.long	.LASF26
 1617 0270 74        		.byte	0x74
 1618 0271 4700 0000 		.long	0x47
 1619 0275 00        		.byte	0
 1620 0276 03        		.uleb128 0x3
 1621 0277 0000 0000 		.long	.LBB23
 1622 027b 0600 0000 		.long	.LBE23-.LBB23
 1623 027f A002 0000 		.long	0x2a0
 1624 0283 01        		.uleb128 0x1
 1625 0284 0000 0000 		.long	.LASF25
 1626 0288 74        		.byte	0x74
 1627 0289 4700 0000 		.long	0x47
 1628 028d 0000 0000 		.long	.LLST26
 1629 0291 0000 0000 		.long	.LVUS26
 1630 0295 02        		.uleb128 0x2
 1631 0296 0000 0000 		.long	.LASF26
 1632 029a 74        		.byte	0x74
 1633 029b 4700 0000 		.long	0x47
 1634 029f 00        		.byte	0
 1635 02a0 03        		.uleb128 0x3
 1636 02a1 0000 0000 		.long	.LBB24
 1637 02a5 0600 0000 		.long	.LBE24-.LBB24
 1638 02a9 CA02 0000 		.long	0x2ca
 1639 02ad 01        		.uleb128 0x1
 1640 02ae 0000 0000 		.long	.LASF25
 1641 02b2 75        		.byte	0x75
 1642 02b3 4700 0000 		.long	0x47
 1643 02b7 0000 0000 		.long	.LLST27
 1644 02bb 0000 0000 		.long	.LVUS27
 1645 02bf 02        		.uleb128 0x2
 1646 02c0 0000 0000 		.long	.LASF26
 1647 02c4 75        		.byte	0x75
 1648 02c5 4700 0000 		.long	0x47
 1649 02c9 00        		.byte	0
 1650 02ca 0D        		.uleb128 0xd
 1651 02cb 0000 0000 		.long	.LBB25
 1652 02cf 0600 0000 		.long	.LBE25-.LBB25
 1653 02d3 01        		.uleb128 0x1
 1654 02d4 0000 0000 		.long	.LASF25
 1655 02d8 75        		.byte	0x75
 1656 02d9 4700 0000 		.long	0x47
 1657 02dd 0000 0000 		.long	.LLST28
 1658 02e1 0000 0000 		.long	.LVUS28
GAS LISTING /tmp/ccBau7gc.s 			page 33


 1659 02e5 02        		.uleb128 0x2
 1660 02e6 0000 0000 		.long	.LASF26
 1661 02ea 75        		.byte	0x75
 1662 02eb 4700 0000 		.long	0x47
 1663 02ef 00        		.byte	0
 1664 02f0 00        		.byte	0
 1665 02f1 0C        		.uleb128 0xc
 1666 02f2 0000 0000 		.long	.LASF28
 1667 02f6 3B        		.byte	0x3b
 1668 02f7 0000 0000 		.long	.LFB3
 1669 02fb F401 0000 		.long	.LFE3-.LFB3
 1670 02ff 01        		.uleb128 0x1
 1671 0300 9C        		.byte	0x9c
 1672 0301 C405 0000 		.long	0x5c4
 1673 0305 08        		.uleb128 0x8
 1674 0306 7800      		.string	"x"
 1675 0308 3D        		.byte	0x3d
 1676 0309 0B        		.byte	0xb
 1677 030a 4700 0000 		.long	0x47
 1678 030e 0000 0000 		.long	.LLST1
 1679 0312 0000 0000 		.long	.LVUS1
 1680 0316 08        		.uleb128 0x8
 1681 0317 7900      		.string	"y"
 1682 0319 3D        		.byte	0x3d
 1683 031a 0E        		.byte	0xe
 1684 031b 4700 0000 		.long	0x47
 1685 031f 0000 0000 		.long	.LLST2
 1686 0323 0000 0000 		.long	.LVUS2
 1687 0327 03        		.uleb128 0x3
 1688 0328 0000 0000 		.long	.LBB2
 1689 032c 0600 0000 		.long	.LBE2-.LBB2
 1690 0330 5103 0000 		.long	0x351
 1691 0334 01        		.uleb128 0x1
 1692 0335 0000 0000 		.long	.LASF25
 1693 0339 47        		.byte	0x47
 1694 033a 4700 0000 		.long	0x47
 1695 033e 0000 0000 		.long	.LLST3
 1696 0342 0000 0000 		.long	.LVUS3
 1697 0346 02        		.uleb128 0x2
 1698 0347 0000 0000 		.long	.LASF26
 1699 034b 47        		.byte	0x47
 1700 034c 4700 0000 		.long	0x47
 1701 0350 00        		.byte	0
 1702 0351 03        		.uleb128 0x3
 1703 0352 0000 0000 		.long	.LBB3
 1704 0356 0600 0000 		.long	.LBE3-.LBB3
 1705 035a 7B03 0000 		.long	0x37b
 1706 035e 01        		.uleb128 0x1
 1707 035f 0000 0000 		.long	.LASF25
 1708 0363 47        		.byte	0x47
 1709 0364 4700 0000 		.long	0x47
 1710 0368 0000 0000 		.long	.LLST4
 1711 036c 0000 0000 		.long	.LVUS4
 1712 0370 02        		.uleb128 0x2
 1713 0371 0000 0000 		.long	.LASF26
 1714 0375 47        		.byte	0x47
 1715 0376 4700 0000 		.long	0x47
GAS LISTING /tmp/ccBau7gc.s 			page 34


 1716 037a 00        		.byte	0
 1717 037b 03        		.uleb128 0x3
 1718 037c 0000 0000 		.long	.LBB4
 1719 0380 0600 0000 		.long	.LBE4-.LBB4
 1720 0384 A503 0000 		.long	0x3a5
 1721 0388 01        		.uleb128 0x1
 1722 0389 0000 0000 		.long	.LASF25
 1723 038d 48        		.byte	0x48
 1724 038e 4700 0000 		.long	0x47
 1725 0392 0000 0000 		.long	.LLST5
 1726 0396 0000 0000 		.long	.LVUS5
 1727 039a 02        		.uleb128 0x2
 1728 039b 0000 0000 		.long	.LASF26
 1729 039f 48        		.byte	0x48
 1730 03a0 4700 0000 		.long	0x47
 1731 03a4 00        		.byte	0
 1732 03a5 03        		.uleb128 0x3
 1733 03a6 0000 0000 		.long	.LBB5
 1734 03aa 0600 0000 		.long	.LBE5-.LBB5
 1735 03ae CF03 0000 		.long	0x3cf
 1736 03b2 01        		.uleb128 0x1
 1737 03b3 0000 0000 		.long	.LASF25
 1738 03b7 48        		.byte	0x48
 1739 03b8 4700 0000 		.long	0x47
 1740 03bc 0000 0000 		.long	.LLST6
 1741 03c0 0000 0000 		.long	.LVUS6
 1742 03c4 02        		.uleb128 0x2
 1743 03c5 0000 0000 		.long	.LASF26
 1744 03c9 48        		.byte	0x48
 1745 03ca 4700 0000 		.long	0x47
 1746 03ce 00        		.byte	0
 1747 03cf 03        		.uleb128 0x3
 1748 03d0 0000 0000 		.long	.LBB6
 1749 03d4 0600 0000 		.long	.LBE6-.LBB6
 1750 03d8 F903 0000 		.long	0x3f9
 1751 03dc 01        		.uleb128 0x1
 1752 03dd 0000 0000 		.long	.LASF25
 1753 03e1 4B        		.byte	0x4b
 1754 03e2 4700 0000 		.long	0x47
 1755 03e6 0000 0000 		.long	.LLST7
 1756 03ea 0000 0000 		.long	.LVUS7
 1757 03ee 02        		.uleb128 0x2
 1758 03ef 0000 0000 		.long	.LASF26
 1759 03f3 4B        		.byte	0x4b
 1760 03f4 4700 0000 		.long	0x47
 1761 03f8 00        		.byte	0
 1762 03f9 03        		.uleb128 0x3
 1763 03fa 0000 0000 		.long	.LBB7
 1764 03fe 0600 0000 		.long	.LBE7-.LBB7
 1765 0402 2304 0000 		.long	0x423
 1766 0406 01        		.uleb128 0x1
 1767 0407 0000 0000 		.long	.LASF25
 1768 040b 4B        		.byte	0x4b
 1769 040c 4700 0000 		.long	0x47
 1770 0410 0000 0000 		.long	.LLST8
 1771 0414 0000 0000 		.long	.LVUS8
 1772 0418 02        		.uleb128 0x2
GAS LISTING /tmp/ccBau7gc.s 			page 35


 1773 0419 0000 0000 		.long	.LASF26
 1774 041d 4B        		.byte	0x4b
 1775 041e 4700 0000 		.long	0x47
 1776 0422 00        		.byte	0
 1777 0423 03        		.uleb128 0x3
 1778 0424 0000 0000 		.long	.LBB8
 1779 0428 0600 0000 		.long	.LBE8-.LBB8
 1780 042c 4D04 0000 		.long	0x44d
 1781 0430 01        		.uleb128 0x1
 1782 0431 0000 0000 		.long	.LASF25
 1783 0435 4C        		.byte	0x4c
 1784 0436 4700 0000 		.long	0x47
 1785 043a 0000 0000 		.long	.LLST9
 1786 043e 0000 0000 		.long	.LVUS9
 1787 0442 02        		.uleb128 0x2
 1788 0443 0000 0000 		.long	.LASF26
 1789 0447 4C        		.byte	0x4c
 1790 0448 4700 0000 		.long	0x47
 1791 044c 00        		.byte	0
 1792 044d 03        		.uleb128 0x3
 1793 044e 0000 0000 		.long	.LBB9
 1794 0452 0600 0000 		.long	.LBE9-.LBB9
 1795 0456 7704 0000 		.long	0x477
 1796 045a 01        		.uleb128 0x1
 1797 045b 0000 0000 		.long	.LASF25
 1798 045f 4C        		.byte	0x4c
 1799 0460 4700 0000 		.long	0x47
 1800 0464 0000 0000 		.long	.LLST10
 1801 0468 0000 0000 		.long	.LVUS10
 1802 046c 02        		.uleb128 0x2
 1803 046d 0000 0000 		.long	.LASF26
 1804 0471 4C        		.byte	0x4c
 1805 0472 4700 0000 		.long	0x47
 1806 0476 00        		.byte	0
 1807 0477 03        		.uleb128 0x3
 1808 0478 0000 0000 		.long	.LBB10
 1809 047c 0600 0000 		.long	.LBE10-.LBB10
 1810 0480 A104 0000 		.long	0x4a1
 1811 0484 01        		.uleb128 0x1
 1812 0485 0000 0000 		.long	.LASF25
 1813 0489 58        		.byte	0x58
 1814 048a 4700 0000 		.long	0x47
 1815 048e 0000 0000 		.long	.LLST11
 1816 0492 0000 0000 		.long	.LVUS11
 1817 0496 02        		.uleb128 0x2
 1818 0497 0000 0000 		.long	.LASF26
 1819 049b 58        		.byte	0x58
 1820 049c 4700 0000 		.long	0x47
 1821 04a0 00        		.byte	0
 1822 04a1 03        		.uleb128 0x3
 1823 04a2 0000 0000 		.long	.LBB11
 1824 04a6 0600 0000 		.long	.LBE11-.LBB11
 1825 04aa CB04 0000 		.long	0x4cb
 1826 04ae 01        		.uleb128 0x1
 1827 04af 0000 0000 		.long	.LASF25
 1828 04b3 58        		.byte	0x58
 1829 04b4 4700 0000 		.long	0x47
GAS LISTING /tmp/ccBau7gc.s 			page 36


 1830 04b8 0000 0000 		.long	.LLST12
 1831 04bc 0000 0000 		.long	.LVUS12
 1832 04c0 02        		.uleb128 0x2
 1833 04c1 0000 0000 		.long	.LASF26
 1834 04c5 58        		.byte	0x58
 1835 04c6 4700 0000 		.long	0x47
 1836 04ca 00        		.byte	0
 1837 04cb 03        		.uleb128 0x3
 1838 04cc 0000 0000 		.long	.LBB12
 1839 04d0 0600 0000 		.long	.LBE12-.LBB12
 1840 04d4 F504 0000 		.long	0x4f5
 1841 04d8 01        		.uleb128 0x1
 1842 04d9 0000 0000 		.long	.LASF25
 1843 04dd 59        		.byte	0x59
 1844 04de 4700 0000 		.long	0x47
 1845 04e2 0000 0000 		.long	.LLST13
 1846 04e6 0000 0000 		.long	.LVUS13
 1847 04ea 02        		.uleb128 0x2
 1848 04eb 0000 0000 		.long	.LASF26
 1849 04ef 59        		.byte	0x59
 1850 04f0 4700 0000 		.long	0x47
 1851 04f4 00        		.byte	0
 1852 04f5 03        		.uleb128 0x3
 1853 04f6 0000 0000 		.long	.LBB13
 1854 04fa 0600 0000 		.long	.LBE13-.LBB13
 1855 04fe 1F05 0000 		.long	0x51f
 1856 0502 01        		.uleb128 0x1
 1857 0503 0000 0000 		.long	.LASF25
 1858 0507 59        		.byte	0x59
 1859 0508 4700 0000 		.long	0x47
 1860 050c 0000 0000 		.long	.LLST14
 1861 0510 0000 0000 		.long	.LVUS14
 1862 0514 02        		.uleb128 0x2
 1863 0515 0000 0000 		.long	.LASF26
 1864 0519 59        		.byte	0x59
 1865 051a 4700 0000 		.long	0x47
 1866 051e 00        		.byte	0
 1867 051f 03        		.uleb128 0x3
 1868 0520 0000 0000 		.long	.LBB14
 1869 0524 0600 0000 		.long	.LBE14-.LBB14
 1870 0528 4905 0000 		.long	0x549
 1871 052c 01        		.uleb128 0x1
 1872 052d 0000 0000 		.long	.LASF25
 1873 0531 5C        		.byte	0x5c
 1874 0532 4700 0000 		.long	0x47
 1875 0536 0000 0000 		.long	.LLST15
 1876 053a 0000 0000 		.long	.LVUS15
 1877 053e 02        		.uleb128 0x2
 1878 053f 0000 0000 		.long	.LASF26
 1879 0543 5C        		.byte	0x5c
 1880 0544 4700 0000 		.long	0x47
 1881 0548 00        		.byte	0
 1882 0549 03        		.uleb128 0x3
 1883 054a 0000 0000 		.long	.LBB15
 1884 054e 0600 0000 		.long	.LBE15-.LBB15
 1885 0552 7305 0000 		.long	0x573
 1886 0556 01        		.uleb128 0x1
GAS LISTING /tmp/ccBau7gc.s 			page 37


 1887 0557 0000 0000 		.long	.LASF25
 1888 055b 5C        		.byte	0x5c
 1889 055c 4700 0000 		.long	0x47
 1890 0560 0000 0000 		.long	.LLST16
 1891 0564 0000 0000 		.long	.LVUS16
 1892 0568 02        		.uleb128 0x2
 1893 0569 0000 0000 		.long	.LASF26
 1894 056d 5C        		.byte	0x5c
 1895 056e 4700 0000 		.long	0x47
 1896 0572 00        		.byte	0
 1897 0573 03        		.uleb128 0x3
 1898 0574 0000 0000 		.long	.LBB16
 1899 0578 0600 0000 		.long	.LBE16-.LBB16
 1900 057c 9D05 0000 		.long	0x59d
 1901 0580 01        		.uleb128 0x1
 1902 0581 0000 0000 		.long	.LASF25
 1903 0585 5D        		.byte	0x5d
 1904 0586 4700 0000 		.long	0x47
 1905 058a 0000 0000 		.long	.LLST17
 1906 058e 0000 0000 		.long	.LVUS17
 1907 0592 02        		.uleb128 0x2
 1908 0593 0000 0000 		.long	.LASF26
 1909 0597 5D        		.byte	0x5d
 1910 0598 4700 0000 		.long	0x47
 1911 059c 00        		.byte	0
 1912 059d 0D        		.uleb128 0xd
 1913 059e 0000 0000 		.long	.LBB17
 1914 05a2 0600 0000 		.long	.LBE17-.LBB17
 1915 05a6 01        		.uleb128 0x1
 1916 05a7 0000 0000 		.long	.LASF25
 1917 05ab 5D        		.byte	0x5d
 1918 05ac 4700 0000 		.long	0x47
 1919 05b0 0000 0000 		.long	.LLST18
 1920 05b4 0000 0000 		.long	.LVUS18
 1921 05b8 02        		.uleb128 0x2
 1922 05b9 0000 0000 		.long	.LASF26
 1923 05bd 5D        		.byte	0x5d
 1924 05be 4700 0000 		.long	0x47
 1925 05c2 00        		.byte	0
 1926 05c3 00        		.byte	0
 1927 05c4 18        		.uleb128 0x18
 1928 05c5 0000 0000 		.long	.LASF31
 1929 05c9 01        		.byte	0x1
 1930 05ca 1B        		.byte	0x1b
 1931 05cb 06        		.byte	0x6
 1932 05cc 0000 0000 		.long	.LFB2
 1933 05d0 1001 0000 		.long	.LFE2-.LFB2
 1934 05d4 01        		.uleb128 0x1
 1935 05d5 9C        		.byte	0x9c
 1936 05d6 ED05 0000 		.long	0x5ed
 1937 05da 19        		.uleb128 0x19
 1938 05db 6F00      		.string	"o"
 1939 05dd 01        		.byte	0x1
 1940 05de 1B        		.byte	0x1b
 1941 05df 22        		.byte	0x22
 1942 05e0 D600 0000 		.long	0xd6
 1943 05e4 0000 0000 		.long	.LLST0
GAS LISTING /tmp/ccBau7gc.s 			page 38


 1944 05e8 0000 0000 		.long	.LVUS0
 1945 05ec 00        		.byte	0
 1946 05ed 1A        		.uleb128 0x1a
 1947 05ee 0000 0000 		.long	.LASF32
 1948 05f2 01        		.byte	0x1
 1949 05f3 0C        		.byte	0xc
 1950 05f4 06        		.byte	0x6
 1951 05f5 0000 0000 		.long	.LFB1
 1952 05f9 1800 0000 		.long	.LFE1-.LFB1
 1953 05fd 01        		.uleb128 0x1
 1954 05fe 9C        		.byte	0x9c
 1955 05ff 1B        		.uleb128 0x1b
 1956 0600 0000 0000 		.long	.LVL0
 1957 0604 6001 0000 		.long	0x160
 1958 0608 00        		.byte	0
 1959 0609 00        		.byte	0
 1960               		.section	.debug_abbrev,"",@progbits
 1961               	.Ldebug_abbrev0:
 1962 0000 01        		.uleb128 0x1
 1963 0001 34        		.uleb128 0x34
 1964 0002 00        		.byte	0
 1965 0003 03        		.uleb128 0x3
 1966 0004 0E        		.uleb128 0xe
 1967 0005 3A        		.uleb128 0x3a
 1968 0006 21        		.uleb128 0x21
 1969 0007 01        		.sleb128 1
 1970 0008 3B        		.uleb128 0x3b
 1971 0009 0B        		.uleb128 0xb
 1972 000a 39        		.uleb128 0x39
 1973 000b 21        		.uleb128 0x21
 1974 000c 04        		.sleb128 4
 1975 000d 49        		.uleb128 0x49
 1976 000e 13        		.uleb128 0x13
 1977 000f 02        		.uleb128 0x2
 1978 0010 17        		.uleb128 0x17
 1979 0011 B742      		.uleb128 0x2137
 1980 0013 17        		.uleb128 0x17
 1981 0014 00        		.byte	0
 1982 0015 00        		.byte	0
 1983 0016 02        		.uleb128 0x2
 1984 0017 34        		.uleb128 0x34
 1985 0018 00        		.byte	0
 1986 0019 03        		.uleb128 0x3
 1987 001a 0E        		.uleb128 0xe
 1988 001b 3A        		.uleb128 0x3a
 1989 001c 21        		.uleb128 0x21
 1990 001d 01        		.sleb128 1
 1991 001e 3B        		.uleb128 0x3b
 1992 001f 0B        		.uleb128 0xb
 1993 0020 39        		.uleb128 0x39
 1994 0021 21        		.uleb128 0x21
 1995 0022 04        		.sleb128 4
 1996 0023 49        		.uleb128 0x49
 1997 0024 13        		.uleb128 0x13
 1998 0025 00        		.byte	0
 1999 0026 00        		.byte	0
 2000 0027 03        		.uleb128 0x3
GAS LISTING /tmp/ccBau7gc.s 			page 39


 2001 0028 0B        		.uleb128 0xb
 2002 0029 01        		.byte	0x1
 2003 002a 11        		.uleb128 0x11
 2004 002b 01        		.uleb128 0x1
 2005 002c 12        		.uleb128 0x12
 2006 002d 06        		.uleb128 0x6
 2007 002e 01        		.uleb128 0x1
 2008 002f 13        		.uleb128 0x13
 2009 0030 00        		.byte	0
 2010 0031 00        		.byte	0
 2011 0032 04        		.uleb128 0x4
 2012 0033 24        		.uleb128 0x24
 2013 0034 00        		.byte	0
 2014 0035 0B        		.uleb128 0xb
 2015 0036 0B        		.uleb128 0xb
 2016 0037 3E        		.uleb128 0x3e
 2017 0038 0B        		.uleb128 0xb
 2018 0039 03        		.uleb128 0x3
 2019 003a 0E        		.uleb128 0xe
 2020 003b 00        		.byte	0
 2021 003c 00        		.byte	0
 2022 003d 05        		.uleb128 0x5
 2023 003e 0D        		.uleb128 0xd
 2024 003f 00        		.byte	0
 2025 0040 03        		.uleb128 0x3
 2026 0041 0E        		.uleb128 0xe
 2027 0042 3A        		.uleb128 0x3a
 2028 0043 21        		.uleb128 0x21
 2029 0044 04        		.sleb128 4
 2030 0045 3B        		.uleb128 0x3b
 2031 0046 0B        		.uleb128 0xb
 2032 0047 39        		.uleb128 0x39
 2033 0048 0B        		.uleb128 0xb
 2034 0049 49        		.uleb128 0x49
 2035 004a 13        		.uleb128 0x13
 2036 004b 38        		.uleb128 0x38
 2037 004c 0B        		.uleb128 0xb
 2038 004d 00        		.byte	0
 2039 004e 00        		.byte	0
 2040 004f 06        		.uleb128 0x6
 2041 0050 34        		.uleb128 0x34
 2042 0051 00        		.byte	0
 2043 0052 03        		.uleb128 0x3
 2044 0053 0E        		.uleb128 0xe
 2045 0054 3A        		.uleb128 0x3a
 2046 0055 0B        		.uleb128 0xb
 2047 0056 3B        		.uleb128 0x3b
 2048 0057 0B        		.uleb128 0xb
 2049 0058 39        		.uleb128 0x39
 2050 0059 0B        		.uleb128 0xb
 2051 005a 49        		.uleb128 0x49
 2052 005b 13        		.uleb128 0x13
 2053 005c 3F        		.uleb128 0x3f
 2054 005d 19        		.uleb128 0x19
 2055 005e 3C        		.uleb128 0x3c
 2056 005f 19        		.uleb128 0x19
 2057 0060 00        		.byte	0
GAS LISTING /tmp/ccBau7gc.s 			page 40


 2058 0061 00        		.byte	0
 2059 0062 07        		.uleb128 0x7
 2060 0063 28        		.uleb128 0x28
 2061 0064 00        		.byte	0
 2062 0065 03        		.uleb128 0x3
 2063 0066 0E        		.uleb128 0xe
 2064 0067 1C        		.uleb128 0x1c
 2065 0068 0B        		.uleb128 0xb
 2066 0069 00        		.byte	0
 2067 006a 00        		.byte	0
 2068 006b 08        		.uleb128 0x8
 2069 006c 34        		.uleb128 0x34
 2070 006d 00        		.byte	0
 2071 006e 03        		.uleb128 0x3
 2072 006f 08        		.uleb128 0x8
 2073 0070 3A        		.uleb128 0x3a
 2074 0071 21        		.uleb128 0x21
 2075 0072 01        		.sleb128 1
 2076 0073 3B        		.uleb128 0x3b
 2077 0074 0B        		.uleb128 0xb
 2078 0075 39        		.uleb128 0x39
 2079 0076 0B        		.uleb128 0xb
 2080 0077 49        		.uleb128 0x49
 2081 0078 13        		.uleb128 0x13
 2082 0079 02        		.uleb128 0x2
 2083 007a 17        		.uleb128 0x17
 2084 007b B742      		.uleb128 0x2137
 2085 007d 17        		.uleb128 0x17
 2086 007e 00        		.byte	0
 2087 007f 00        		.byte	0
 2088 0080 09        		.uleb128 0x9
 2089 0081 16        		.uleb128 0x16
 2090 0082 00        		.byte	0
 2091 0083 03        		.uleb128 0x3
 2092 0084 0E        		.uleb128 0xe
 2093 0085 3A        		.uleb128 0x3a
 2094 0086 0B        		.uleb128 0xb
 2095 0087 3B        		.uleb128 0x3b
 2096 0088 0B        		.uleb128 0xb
 2097 0089 39        		.uleb128 0x39
 2098 008a 0B        		.uleb128 0xb
 2099 008b 49        		.uleb128 0x49
 2100 008c 13        		.uleb128 0x13
 2101 008d 00        		.byte	0
 2102 008e 00        		.byte	0
 2103 008f 0A        		.uleb128 0xa
 2104 0090 26        		.uleb128 0x26
 2105 0091 00        		.byte	0
 2106 0092 49        		.uleb128 0x49
 2107 0093 13        		.uleb128 0x13
 2108 0094 00        		.byte	0
 2109 0095 00        		.byte	0
 2110 0096 0B        		.uleb128 0xb
 2111 0097 0D        		.uleb128 0xd
 2112 0098 00        		.byte	0
 2113 0099 03        		.uleb128 0x3
 2114 009a 08        		.uleb128 0x8
GAS LISTING /tmp/ccBau7gc.s 			page 41


 2115 009b 3A        		.uleb128 0x3a
 2116 009c 21        		.uleb128 0x21
 2117 009d 04        		.sleb128 4
 2118 009e 3B        		.uleb128 0x3b
 2119 009f 21        		.uleb128 0x21
 2120 00a0 1A        		.sleb128 26
 2121 00a1 39        		.uleb128 0x39
 2122 00a2 0B        		.uleb128 0xb
 2123 00a3 49        		.uleb128 0x49
 2124 00a4 13        		.uleb128 0x13
 2125 00a5 38        		.uleb128 0x38
 2126 00a6 0B        		.uleb128 0xb
 2127 00a7 00        		.byte	0
 2128 00a8 00        		.byte	0
 2129 00a9 0C        		.uleb128 0xc
 2130 00aa 2E        		.uleb128 0x2e
 2131 00ab 01        		.byte	0x1
 2132 00ac 3F        		.uleb128 0x3f
 2133 00ad 19        		.uleb128 0x19
 2134 00ae 03        		.uleb128 0x3
 2135 00af 0E        		.uleb128 0xe
 2136 00b0 3A        		.uleb128 0x3a
 2137 00b1 21        		.uleb128 0x21
 2138 00b2 01        		.sleb128 1
 2139 00b3 3B        		.uleb128 0x3b
 2140 00b4 0B        		.uleb128 0xb
 2141 00b5 39        		.uleb128 0x39
 2142 00b6 21        		.uleb128 0x21
 2143 00b7 06        		.sleb128 6
 2144 00b8 11        		.uleb128 0x11
 2145 00b9 01        		.uleb128 0x1
 2146 00ba 12        		.uleb128 0x12
 2147 00bb 06        		.uleb128 0x6
 2148 00bc 40        		.uleb128 0x40
 2149 00bd 18        		.uleb128 0x18
 2150 00be 7A        		.uleb128 0x7a
 2151 00bf 19        		.uleb128 0x19
 2152 00c0 01        		.uleb128 0x1
 2153 00c1 13        		.uleb128 0x13
 2154 00c2 00        		.byte	0
 2155 00c3 00        		.byte	0
 2156 00c4 0D        		.uleb128 0xd
 2157 00c5 0B        		.uleb128 0xb
 2158 00c6 01        		.byte	0x1
 2159 00c7 11        		.uleb128 0x11
 2160 00c8 01        		.uleb128 0x1
 2161 00c9 12        		.uleb128 0x12
 2162 00ca 06        		.uleb128 0x6
 2163 00cb 00        		.byte	0
 2164 00cc 00        		.byte	0
 2165 00cd 0E        		.uleb128 0xe
 2166 00ce 11        		.uleb128 0x11
 2167 00cf 01        		.byte	0x1
 2168 00d0 25        		.uleb128 0x25
 2169 00d1 0E        		.uleb128 0xe
 2170 00d2 13        		.uleb128 0x13
 2171 00d3 0B        		.uleb128 0xb
GAS LISTING /tmp/ccBau7gc.s 			page 42


 2172 00d4 03        		.uleb128 0x3
 2173 00d5 1F        		.uleb128 0x1f
 2174 00d6 1B        		.uleb128 0x1b
 2175 00d7 1F        		.uleb128 0x1f
 2176 00d8 11        		.uleb128 0x11
 2177 00d9 01        		.uleb128 0x1
 2178 00da 12        		.uleb128 0x12
 2179 00db 06        		.uleb128 0x6
 2180 00dc 10        		.uleb128 0x10
 2181 00dd 17        		.uleb128 0x17
 2182 00de 00        		.byte	0
 2183 00df 00        		.byte	0
 2184 00e0 0F        		.uleb128 0xf
 2185 00e1 24        		.uleb128 0x24
 2186 00e2 00        		.byte	0
 2187 00e3 0B        		.uleb128 0xb
 2188 00e4 0B        		.uleb128 0xb
 2189 00e5 3E        		.uleb128 0x3e
 2190 00e6 0B        		.uleb128 0xb
 2191 00e7 03        		.uleb128 0x3
 2192 00e8 08        		.uleb128 0x8
 2193 00e9 00        		.byte	0
 2194 00ea 00        		.byte	0
 2195 00eb 10        		.uleb128 0x10
 2196 00ec 01        		.uleb128 0x1
 2197 00ed 01        		.byte	0x1
 2198 00ee 49        		.uleb128 0x49
 2199 00ef 13        		.uleb128 0x13
 2200 00f0 01        		.uleb128 0x1
 2201 00f1 13        		.uleb128 0x13
 2202 00f2 00        		.byte	0
 2203 00f3 00        		.byte	0
 2204 00f4 11        		.uleb128 0x11
 2205 00f5 21        		.uleb128 0x21
 2206 00f6 00        		.byte	0
 2207 00f7 00        		.byte	0
 2208 00f8 00        		.byte	0
 2209 00f9 12        		.uleb128 0x12
 2210 00fa 04        		.uleb128 0x4
 2211 00fb 01        		.byte	0x1
 2212 00fc 3E        		.uleb128 0x3e
 2213 00fd 0B        		.uleb128 0xb
 2214 00fe 0B        		.uleb128 0xb
 2215 00ff 0B        		.uleb128 0xb
 2216 0100 49        		.uleb128 0x49
 2217 0101 13        		.uleb128 0x13
 2218 0102 3A        		.uleb128 0x3a
 2219 0103 0B        		.uleb128 0xb
 2220 0104 3B        		.uleb128 0x3b
 2221 0105 0B        		.uleb128 0xb
 2222 0106 39        		.uleb128 0x39
 2223 0107 0B        		.uleb128 0xb
 2224 0108 01        		.uleb128 0x1
 2225 0109 13        		.uleb128 0x13
 2226 010a 00        		.byte	0
 2227 010b 00        		.byte	0
 2228 010c 13        		.uleb128 0x13
GAS LISTING /tmp/ccBau7gc.s 			page 43


 2229 010d 13        		.uleb128 0x13
 2230 010e 01        		.byte	0x1
 2231 010f 0B        		.uleb128 0xb
 2232 0110 0B        		.uleb128 0xb
 2233 0111 3A        		.uleb128 0x3a
 2234 0112 0B        		.uleb128 0xb
 2235 0113 3B        		.uleb128 0x3b
 2236 0114 0B        		.uleb128 0xb
 2237 0115 39        		.uleb128 0x39
 2238 0116 0B        		.uleb128 0xb
 2239 0117 01        		.uleb128 0x1
 2240 0118 13        		.uleb128 0x13
 2241 0119 00        		.byte	0
 2242 011a 00        		.byte	0
 2243 011b 14        		.uleb128 0x14
 2244 011c 16        		.uleb128 0x16
 2245 011d 00        		.byte	0
 2246 011e 03        		.uleb128 0x3
 2247 011f 08        		.uleb128 0x8
 2248 0120 3A        		.uleb128 0x3a
 2249 0121 0B        		.uleb128 0xb
 2250 0122 3B        		.uleb128 0x3b
 2251 0123 0B        		.uleb128 0xb
 2252 0124 39        		.uleb128 0x39
 2253 0125 0B        		.uleb128 0xb
 2254 0126 49        		.uleb128 0x49
 2255 0127 13        		.uleb128 0x13
 2256 0128 00        		.byte	0
 2257 0129 00        		.byte	0
 2258 012a 15        		.uleb128 0x15
 2259 012b 34        		.uleb128 0x34
 2260 012c 00        		.byte	0
 2261 012d 47        		.uleb128 0x47
 2262 012e 13        		.uleb128 0x13
 2263 012f 3A        		.uleb128 0x3a
 2264 0130 0B        		.uleb128 0xb
 2265 0131 3B        		.uleb128 0x3b
 2266 0132 0B        		.uleb128 0xb
 2267 0133 39        		.uleb128 0x39
 2268 0134 0B        		.uleb128 0xb
 2269 0135 02        		.uleb128 0x2
 2270 0136 18        		.uleb128 0x18
 2271 0137 00        		.byte	0
 2272 0138 00        		.byte	0
 2273 0139 16        		.uleb128 0x16
 2274 013a 2E        		.uleb128 0x2e
 2275 013b 01        		.byte	0x1
 2276 013c 3F        		.uleb128 0x3f
 2277 013d 19        		.uleb128 0x19
 2278 013e 03        		.uleb128 0x3
 2279 013f 0E        		.uleb128 0xe
 2280 0140 3A        		.uleb128 0x3a
 2281 0141 0B        		.uleb128 0xb
 2282 0142 3B        		.uleb128 0x3b
 2283 0143 0B        		.uleb128 0xb
 2284 0144 39        		.uleb128 0x39
 2285 0145 0B        		.uleb128 0xb
GAS LISTING /tmp/ccBau7gc.s 			page 44


 2286 0146 3C        		.uleb128 0x3c
 2287 0147 19        		.uleb128 0x19
 2288 0148 01        		.uleb128 0x1
 2289 0149 13        		.uleb128 0x13
 2290 014a 00        		.byte	0
 2291 014b 00        		.byte	0
 2292 014c 17        		.uleb128 0x17
 2293 014d 18        		.uleb128 0x18
 2294 014e 00        		.byte	0
 2295 014f 00        		.byte	0
 2296 0150 00        		.byte	0
 2297 0151 18        		.uleb128 0x18
 2298 0152 2E        		.uleb128 0x2e
 2299 0153 01        		.byte	0x1
 2300 0154 3F        		.uleb128 0x3f
 2301 0155 19        		.uleb128 0x19
 2302 0156 03        		.uleb128 0x3
 2303 0157 0E        		.uleb128 0xe
 2304 0158 3A        		.uleb128 0x3a
 2305 0159 0B        		.uleb128 0xb
 2306 015a 3B        		.uleb128 0x3b
 2307 015b 0B        		.uleb128 0xb
 2308 015c 39        		.uleb128 0x39
 2309 015d 0B        		.uleb128 0xb
 2310 015e 27        		.uleb128 0x27
 2311 015f 19        		.uleb128 0x19
 2312 0160 11        		.uleb128 0x11
 2313 0161 01        		.uleb128 0x1
 2314 0162 12        		.uleb128 0x12
 2315 0163 06        		.uleb128 0x6
 2316 0164 40        		.uleb128 0x40
 2317 0165 18        		.uleb128 0x18
 2318 0166 7A        		.uleb128 0x7a
 2319 0167 19        		.uleb128 0x19
 2320 0168 01        		.uleb128 0x1
 2321 0169 13        		.uleb128 0x13
 2322 016a 00        		.byte	0
 2323 016b 00        		.byte	0
 2324 016c 19        		.uleb128 0x19
 2325 016d 05        		.uleb128 0x5
 2326 016e 00        		.byte	0
 2327 016f 03        		.uleb128 0x3
 2328 0170 08        		.uleb128 0x8
 2329 0171 3A        		.uleb128 0x3a
 2330 0172 0B        		.uleb128 0xb
 2331 0173 3B        		.uleb128 0x3b
 2332 0174 0B        		.uleb128 0xb
 2333 0175 39        		.uleb128 0x39
 2334 0176 0B        		.uleb128 0xb
 2335 0177 49        		.uleb128 0x49
 2336 0178 13        		.uleb128 0x13
 2337 0179 02        		.uleb128 0x2
 2338 017a 17        		.uleb128 0x17
 2339 017b B742      		.uleb128 0x2137
 2340 017d 17        		.uleb128 0x17
 2341 017e 00        		.byte	0
 2342 017f 00        		.byte	0
GAS LISTING /tmp/ccBau7gc.s 			page 45


 2343 0180 1A        		.uleb128 0x1a
 2344 0181 2E        		.uleb128 0x2e
 2345 0182 01        		.byte	0x1
 2346 0183 3F        		.uleb128 0x3f
 2347 0184 19        		.uleb128 0x19
 2348 0185 03        		.uleb128 0x3
 2349 0186 0E        		.uleb128 0xe
 2350 0187 3A        		.uleb128 0x3a
 2351 0188 0B        		.uleb128 0xb
 2352 0189 3B        		.uleb128 0x3b
 2353 018a 0B        		.uleb128 0xb
 2354 018b 39        		.uleb128 0x39
 2355 018c 0B        		.uleb128 0xb
 2356 018d 11        		.uleb128 0x11
 2357 018e 01        		.uleb128 0x1
 2358 018f 12        		.uleb128 0x12
 2359 0190 06        		.uleb128 0x6
 2360 0191 40        		.uleb128 0x40
 2361 0192 18        		.uleb128 0x18
 2362 0193 7A        		.uleb128 0x7a
 2363 0194 19        		.uleb128 0x19
 2364 0195 00        		.byte	0
 2365 0196 00        		.byte	0
 2366 0197 1B        		.uleb128 0x1b
 2367 0198 48        		.uleb128 0x48
 2368 0199 00        		.byte	0
 2369 019a 7D        		.uleb128 0x7d
 2370 019b 01        		.uleb128 0x1
 2371 019c 8201      		.uleb128 0x82
 2372 019e 19        		.uleb128 0x19
 2373 019f 7F        		.uleb128 0x7f
 2374 01a0 13        		.uleb128 0x13
 2375 01a1 00        		.byte	0
 2376 01a2 00        		.byte	0
 2377 01a3 00        		.byte	0
 2378               		.section	.debug_loclists,"",@progbits
 2379 0000 1E02 0000 		.long	.Ldebug_loc3-.Ldebug_loc2
 2380               	.Ldebug_loc2:
 2381 0004 0500      		.word	0x5
 2382 0006 04        		.byte	0x4
 2383 0007 00        		.byte	0
 2384 0008 0000 0000 		.long	0
 2385               	.Ldebug_loc0:
 2386               	.LVUS19:
 2387 000c 00        		.uleb128 .LVU434
 2388 000d 00        		.uleb128 .LVU437
 2389 000e 00        		.uleb128 .LVU437
 2390 000f 00        		.uleb128 0
 2391               	.LLST19:
 2392 0010 04        		.byte	0x4
 2393 0011 8007      		.uleb128 .LVL44-.Ltext0
 2394 0013 8407      		.uleb128 .LVL45-.Ltext0
 2395 0015 02        		.uleb128 0x2
 2396 0016 30        		.byte	0x30
 2397 0017 9F        		.byte	0x9f
 2398 0018 04        		.byte	0x4
 2399 0019 8407      		.uleb128 .LVL45-.Ltext0
GAS LISTING /tmp/ccBau7gc.s 			page 46


 2400 001b 8C08      		.uleb128 .LFE4-.Ltext0
 2401 001d 01        		.uleb128 0x1
 2402 001e 64        		.byte	0x64
 2403 001f 00        		.byte	0
 2404               	.LVUS20:
 2405 0020 02        		.uleb128 .LVU432
 2406 0021 00        		.uleb128 .LVU434
 2407 0022 00        		.uleb128 .LVU434
 2408 0023 01        		.uleb128 .LVU511
 2409 0024 01        		.uleb128 .LVU511
 2410 0025 00        		.uleb128 .LVU512
 2411 0026 00        		.uleb128 .LVU512
 2412 0027 00        		.uleb128 0
 2413               	.LLST20:
 2414 0028 04        		.byte	0x4
 2415 0029 F806      		.uleb128 .LVL43-.Ltext0
 2416 002b 8007      		.uleb128 .LVL44-.Ltext0
 2417 002d 02        		.uleb128 0x2
 2418 002e 30        		.byte	0x30
 2419 002f 9F        		.byte	0x9f
 2420 0030 04        		.byte	0x4
 2421 0031 8007      		.uleb128 .LVL44-.Ltext0
 2422 0033 F807      		.uleb128 .LVL63-.Ltext0
 2423 0035 06        		.uleb128 0x6
 2424 0036 86        		.byte	0x86
 2425 0037 00        		.sleb128 0
 2426 0038 08        		.byte	0x8
 2427 0039 78        		.byte	0x78
 2428 003a 1B        		.byte	0x1b
 2429 003b 9F        		.byte	0x9f
 2430 003c 04        		.byte	0x4
 2431 003d F807      		.uleb128 .LVL63-.Ltext0
 2432 003f 8008      		.uleb128 .LVL64-.Ltext0
 2433 0041 08        		.uleb128 0x8
 2434 0042 86        		.byte	0x86
 2435 0043 00        		.sleb128 0
 2436 0044 08        		.byte	0x8
 2437 0045 78        		.byte	0x78
 2438 0046 1B        		.byte	0x1b
 2439 0047 23        		.byte	0x23
 2440 0048 01        		.uleb128 0x1
 2441 0049 9F        		.byte	0x9f
 2442 004a 04        		.byte	0x4
 2443 004b 8008      		.uleb128 .LVL64-.Ltext0
 2444 004d 8C08      		.uleb128 .LFE4-.Ltext0
 2445 004f 09        		.uleb128 0x9
 2446 0050 86        		.byte	0x86
 2447 0051 887F      		.sleb128 -120
 2448 0053 08        		.byte	0x8
 2449 0054 78        		.byte	0x78
 2450 0055 1B        		.byte	0x1b
 2451 0056 23        		.byte	0x23
 2452 0057 01        		.uleb128 0x1
 2453 0058 9F        		.byte	0x9f
 2454 0059 00        		.byte	0
 2455               	.LVUS21:
 2456 005a 02        		.uleb128 .LVU439
GAS LISTING /tmp/ccBau7gc.s 			page 47


 2457 005b 00        		.uleb128 .LVU441
 2458               	.LLST21:
 2459 005c 04        		.byte	0x4
 2460 005d 8407      		.uleb128 .LVL45-.Ltext0
 2461 005f 8A07      		.uleb128 .LVL46-.Ltext0
 2462 0061 06        		.uleb128 0x6
 2463 0062 68        		.byte	0x68
 2464 0063 93        		.byte	0x93
 2465 0064 01        		.uleb128 0x1
 2466 0065 69        		.byte	0x69
 2467 0066 93        		.byte	0x93
 2468 0067 01        		.uleb128 0x1
 2469 0068 00        		.byte	0
 2470               	.LVUS22:
 2471 0069 03        		.uleb128 .LVU447
 2472 006a 00        		.uleb128 .LVU449
 2473               	.LLST22:
 2474 006b 04        		.byte	0x4
 2475 006c 9007      		.uleb128 .LVL47-.Ltext0
 2476 006e 9607      		.uleb128 .LVL48-.Ltext0
 2477 0070 06        		.uleb128 0x6
 2478 0071 68        		.byte	0x68
 2479 0072 93        		.byte	0x93
 2480 0073 01        		.uleb128 0x1
 2481 0074 69        		.byte	0x69
 2482 0075 93        		.byte	0x93
 2483 0076 01        		.uleb128 0x1
 2484 0077 00        		.byte	0
 2485               	.LVUS23:
 2486 0078 04        		.uleb128 .LVU456
 2487 0079 00        		.uleb128 .LVU458
 2488               	.LLST23:
 2489 007a 04        		.byte	0x4
 2490 007b 9C07      		.uleb128 .LVL49-.Ltext0
 2491 007d A207      		.uleb128 .LVL50-.Ltext0
 2492 007f 06        		.uleb128 0x6
 2493 0080 68        		.byte	0x68
 2494 0081 93        		.byte	0x93
 2495 0082 01        		.uleb128 0x1
 2496 0083 69        		.byte	0x69
 2497 0084 93        		.byte	0x93
 2498 0085 01        		.uleb128 0x1
 2499 0086 00        		.byte	0
 2500               	.LVUS24:
 2501 0087 03        		.uleb128 .LVU464
 2502 0088 00        		.uleb128 .LVU466
 2503               	.LLST24:
 2504 0089 04        		.byte	0x4
 2505 008a A807      		.uleb128 .LVL51-.Ltext0
 2506 008c AE07      		.uleb128 .LVL52-.Ltext0
 2507 008e 06        		.uleb128 0x6
 2508 008f 68        		.byte	0x68
 2509 0090 93        		.byte	0x93
 2510 0091 01        		.uleb128 0x1
 2511 0092 69        		.byte	0x69
 2512 0093 93        		.byte	0x93
 2513 0094 01        		.uleb128 0x1
GAS LISTING /tmp/ccBau7gc.s 			page 48


 2514 0095 00        		.byte	0
 2515               	.LVUS25:
 2516 0096 02        		.uleb128 .LVU476
 2517 0097 00        		.uleb128 .LVU478
 2518               	.LLST25:
 2519 0098 04        		.byte	0x4
 2520 0099 C007      		.uleb128 .LVL54-.Ltext0
 2521 009b C607      		.uleb128 .LVL55-.Ltext0
 2522 009d 06        		.uleb128 0x6
 2523 009e 68        		.byte	0x68
 2524 009f 93        		.byte	0x93
 2525 00a0 01        		.uleb128 0x1
 2526 00a1 69        		.byte	0x69
 2527 00a2 93        		.byte	0x93
 2528 00a3 01        		.uleb128 0x1
 2529 00a4 00        		.byte	0
 2530               	.LVUS26:
 2531 00a5 03        		.uleb128 .LVU484
 2532 00a6 00        		.uleb128 .LVU486
 2533               	.LLST26:
 2534 00a7 04        		.byte	0x4
 2535 00a8 CC07      		.uleb128 .LVL56-.Ltext0
 2536 00aa D207      		.uleb128 .LVL57-.Ltext0
 2537 00ac 06        		.uleb128 0x6
 2538 00ad 68        		.byte	0x68
 2539 00ae 93        		.byte	0x93
 2540 00af 01        		.uleb128 0x1
 2541 00b0 69        		.byte	0x69
 2542 00b1 93        		.byte	0x93
 2543 00b2 01        		.uleb128 0x1
 2544 00b3 00        		.byte	0
 2545               	.LVUS27:
 2546 00b4 04        		.uleb128 .LVU493
 2547 00b5 00        		.uleb128 .LVU495
 2548               	.LLST27:
 2549 00b6 04        		.byte	0x4
 2550 00b7 D807      		.uleb128 .LVL58-.Ltext0
 2551 00b9 DE07      		.uleb128 .LVL59-.Ltext0
 2552 00bb 06        		.uleb128 0x6
 2553 00bc 68        		.byte	0x68
 2554 00bd 93        		.byte	0x93
 2555 00be 01        		.uleb128 0x1
 2556 00bf 69        		.byte	0x69
 2557 00c0 93        		.byte	0x93
 2558 00c1 01        		.uleb128 0x1
 2559 00c2 00        		.byte	0
 2560               	.LVUS28:
 2561 00c3 03        		.uleb128 .LVU501
 2562 00c4 00        		.uleb128 .LVU503
 2563               	.LLST28:
 2564 00c5 04        		.byte	0x4
 2565 00c6 E407      		.uleb128 .LVL60-.Ltext0
 2566 00c8 EA07      		.uleb128 .LVL61-.Ltext0
 2567 00ca 06        		.uleb128 0x6
 2568 00cb 68        		.byte	0x68
 2569 00cc 93        		.byte	0x93
 2570 00cd 01        		.uleb128 0x1
GAS LISTING /tmp/ccBau7gc.s 			page 49


 2571 00ce 69        		.byte	0x69
 2572 00cf 93        		.byte	0x93
 2573 00d0 01        		.uleb128 0x1
 2574 00d1 00        		.byte	0
 2575               	.LVUS1:
 2576 00d2 00        		.uleb128 .LVU161
 2577 00d3 00        		.uleb128 .LVU164
 2578 00d4 00        		.uleb128 .LVU164
 2579 00d5 00        		.uleb128 .LVU296
 2580 00d6 00        		.uleb128 .LVU296
 2581 00d7 00        		.uleb128 .LVU299
 2582 00d8 00        		.uleb128 .LVU299
 2583 00d9 00        		.uleb128 0
 2584               	.LLST1:
 2585 00da 04        		.byte	0x4
 2586 00db 8A03      		.uleb128 .LVL4-.Ltext0
 2587 00dd 9003      		.uleb128 .LVL5-.Ltext0
 2588 00df 02        		.uleb128 0x2
 2589 00e0 30        		.byte	0x30
 2590 00e1 9F        		.byte	0x9f
 2591 00e2 04        		.byte	0x4
 2592 00e3 9003      		.uleb128 .LVL5-.Ltext0
 2593 00e5 8405      		.uleb128 .LVL24-.Ltext0
 2594 00e7 06        		.uleb128 0x6
 2595 00e8 64        		.byte	0x64
 2596 00e9 93        		.byte	0x93
 2597 00ea 01        		.uleb128 0x1
 2598 00eb 65        		.byte	0x65
 2599 00ec 93        		.byte	0x93
 2600 00ed 01        		.uleb128 0x1
 2601 00ee 04        		.byte	0x4
 2602 00ef 8405      		.uleb128 .LVL24-.Ltext0
 2603 00f1 8A05      		.uleb128 .LVL25-.Ltext0
 2604 00f3 02        		.uleb128 0x2
 2605 00f4 30        		.byte	0x30
 2606 00f5 9F        		.byte	0x9f
 2607 00f6 04        		.byte	0x4
 2608 00f7 8A05      		.uleb128 .LVL25-.Ltext0
 2609 00f9 9C06      		.uleb128 .LFE3-.Ltext0
 2610 00fb 06        		.uleb128 0x6
 2611 00fc 64        		.byte	0x64
 2612 00fd 93        		.byte	0x93
 2613 00fe 01        		.uleb128 0x1
 2614 00ff 65        		.byte	0x65
 2615 0100 93        		.byte	0x93
 2616 0101 01        		.uleb128 0x1
 2617 0102 00        		.byte	0
 2618               	.LVUS2:
 2619 0103 02        		.uleb128 .LVU159
 2620 0104 00        		.uleb128 .LVU161
 2621 0105 02        		.uleb128 .LVU294
 2622 0106 00        		.uleb128 .LVU296
 2623               	.LLST2:
 2624 0107 04        		.byte	0x4
 2625 0108 8203      		.uleb128 .LVL3-.Ltext0
 2626 010a 8A03      		.uleb128 .LVL4-.Ltext0
 2627 010c 02        		.uleb128 0x2
GAS LISTING /tmp/ccBau7gc.s 			page 50


 2628 010d 30        		.byte	0x30
 2629 010e 9F        		.byte	0x9f
 2630 010f 04        		.byte	0x4
 2631 0110 FC04      		.uleb128 .LVL23-.Ltext0
 2632 0112 8405      		.uleb128 .LVL24-.Ltext0
 2633 0114 02        		.uleb128 0x2
 2634 0115 30        		.byte	0x30
 2635 0116 9F        		.byte	0x9f
 2636 0117 00        		.byte	0
 2637               	.LVUS3:
 2638 0118 02        		.uleb128 .LVU166
 2639 0119 00        		.uleb128 .LVU168
 2640               	.LLST3:
 2641 011a 04        		.byte	0x4
 2642 011b 9003      		.uleb128 .LVL5-.Ltext0
 2643 011d 9603      		.uleb128 .LVL6-.Ltext0
 2644 011f 06        		.uleb128 0x6
 2645 0120 68        		.byte	0x68
 2646 0121 93        		.byte	0x93
 2647 0122 01        		.uleb128 0x1
 2648 0123 69        		.byte	0x69
 2649 0124 93        		.byte	0x93
 2650 0125 01        		.uleb128 0x1
 2651 0126 00        		.byte	0
 2652               	.LVUS4:
 2653 0127 03        		.uleb128 .LVU174
 2654 0128 00        		.uleb128 .LVU176
 2655               	.LLST4:
 2656 0129 04        		.byte	0x4
 2657 012a 9C03      		.uleb128 .LVL7-.Ltext0
 2658 012c A203      		.uleb128 .LVL8-.Ltext0
 2659 012e 06        		.uleb128 0x6
 2660 012f 68        		.byte	0x68
 2661 0130 93        		.byte	0x93
 2662 0131 01        		.uleb128 0x1
 2663 0132 69        		.byte	0x69
 2664 0133 93        		.byte	0x93
 2665 0134 01        		.uleb128 0x1
 2666 0135 00        		.byte	0
 2667               	.LVUS5:
 2668 0136 04        		.uleb128 .LVU183
 2669 0137 00        		.uleb128 .LVU185
 2670               	.LLST5:
 2671 0138 04        		.byte	0x4
 2672 0139 A803      		.uleb128 .LVL9-.Ltext0
 2673 013b AE03      		.uleb128 .LVL10-.Ltext0
 2674 013d 06        		.uleb128 0x6
 2675 013e 68        		.byte	0x68
 2676 013f 93        		.byte	0x93
 2677 0140 01        		.uleb128 0x1
 2678 0141 69        		.byte	0x69
 2679 0142 93        		.byte	0x93
 2680 0143 01        		.uleb128 0x1
 2681 0144 00        		.byte	0
 2682               	.LVUS6:
 2683 0145 03        		.uleb128 .LVU191
 2684 0146 00        		.uleb128 .LVU193
GAS LISTING /tmp/ccBau7gc.s 			page 51


 2685               	.LLST6:
 2686 0147 04        		.byte	0x4
 2687 0148 B403      		.uleb128 .LVL11-.Ltext0
 2688 014a BA03      		.uleb128 .LVL12-.Ltext0
 2689 014c 06        		.uleb128 0x6
 2690 014d 68        		.byte	0x68
 2691 014e 93        		.byte	0x93
 2692 014f 01        		.uleb128 0x1
 2693 0150 69        		.byte	0x69
 2694 0151 93        		.byte	0x93
 2695 0152 01        		.uleb128 0x1
 2696 0153 00        		.byte	0
 2697               	.LVUS7:
 2698 0154 02        		.uleb128 .LVU203
 2699 0155 00        		.uleb128 .LVU205
 2700               	.LLST7:
 2701 0156 04        		.byte	0x4
 2702 0157 D203      		.uleb128 .LVL14-.Ltext0
 2703 0159 D803      		.uleb128 .LVL15-.Ltext0
 2704 015b 06        		.uleb128 0x6
 2705 015c 68        		.byte	0x68
 2706 015d 93        		.byte	0x93
 2707 015e 01        		.uleb128 0x1
 2708 015f 69        		.byte	0x69
 2709 0160 93        		.byte	0x93
 2710 0161 01        		.uleb128 0x1
 2711 0162 00        		.byte	0
 2712               	.LVUS8:
 2713 0163 03        		.uleb128 .LVU211
 2714 0164 00        		.uleb128 .LVU213
 2715               	.LLST8:
 2716 0165 04        		.byte	0x4
 2717 0166 DE03      		.uleb128 .LVL16-.Ltext0
 2718 0168 E403      		.uleb128 .LVL17-.Ltext0
 2719 016a 06        		.uleb128 0x6
 2720 016b 68        		.byte	0x68
 2721 016c 93        		.byte	0x93
 2722 016d 01        		.uleb128 0x1
 2723 016e 69        		.byte	0x69
 2724 016f 93        		.byte	0x93
 2725 0170 01        		.uleb128 0x1
 2726 0171 00        		.byte	0
 2727               	.LVUS9:
 2728 0172 04        		.uleb128 .LVU220
 2729 0173 00        		.uleb128 .LVU222
 2730               	.LLST9:
 2731 0174 04        		.byte	0x4
 2732 0175 EA03      		.uleb128 .LVL18-.Ltext0
 2733 0177 F003      		.uleb128 .LVL19-.Ltext0
 2734 0179 06        		.uleb128 0x6
 2735 017a 68        		.byte	0x68
 2736 017b 93        		.byte	0x93
 2737 017c 01        		.uleb128 0x1
 2738 017d 69        		.byte	0x69
 2739 017e 93        		.byte	0x93
 2740 017f 01        		.uleb128 0x1
 2741 0180 00        		.byte	0
GAS LISTING /tmp/ccBau7gc.s 			page 52


 2742               	.LVUS10:
 2743 0181 03        		.uleb128 .LVU228
 2744 0182 00        		.uleb128 .LVU230
 2745               	.LLST10:
 2746 0183 04        		.byte	0x4
 2747 0184 F603      		.uleb128 .LVL20-.Ltext0
 2748 0186 FC03      		.uleb128 .LVL21-.Ltext0
 2749 0188 06        		.uleb128 0x6
 2750 0189 68        		.byte	0x68
 2751 018a 93        		.byte	0x93
 2752 018b 01        		.uleb128 0x1
 2753 018c 69        		.byte	0x69
 2754 018d 93        		.byte	0x93
 2755 018e 01        		.uleb128 0x1
 2756 018f 00        		.byte	0
 2757               	.LVUS11:
 2758 0190 02        		.uleb128 .LVU301
 2759 0191 00        		.uleb128 .LVU303
 2760               	.LLST11:
 2761 0192 04        		.byte	0x4
 2762 0193 8A05      		.uleb128 .LVL25-.Ltext0
 2763 0195 9005      		.uleb128 .LVL26-.Ltext0
 2764 0197 06        		.uleb128 0x6
 2765 0198 68        		.byte	0x68
 2766 0199 93        		.byte	0x93
 2767 019a 01        		.uleb128 0x1
 2768 019b 69        		.byte	0x69
 2769 019c 93        		.byte	0x93
 2770 019d 01        		.uleb128 0x1
 2771 019e 00        		.byte	0
 2772               	.LVUS12:
 2773 019f 03        		.uleb128 .LVU309
 2774 01a0 00        		.uleb128 .LVU311
 2775               	.LLST12:
 2776 01a1 04        		.byte	0x4
 2777 01a2 9605      		.uleb128 .LVL27-.Ltext0
 2778 01a4 9C05      		.uleb128 .LVL28-.Ltext0
 2779 01a6 06        		.uleb128 0x6
 2780 01a7 68        		.byte	0x68
 2781 01a8 93        		.byte	0x93
 2782 01a9 01        		.uleb128 0x1
 2783 01aa 69        		.byte	0x69
 2784 01ab 93        		.byte	0x93
 2785 01ac 01        		.uleb128 0x1
 2786 01ad 00        		.byte	0
 2787               	.LVUS13:
 2788 01ae 04        		.uleb128 .LVU318
 2789 01af 00        		.uleb128 .LVU320
 2790               	.LLST13:
 2791 01b0 04        		.byte	0x4
 2792 01b1 A205      		.uleb128 .LVL29-.Ltext0
 2793 01b3 A805      		.uleb128 .LVL30-.Ltext0
 2794 01b5 06        		.uleb128 0x6
 2795 01b6 68        		.byte	0x68
 2796 01b7 93        		.byte	0x93
 2797 01b8 01        		.uleb128 0x1
 2798 01b9 69        		.byte	0x69
GAS LISTING /tmp/ccBau7gc.s 			page 53


 2799 01ba 93        		.byte	0x93
 2800 01bb 01        		.uleb128 0x1
 2801 01bc 00        		.byte	0
 2802               	.LVUS14:
 2803 01bd 03        		.uleb128 .LVU326
 2804 01be 00        		.uleb128 .LVU328
 2805               	.LLST14:
 2806 01bf 04        		.byte	0x4
 2807 01c0 AE05      		.uleb128 .LVL31-.Ltext0
 2808 01c2 B405      		.uleb128 .LVL32-.Ltext0
 2809 01c4 06        		.uleb128 0x6
 2810 01c5 68        		.byte	0x68
 2811 01c6 93        		.byte	0x93
 2812 01c7 01        		.uleb128 0x1
 2813 01c8 69        		.byte	0x69
 2814 01c9 93        		.byte	0x93
 2815 01ca 01        		.uleb128 0x1
 2816 01cb 00        		.byte	0
 2817               	.LVUS15:
 2818 01cc 02        		.uleb128 .LVU338
 2819 01cd 00        		.uleb128 .LVU340
 2820               	.LLST15:
 2821 01ce 04        		.byte	0x4
 2822 01cf CC05      		.uleb128 .LVL34-.Ltext0
 2823 01d1 D205      		.uleb128 .LVL35-.Ltext0
 2824 01d3 06        		.uleb128 0x6
 2825 01d4 68        		.byte	0x68
 2826 01d5 93        		.byte	0x93
 2827 01d6 01        		.uleb128 0x1
 2828 01d7 69        		.byte	0x69
 2829 01d8 93        		.byte	0x93
 2830 01d9 01        		.uleb128 0x1
 2831 01da 00        		.byte	0
 2832               	.LVUS16:
 2833 01db 03        		.uleb128 .LVU346
 2834 01dc 00        		.uleb128 .LVU348
 2835               	.LLST16:
 2836 01dd 04        		.byte	0x4
 2837 01de D805      		.uleb128 .LVL36-.Ltext0
 2838 01e0 DE05      		.uleb128 .LVL37-.Ltext0
 2839 01e2 06        		.uleb128 0x6
 2840 01e3 68        		.byte	0x68
 2841 01e4 93        		.byte	0x93
 2842 01e5 01        		.uleb128 0x1
 2843 01e6 69        		.byte	0x69
 2844 01e7 93        		.byte	0x93
 2845 01e8 01        		.uleb128 0x1
 2846 01e9 00        		.byte	0
 2847               	.LVUS17:
 2848 01ea 04        		.uleb128 .LVU355
 2849 01eb 00        		.uleb128 .LVU357
 2850               	.LLST17:
 2851 01ec 04        		.byte	0x4
 2852 01ed E405      		.uleb128 .LVL38-.Ltext0
 2853 01ef EA05      		.uleb128 .LVL39-.Ltext0
 2854 01f1 06        		.uleb128 0x6
 2855 01f2 68        		.byte	0x68
GAS LISTING /tmp/ccBau7gc.s 			page 54


 2856 01f3 93        		.byte	0x93
 2857 01f4 01        		.uleb128 0x1
 2858 01f5 69        		.byte	0x69
 2859 01f6 93        		.byte	0x93
 2860 01f7 01        		.uleb128 0x1
 2861 01f8 00        		.byte	0
 2862               	.LVUS18:
 2863 01f9 03        		.uleb128 .LVU363
 2864 01fa 00        		.uleb128 .LVU365
 2865               	.LLST18:
 2866 01fb 04        		.byte	0x4
 2867 01fc F005      		.uleb128 .LVL40-.Ltext0
 2868 01fe F605      		.uleb128 .LVL41-.Ltext0
 2869 0200 06        		.uleb128 0x6
 2870 0201 68        		.byte	0x68
 2871 0202 93        		.byte	0x93
 2872 0203 01        		.uleb128 0x1
 2873 0204 69        		.byte	0x69
 2874 0205 93        		.byte	0x93
 2875 0206 01        		.uleb128 0x1
 2876 0207 00        		.byte	0
 2877               	.LVUS0:
 2878 0208 00        		.uleb128 0
 2879 0209 00        		.uleb128 .LVU16
 2880 020a 00        		.uleb128 .LVU16
 2881 020b 00        		.uleb128 0
 2882               	.LLST0:
 2883 020c 04        		.byte	0x4
 2884 020d 18        		.uleb128 .LVL1-.Ltext0
 2885 020e 26        		.uleb128 .LVL2-.Ltext0
 2886 020f 06        		.uleb128 0x6
 2887 0210 68        		.byte	0x68
 2888 0211 93        		.byte	0x93
 2889 0212 01        		.uleb128 0x1
 2890 0213 69        		.byte	0x69
 2891 0214 93        		.byte	0x93
 2892 0215 01        		.uleb128 0x1
 2893 0216 04        		.byte	0x4
 2894 0217 26        		.uleb128 .LVL2-.Ltext0
 2895 0218 A802      		.uleb128 .LFE2-.Ltext0
 2896 021a 06        		.uleb128 0x6
 2897 021b 62        		.byte	0x62
 2898 021c 93        		.byte	0x93
 2899 021d 01        		.uleb128 0x1
 2900 021e 63        		.byte	0x63
 2901 021f 93        		.byte	0x93
 2902 0220 01        		.uleb128 0x1
 2903 0221 00        		.byte	0
 2904               	.Ldebug_loc3:
 2905               		.section	.debug_aranges,"",@progbits
 2906 0000 1C00 0000 		.long	0x1c
 2907 0004 0200      		.word	0x2
 2908 0006 0000 0000 		.long	.Ldebug_info0
 2909 000a 04        		.byte	0x4
 2910 000b 00        		.byte	0
 2911 000c 0000      		.word	0
 2912 000e 0000      		.word	0
GAS LISTING /tmp/ccBau7gc.s 			page 55


 2913 0010 0000 0000 		.long	.Ltext0
 2914 0014 0C04 0000 		.long	.Letext0-.Ltext0
 2915 0018 0000 0000 		.long	0
 2916 001c 0000 0000 		.long	0
 2917               		.section	.debug_line,"",@progbits
 2918               	.Ldebug_line0:
 2919 0000 3512 0000 		.section	.debug_str,"MS",@progbits,1
 2919      0500 0400 
 2919      4200 0000 
 2919      0201 01FB 
 2919      0E0D 0001 
 2920               	.LASF14:
 2921 0000 4E6F 7274 		.string	"North"
 2921      6800 
 2922               	.LASF29:
 2923 0006 474E 5520 		.string	"GNU C17 12.2.0 -mn-flash=1 -mno-skip-bug -mdouble=32 -mlong-double=64 -mmcu=avr5 -g -Os -
 2923      4331 3720 
 2923      3132 2E32 
 2923      2E30 202D 
 2923      6D6E 2D66 
 2924               	.LASF25:
 2925 0091 5F5F 6164 		.string	"__addr16"
 2925      6472 3136 
 2925      00
 2926               	.LASF11:
 2927 009a 6267 315F 		.string	"bg1_1"
 2927      3100 
 2928               	.LASF12:
 2929 00a0 6267 315F 		.string	"bg1_2"
 2929      3200 
 2930               	.LASF13:
 2931 00a6 6267 315F 		.string	"bg1_3"
 2931      3300 
 2932               	.LASF27:
 2933 00ac 6361 6C69 		.string	"calibrate_graphics"
 2933      6272 6174 
 2933      655F 6772 
 2933      6170 6869 
 2933      6373 00
 2934               	.LASF21:
 2935 00bf 6F72 6965 		.string	"orient"
 2935      6E74 00
 2936               	.LASF16:
 2937 00c6 536F 7574 		.string	"South"
 2937      6800 
 2938               	.LASF18:
 2939 00cc 6F72 6965 		.string	"orientation"
 2939      6E74 6174 
 2939      696F 6E00 
 2940               	.LASF3:
 2941 00d8 756E 7369 		.string	"unsigned char"
 2941      676E 6564 
 2941      2063 6861 
 2941      7200 
 2942               	.LASF28:
 2943 00e6 696E 6974 		.string	"init_graphics"
 2943      5F67 7261 
GAS LISTING /tmp/ccBau7gc.s 			page 56


 2943      7068 6963 
 2943      7300 
 2944               	.LASF8:
 2945 00f4 6C6F 6E67 		.string	"long unsigned int"
 2945      2075 6E73 
 2945      6967 6E65 
 2945      6420 696E 
 2945      7400 
 2946               	.LASF20:
 2947 0106 6865 6967 		.string	"height"
 2947      6874 00
 2948               	.LASF23:
 2949 010d 6261 636B 		.string	"background"
 2949      6772 6F75 
 2949      6E64 00
 2950               	.LASF26:
 2951 0118 5F5F 7265 		.string	"__result"
 2951      7375 6C74 
 2951      00
 2952               	.LASF32:
 2953 0121 696E 6974 		.string	"init_lcd"
 2953      5F6C 6364 
 2953      00
 2954               	.LASF15:
 2955 012a 5765 7374 		.string	"West"
 2955      00
 2956               	.LASF6:
 2957 012f 756E 7369 		.string	"unsigned int"
 2957      676E 6564 
 2957      2069 6E74 
 2957      00
 2958               	.LASF10:
 2959 013c 6C6F 6E67 		.string	"long long unsigned int"
 2959      206C 6F6E 
 2959      6720 756E 
 2959      7369 676E 
 2959      6564 2069 
 2960               	.LASF4:
 2961 0153 7569 6E74 		.string	"uint8_t"
 2961      385F 7400 
 2962               	.LASF9:
 2963 015b 6C6F 6E67 		.string	"long long int"
 2963      206C 6F6E 
 2963      6720 696E 
 2963      7400 
 2964               	.LASF19:
 2965 0169 7769 6474 		.string	"width"
 2965      6800 
 2966               	.LASF5:
 2967 016f 7569 6E74 		.string	"uint16_t"
 2967      3136 5F74 
 2967      00
 2968               	.LASF7:
 2969 0178 6C6F 6E67 		.string	"long int"
 2969      2069 6E74 
 2969      00
 2970               	.LASF24:
GAS LISTING /tmp/ccBau7gc.s 			page 57


 2971 0181 6469 7370 		.string	"display"
 2971      6C61 7900 
 2972               	.LASF17:
 2973 0189 4561 7374 		.string	"East"
 2973      00
 2974               	.LASF2:
 2975 018e 7369 676E 		.string	"signed char"
 2975      6564 2063 
 2975      6861 7200 
 2976               	.LASF22:
 2977 019a 666F 7265 		.string	"foreground"
 2977      6772 6F75 
 2977      6E64 00
 2978               	.LASF31:
 2979 01a5 7365 745F 		.string	"set_orientation"
 2979      6F72 6965 
 2979      6E74 6174 
 2979      696F 6E00 
 2980               	.LASF30:
 2981 01b5 696E 6974 		.string	"init_display_controller"
 2981      5F64 6973 
 2981      706C 6179 
 2981      5F63 6F6E 
 2981      7472 6F6C 
 2982               		.section	.debug_line_str,"MS",@progbits,1
 2983               	.LASF1:
 2984 0000 2F68 6F6D 		.string	"/home/kaicho/Documents/Southampton/D5/lcdtest/liblcd"
 2984      652F 6B61 
 2984      6963 686F 
 2984      2F44 6F63 
 2984      756D 656E 
 2985               	.LASF0:
 2986 0035 6C63 642E 		.string	"lcd.c"
 2986      6300 
 2987               		.ident	"GCC: (GNU) 12.2.0"
 2988 003b 2F68 6F6D 	.global __do_copy_data
 2988      652F 6B61 
 2988      6963 686F 
 2988      2F44 6F63 
 2988      756D 656E 
GAS LISTING /tmp/ccBau7gc.s 			page 58


DEFINED SYMBOLS
                            *ABS*:0000000000000000 lcd.c
     /tmp/ccBau7gc.s:2      *ABS*:000000000000003e __SP_H__
     /tmp/ccBau7gc.s:3      *ABS*:000000000000003d __SP_L__
     /tmp/ccBau7gc.s:4      *ABS*:000000000000003f __SREG__
     /tmp/ccBau7gc.s:5      *ABS*:0000000000000000 __tmp_reg__
     /tmp/ccBau7gc.s:6      *ABS*:0000000000000001 __zero_reg__
     /tmp/ccBau7gc.s:13     .text:0000000000000000 init_lcd
     /tmp/ccBau7gc.s:16     .text:0000000000000000 .Loc.0
     /tmp/ccBau7gc.s:17     .text:0000000000000000 L0
     /tmp/ccBau7gc.s:22     .text:0000000000000000 .Loc.1
     /tmp/ccBau7gc.s:24     .text:0000000000000002 .Loc.2
     /tmp/ccBau7gc.s:27     .text:0000000000000006 .Loc.3
     /tmp/ccBau7gc.s:29     .text:0000000000000008 .Loc.4
     /tmp/ccBau7gc.s:32     .text:000000000000000c .Loc.5
     /tmp/ccBau7gc.s:33     .text:000000000000000c .Loc.6
     /tmp/ccBau7gc.s:36     .text:0000000000000010 .Loc.7
     /tmp/ccBau7gc.s:37     .text:0000000000000010 .Loc.8
     /tmp/ccBau7gc.s:40     .text:0000000000000014 .Loc.9
     /tmp/ccBau7gc.s:43     .text:0000000000000018 L0
     /tmp/ccBau7gc.s:48     .text:0000000000000018 set_orientation
     /tmp/ccBau7gc.s:51     .text:0000000000000018 .Loc.10
     /tmp/ccBau7gc.s:52     .text:0000000000000018 L0
     /tmp/ccBau7gc.s:57     .text:0000000000000018 .Loc.11
     /tmp/ccBau7gc.s:59     .text:000000000000001a .Loc.12
     /tmp/ccBau7gc.s:60     .text:000000000000001a .Loc.13
     /tmp/ccBau7gc.s:1321   .data:0000000000000000 display
     /tmp/ccBau7gc.s:63     .text:0000000000000022 .Loc.14
     /tmp/ccBau7gc.s:65     .text:0000000000000024 .Loc.15
     /tmp/ccBau7gc.s:68     .text:0000000000000026 .Loc.16
     /tmp/ccBau7gc.s:70     .text:0000000000000028 .Loc.17
     /tmp/ccBau7gc.s:72     .text:000000000000002a .Loc.18
     /tmp/ccBau7gc.s:74     .text:000000000000002c .Loc.19
     /tmp/ccBau7gc.s:76     .text:000000000000002e .Loc.20
     /tmp/ccBau7gc.s:77     .text:000000000000002e .Loc.21
     /tmp/ccBau7gc.s:78     .text:000000000000002e .Loc.22
     /tmp/ccBau7gc.s:81     .text:0000000000000034 L0
     /tmp/ccBau7gc.s:83     .text:0000000000000036 .Loc.23
     /tmp/ccBau7gc.s:84     .text:0000000000000036 .Loc.24
     /tmp/ccBau7gc.s:89     .text:0000000000000042 .Loc.25
     /tmp/ccBau7gc.s:90     .text:0000000000000042 .Loc.26
     /tmp/ccBau7gc.s:95     .text:000000000000004e .Loc.27
     /tmp/ccBau7gc.s:98     .text:0000000000000050 .Loc.28
     /tmp/ccBau7gc.s:100    .text:0000000000000052 .Loc.29
     /tmp/ccBau7gc.s:102    .text:0000000000000054 .Loc.30
     /tmp/ccBau7gc.s:105    .text:0000000000000056 .Loc.31
     /tmp/ccBau7gc.s:106    .text:0000000000000056 .Loc.32
     /tmp/ccBau7gc.s:108    .text:0000000000000058 .Loc.33
     /tmp/ccBau7gc.s:111    .text:000000000000005c .Loc.34
     /tmp/ccBau7gc.s:113    .text:000000000000005e .Loc.35
     /tmp/ccBau7gc.s:115    .text:0000000000000060 .Loc.36
     /tmp/ccBau7gc.s:117    .text:0000000000000062 .Loc.37
     /tmp/ccBau7gc.s:118    .text:0000000000000062 .Loc.38
     /tmp/ccBau7gc.s:120    .text:0000000000000064 .Loc.39
     /tmp/ccBau7gc.s:122    .text:0000000000000066 .Loc.40
     /tmp/ccBau7gc.s:124    .text:0000000000000068 .Loc.41
     /tmp/ccBau7gc.s:125    .text:0000000000000068 .Loc.42
GAS LISTING /tmp/ccBau7gc.s 			page 59


     /tmp/ccBau7gc.s:127    .text:000000000000006a .Loc.43
     /tmp/ccBau7gc.s:129    .text:000000000000006c .Loc.44
     /tmp/ccBau7gc.s:131    .text:000000000000006e .Loc.45
     /tmp/ccBau7gc.s:132    .text:000000000000006e .Loc.46
     /tmp/ccBau7gc.s:133    .text:000000000000006e .Loc.47
     /tmp/ccBau7gc.s:138    .text:000000000000007a .Loc.48
     /tmp/ccBau7gc.s:140    .text:000000000000007c .Loc.49
     /tmp/ccBau7gc.s:142    .text:000000000000007e .Loc.50
     /tmp/ccBau7gc.s:143    .text:000000000000007e .Loc.51
     /tmp/ccBau7gc.s:147    .text:0000000000000086 .Loc.52
     /tmp/ccBau7gc.s:149    .text:0000000000000088 .Loc.53
     /tmp/ccBau7gc.s:151    .text:000000000000008a .Loc.54
     /tmp/ccBau7gc.s:152    .text:000000000000008a .Loc.55
     /tmp/ccBau7gc.s:153    .text:000000000000008a .Loc.56
     /tmp/ccBau7gc.s:155    .text:000000000000008c .Loc.57
     /tmp/ccBau7gc.s:158    .text:0000000000000090 .Loc.58
     /tmp/ccBau7gc.s:160    .text:0000000000000092 .Loc.59
     /tmp/ccBau7gc.s:162    .text:0000000000000094 .Loc.60
     /tmp/ccBau7gc.s:164    .text:0000000000000096 .Loc.61
     /tmp/ccBau7gc.s:165    .text:0000000000000096 .Loc.62
     /tmp/ccBau7gc.s:167    .text:0000000000000098 .Loc.63
     /tmp/ccBau7gc.s:169    .text:000000000000009a .Loc.64
     /tmp/ccBau7gc.s:171    .text:000000000000009c .Loc.65
     /tmp/ccBau7gc.s:172    .text:000000000000009c .Loc.66
     /tmp/ccBau7gc.s:174    .text:000000000000009e .Loc.67
     /tmp/ccBau7gc.s:176    .text:00000000000000a0 .Loc.68
     /tmp/ccBau7gc.s:178    .text:00000000000000a2 .Loc.69
     /tmp/ccBau7gc.s:179    .text:00000000000000a2 .Loc.70
     /tmp/ccBau7gc.s:180    .text:00000000000000a2 .Loc.71
     /tmp/ccBau7gc.s:185    .text:00000000000000ae .Loc.72
     /tmp/ccBau7gc.s:187    .text:00000000000000b0 .Loc.73
     /tmp/ccBau7gc.s:189    .text:00000000000000b2 .Loc.74
     /tmp/ccBau7gc.s:190    .text:00000000000000b2 .Loc.75
     /tmp/ccBau7gc.s:194    .text:00000000000000ba .Loc.76
     /tmp/ccBau7gc.s:196    .text:00000000000000bc .Loc.77
     /tmp/ccBau7gc.s:198    .text:00000000000000be .Loc.78
     /tmp/ccBau7gc.s:199    .text:00000000000000be .Loc.79
     /tmp/ccBau7gc.s:201    .text:00000000000000be .Loc.80
     /tmp/ccBau7gc.s:204    .text:00000000000000c0 .Loc.81
     /tmp/ccBau7gc.s:205    .text:00000000000000c0 .Loc.82
     /tmp/ccBau7gc.s:209    .text:00000000000000c6 .Loc.83
     /tmp/ccBau7gc.s:210    .text:00000000000000c6 .Loc.84
     /tmp/ccBau7gc.s:215    .text:00000000000000d2 .Loc.85
     /tmp/ccBau7gc.s:216    .text:00000000000000d2 .Loc.86
     /tmp/ccBau7gc.s:221    .text:00000000000000de .Loc.87
     /tmp/ccBau7gc.s:225    .text:00000000000000e2 .Loc.88
     /tmp/ccBau7gc.s:226    .text:00000000000000e2 .Loc.89
     /tmp/ccBau7gc.s:230    .text:00000000000000e8 .Loc.90
     /tmp/ccBau7gc.s:231    .text:00000000000000e8 .Loc.91
     /tmp/ccBau7gc.s:236    .text:00000000000000f4 .Loc.92
     /tmp/ccBau7gc.s:237    .text:00000000000000f4 .Loc.93
     /tmp/ccBau7gc.s:242    .text:0000000000000100 .Loc.94
     /tmp/ccBau7gc.s:246    .text:0000000000000104 .Loc.95
     /tmp/ccBau7gc.s:247    .text:0000000000000104 .Loc.96
     /tmp/ccBau7gc.s:250    .text:000000000000010a L0
     /tmp/ccBau7gc.s:252    .text:000000000000010c .Loc.97
     /tmp/ccBau7gc.s:253    .text:000000000000010c .Loc.98
GAS LISTING /tmp/ccBau7gc.s 			page 60


     /tmp/ccBau7gc.s:258    .text:0000000000000118 .Loc.99
     /tmp/ccBau7gc.s:259    .text:0000000000000118 .Loc.100
     /tmp/ccBau7gc.s:264    .text:0000000000000124 .Loc.101
     /tmp/ccBau7gc.s:267    .text:0000000000000128 L0
     /tmp/ccBau7gc.s:272    .text:0000000000000128 init_graphics
     /tmp/ccBau7gc.s:274    .text:0000000000000128 .Loc.102
     /tmp/ccBau7gc.s:275    .text:0000000000000128 L0
     /tmp/ccBau7gc.s:280    .text:0000000000000128 .Loc.103
     /tmp/ccBau7gc.s:281    .text:0000000000000128 .Loc.104
     /tmp/ccBau7gc.s:283    .text:000000000000012a .Loc.105
     /tmp/ccBau7gc.s:286    .text:000000000000012e .Loc.106
     /tmp/ccBau7gc.s:288    .text:0000000000000130 .Loc.107
     /tmp/ccBau7gc.s:290    .text:0000000000000132 .Loc.108
     /tmp/ccBau7gc.s:292    .text:0000000000000134 .Loc.109
     /tmp/ccBau7gc.s:293    .text:0000000000000134 .Loc.110
     /tmp/ccBau7gc.s:295    .text:0000000000000136 .Loc.111
     /tmp/ccBau7gc.s:297    .text:0000000000000138 .Loc.112
     /tmp/ccBau7gc.s:299    .text:000000000000013a .Loc.113
     /tmp/ccBau7gc.s:300    .text:000000000000013a .Loc.114
     /tmp/ccBau7gc.s:302    .text:000000000000013c .Loc.115
     /tmp/ccBau7gc.s:304    .text:000000000000013e .Loc.116
     /tmp/ccBau7gc.s:306    .text:0000000000000140 .Loc.117
     /tmp/ccBau7gc.s:307    .text:0000000000000140 .Loc.118
     /tmp/ccBau7gc.s:308    .text:0000000000000140 .Loc.119
     /tmp/ccBau7gc.s:310    .text:0000000000000142 .Loc.120
     /tmp/ccBau7gc.s:312    .text:0000000000000144 .Loc.121
     /tmp/ccBau7gc.s:314    .text:0000000000000146 .Loc.122
     /tmp/ccBau7gc.s:315    .text:0000000000000146 .Loc.123
     /tmp/ccBau7gc.s:318    .text:000000000000014a .Loc.124
     /tmp/ccBau7gc.s:320    .text:000000000000014c .Loc.125
     /tmp/ccBau7gc.s:322    .text:000000000000014e .Loc.126
     /tmp/ccBau7gc.s:323    .text:000000000000014e .Loc.127
     /tmp/ccBau7gc.s:324    .text:000000000000014e .Loc.128
     /tmp/ccBau7gc.s:326    .text:0000000000000150 .Loc.129
     /tmp/ccBau7gc.s:329    .text:0000000000000154 .Loc.130
     /tmp/ccBau7gc.s:331    .text:0000000000000156 .Loc.131
     /tmp/ccBau7gc.s:333    .text:0000000000000158 .Loc.132
     /tmp/ccBau7gc.s:335    .text:000000000000015a .Loc.133
     /tmp/ccBau7gc.s:336    .text:000000000000015a .Loc.134
     /tmp/ccBau7gc.s:338    .text:000000000000015c .Loc.135
     /tmp/ccBau7gc.s:340    .text:000000000000015e .Loc.136
     /tmp/ccBau7gc.s:342    .text:0000000000000160 .Loc.137
     /tmp/ccBau7gc.s:343    .text:0000000000000160 .Loc.138
     /tmp/ccBau7gc.s:345    .text:0000000000000162 .Loc.139
     /tmp/ccBau7gc.s:347    .text:0000000000000164 .Loc.140
     /tmp/ccBau7gc.s:349    .text:0000000000000166 .Loc.141
     /tmp/ccBau7gc.s:350    .text:0000000000000166 .Loc.142
     /tmp/ccBau7gc.s:351    .text:0000000000000166 .Loc.143
     /tmp/ccBau7gc.s:354    .text:000000000000016a .Loc.144
     /tmp/ccBau7gc.s:356    .text:000000000000016c .Loc.145
     /tmp/ccBau7gc.s:358    .text:000000000000016e .Loc.146
     /tmp/ccBau7gc.s:359    .text:000000000000016e .Loc.147
     /tmp/ccBau7gc.s:362    .text:0000000000000172 .Loc.148
     /tmp/ccBau7gc.s:364    .text:0000000000000174 .Loc.149
     /tmp/ccBau7gc.s:366    .text:0000000000000176 .Loc.150
     /tmp/ccBau7gc.s:367    .text:0000000000000176 .Loc.151
     /tmp/ccBau7gc.s:368    .text:0000000000000176 .Loc.152
GAS LISTING /tmp/ccBau7gc.s 			page 61


     /tmp/ccBau7gc.s:370    .text:0000000000000178 .Loc.153
     /tmp/ccBau7gc.s:373    .text:000000000000017c .Loc.154
     /tmp/ccBau7gc.s:375    .text:000000000000017e .Loc.155
     /tmp/ccBau7gc.s:377    .text:0000000000000180 .Loc.156
     /tmp/ccBau7gc.s:379    .text:0000000000000182 .Loc.157
     /tmp/ccBau7gc.s:380    .text:0000000000000182 .Loc.158
     /tmp/ccBau7gc.s:382    .text:0000000000000182 .Loc.159
     /tmp/ccBau7gc.s:385    .text:0000000000000186 .Loc.160
     /tmp/ccBau7gc.s:390    .text:000000000000018a .Loc.161
     /tmp/ccBau7gc.s:391    .text:000000000000018a .Loc.162
     /tmp/ccBau7gc.s:393    .text:000000000000018c .Loc.163
     /tmp/ccBau7gc.s:398    .text:0000000000000190 .Loc.164
     /tmp/ccBau7gc.s:400    .text:0000000000000190 .Loc.165
     /tmp/ccBau7gc.s:401    .text:0000000000000190 .Loc.166
     /tmp/ccBau7gc.s:402    .text:0000000000000190 .Loc.167
     /tmp/ccBau7gc.s:411    .text:0000000000000196 .Loc.168
     /tmp/ccBau7gc.s:415    .text:0000000000000198 .Loc.169
     /tmp/ccBau7gc.s:417    .text:000000000000019a .Loc.170
     /tmp/ccBau7gc.s:419    .text:000000000000019c .Loc.171
     /tmp/ccBau7gc.s:420    .text:000000000000019c .Loc.172
     /tmp/ccBau7gc.s:422    .text:000000000000019c .Loc.173
     /tmp/ccBau7gc.s:424    .text:000000000000019c .Loc.174
     /tmp/ccBau7gc.s:425    .text:000000000000019c .Loc.175
     /tmp/ccBau7gc.s:434    .text:00000000000001a2 .Loc.176
     /tmp/ccBau7gc.s:438    .text:00000000000001a4 .Loc.177
     /tmp/ccBau7gc.s:440    .text:00000000000001a6 .Loc.178
     /tmp/ccBau7gc.s:442    .text:00000000000001a8 .Loc.179
     /tmp/ccBau7gc.s:443    .text:00000000000001a8 .Loc.180
     /tmp/ccBau7gc.s:444    .text:00000000000001a8 .Loc.181
     /tmp/ccBau7gc.s:446    .text:00000000000001a8 .Loc.182
     /tmp/ccBau7gc.s:448    .text:00000000000001a8 .Loc.183
     /tmp/ccBau7gc.s:449    .text:00000000000001a8 .Loc.184
     /tmp/ccBau7gc.s:458    .text:00000000000001ae .Loc.185
     /tmp/ccBau7gc.s:462    .text:00000000000001b0 .Loc.186
     /tmp/ccBau7gc.s:464    .text:00000000000001b2 .Loc.187
     /tmp/ccBau7gc.s:466    .text:00000000000001b4 .Loc.188
     /tmp/ccBau7gc.s:467    .text:00000000000001b4 .Loc.189
     /tmp/ccBau7gc.s:469    .text:00000000000001b4 .Loc.190
     /tmp/ccBau7gc.s:471    .text:00000000000001b4 .Loc.191
     /tmp/ccBau7gc.s:472    .text:00000000000001b4 .Loc.192
     /tmp/ccBau7gc.s:481    .text:00000000000001ba .Loc.193
     /tmp/ccBau7gc.s:485    .text:00000000000001bc .Loc.194
     /tmp/ccBau7gc.s:487    .text:00000000000001be .Loc.195
     /tmp/ccBau7gc.s:489    .text:00000000000001c0 .Loc.196
     /tmp/ccBau7gc.s:490    .text:00000000000001c0 .Loc.197
     /tmp/ccBau7gc.s:491    .text:00000000000001c0 .Loc.198
     /tmp/ccBau7gc.s:495    .text:00000000000001c4 .Loc.199
     /tmp/ccBau7gc.s:501    .text:00000000000001ce .Loc.200
     /tmp/ccBau7gc.s:506    .text:00000000000001d2 .Loc.201
     /tmp/ccBau7gc.s:508    .text:00000000000001d2 .Loc.202
     /tmp/ccBau7gc.s:509    .text:00000000000001d2 .Loc.203
     /tmp/ccBau7gc.s:510    .text:00000000000001d2 .Loc.204
     /tmp/ccBau7gc.s:519    .text:00000000000001d8 .Loc.205
     /tmp/ccBau7gc.s:523    .text:00000000000001da .Loc.206
     /tmp/ccBau7gc.s:525    .text:00000000000001dc .Loc.207
     /tmp/ccBau7gc.s:527    .text:00000000000001de .Loc.208
     /tmp/ccBau7gc.s:528    .text:00000000000001de .Loc.209
GAS LISTING /tmp/ccBau7gc.s 			page 62


     /tmp/ccBau7gc.s:530    .text:00000000000001de .Loc.210
     /tmp/ccBau7gc.s:532    .text:00000000000001de .Loc.211
     /tmp/ccBau7gc.s:533    .text:00000000000001de .Loc.212
     /tmp/ccBau7gc.s:542    .text:00000000000001e4 .Loc.213
     /tmp/ccBau7gc.s:546    .text:00000000000001e6 .Loc.214
     /tmp/ccBau7gc.s:548    .text:00000000000001e8 .Loc.215
     /tmp/ccBau7gc.s:550    .text:00000000000001ea .Loc.216
     /tmp/ccBau7gc.s:551    .text:00000000000001ea .Loc.217
     /tmp/ccBau7gc.s:552    .text:00000000000001ea .Loc.218
     /tmp/ccBau7gc.s:554    .text:00000000000001ea .Loc.219
     /tmp/ccBau7gc.s:556    .text:00000000000001ea .Loc.220
     /tmp/ccBau7gc.s:557    .text:00000000000001ea .Loc.221
     /tmp/ccBau7gc.s:566    .text:00000000000001f0 .Loc.222
     /tmp/ccBau7gc.s:570    .text:00000000000001f2 .Loc.223
     /tmp/ccBau7gc.s:572    .text:00000000000001f4 .Loc.224
     /tmp/ccBau7gc.s:574    .text:00000000000001f6 .Loc.225
     /tmp/ccBau7gc.s:575    .text:00000000000001f6 .Loc.226
     /tmp/ccBau7gc.s:577    .text:00000000000001f6 .Loc.227
     /tmp/ccBau7gc.s:579    .text:00000000000001f6 .Loc.228
     /tmp/ccBau7gc.s:580    .text:00000000000001f6 .Loc.229
     /tmp/ccBau7gc.s:589    .text:00000000000001fc .Loc.230
     /tmp/ccBau7gc.s:593    .text:00000000000001fe .Loc.231
     /tmp/ccBau7gc.s:595    .text:0000000000000200 .Loc.232
     /tmp/ccBau7gc.s:597    .text:0000000000000202 .Loc.233
     /tmp/ccBau7gc.s:598    .text:0000000000000202 .Loc.234
     /tmp/ccBau7gc.s:599    .text:0000000000000202 .Loc.235
     /tmp/ccBau7gc.s:603    .text:0000000000000206 .Loc.236
     /tmp/ccBau7gc.s:608    .text:000000000000020e .Loc.237
     /tmp/ccBau7gc.s:609    .text:000000000000020e .Loc.238
     /tmp/ccBau7gc.s:617    .text:000000000000021e L0
     /tmp/ccBau7gc.s:619    .text:0000000000000220 .Loc.239
     /tmp/ccBau7gc.s:621    .text:0000000000000222 .Loc.240
     /tmp/ccBau7gc.s:624    .text:0000000000000226 .Loc.241
     /tmp/ccBau7gc.s:626    .text:0000000000000228 .Loc.242
     /tmp/ccBau7gc.s:628    .text:000000000000022a .Loc.243
     /tmp/ccBau7gc.s:630    .text:000000000000022c .Loc.244
     /tmp/ccBau7gc.s:631    .text:000000000000022c .Loc.245
     /tmp/ccBau7gc.s:633    .text:000000000000022e .Loc.246
     /tmp/ccBau7gc.s:635    .text:0000000000000230 .Loc.247
     /tmp/ccBau7gc.s:637    .text:0000000000000232 .Loc.248
     /tmp/ccBau7gc.s:638    .text:0000000000000232 .Loc.249
     /tmp/ccBau7gc.s:640    .text:0000000000000234 .Loc.250
     /tmp/ccBau7gc.s:642    .text:0000000000000236 .Loc.251
     /tmp/ccBau7gc.s:644    .text:0000000000000238 .Loc.252
     /tmp/ccBau7gc.s:645    .text:0000000000000238 .Loc.253
     /tmp/ccBau7gc.s:646    .text:0000000000000238 .Loc.254
     /tmp/ccBau7gc.s:648    .text:000000000000023a .Loc.255
     /tmp/ccBau7gc.s:650    .text:000000000000023c .Loc.256
     /tmp/ccBau7gc.s:652    .text:000000000000023e .Loc.257
     /tmp/ccBau7gc.s:653    .text:000000000000023e .Loc.258
     /tmp/ccBau7gc.s:656    .text:0000000000000242 .Loc.259
     /tmp/ccBau7gc.s:658    .text:0000000000000244 .Loc.260
     /tmp/ccBau7gc.s:660    .text:0000000000000246 .Loc.261
     /tmp/ccBau7gc.s:661    .text:0000000000000246 .Loc.262
     /tmp/ccBau7gc.s:662    .text:0000000000000246 .Loc.263
     /tmp/ccBau7gc.s:664    .text:0000000000000248 .Loc.264
     /tmp/ccBau7gc.s:667    .text:000000000000024c .Loc.265
GAS LISTING /tmp/ccBau7gc.s 			page 63


     /tmp/ccBau7gc.s:669    .text:000000000000024e .Loc.266
     /tmp/ccBau7gc.s:671    .text:0000000000000250 .Loc.267
     /tmp/ccBau7gc.s:673    .text:0000000000000252 .Loc.268
     /tmp/ccBau7gc.s:674    .text:0000000000000252 .Loc.269
     /tmp/ccBau7gc.s:676    .text:0000000000000254 .Loc.270
     /tmp/ccBau7gc.s:678    .text:0000000000000256 .Loc.271
     /tmp/ccBau7gc.s:680    .text:0000000000000258 .Loc.272
     /tmp/ccBau7gc.s:681    .text:0000000000000258 .Loc.273
     /tmp/ccBau7gc.s:684    .text:000000000000025c .Loc.274
     /tmp/ccBau7gc.s:686    .text:000000000000025e .Loc.275
     /tmp/ccBau7gc.s:688    .text:0000000000000260 .Loc.276
     /tmp/ccBau7gc.s:689    .text:0000000000000260 .Loc.277
     /tmp/ccBau7gc.s:690    .text:0000000000000260 .Loc.278
     /tmp/ccBau7gc.s:693    .text:0000000000000264 .Loc.279
     /tmp/ccBau7gc.s:695    .text:0000000000000266 .Loc.280
     /tmp/ccBau7gc.s:697    .text:0000000000000268 .Loc.281
     /tmp/ccBau7gc.s:698    .text:0000000000000268 .Loc.282
     /tmp/ccBau7gc.s:701    .text:000000000000026c .Loc.283
     /tmp/ccBau7gc.s:703    .text:000000000000026e .Loc.284
     /tmp/ccBau7gc.s:705    .text:0000000000000270 .Loc.285
     /tmp/ccBau7gc.s:706    .text:0000000000000270 .Loc.286
     /tmp/ccBau7gc.s:707    .text:0000000000000270 .Loc.287
     /tmp/ccBau7gc.s:709    .text:0000000000000272 .Loc.288
     /tmp/ccBau7gc.s:712    .text:0000000000000276 .Loc.289
     /tmp/ccBau7gc.s:714    .text:0000000000000278 .Loc.290
     /tmp/ccBau7gc.s:716    .text:000000000000027a .Loc.291
     /tmp/ccBau7gc.s:718    .text:000000000000027c .Loc.292
     /tmp/ccBau7gc.s:719    .text:000000000000027c .Loc.293
     /tmp/ccBau7gc.s:721    .text:000000000000027c .Loc.294
     /tmp/ccBau7gc.s:724    .text:0000000000000280 .Loc.295
     /tmp/ccBau7gc.s:729    .text:0000000000000284 .Loc.296
     /tmp/ccBau7gc.s:730    .text:0000000000000284 .Loc.297
     /tmp/ccBau7gc.s:732    .text:0000000000000286 .Loc.298
     /tmp/ccBau7gc.s:737    .text:000000000000028a .Loc.299
     /tmp/ccBau7gc.s:739    .text:000000000000028a .Loc.300
     /tmp/ccBau7gc.s:740    .text:000000000000028a .Loc.301
     /tmp/ccBau7gc.s:741    .text:000000000000028a .Loc.302
     /tmp/ccBau7gc.s:750    .text:0000000000000290 .Loc.303
     /tmp/ccBau7gc.s:754    .text:0000000000000292 .Loc.304
     /tmp/ccBau7gc.s:756    .text:0000000000000294 .Loc.305
     /tmp/ccBau7gc.s:758    .text:0000000000000296 .Loc.306
     /tmp/ccBau7gc.s:759    .text:0000000000000296 .Loc.307
     /tmp/ccBau7gc.s:761    .text:0000000000000296 .Loc.308
     /tmp/ccBau7gc.s:763    .text:0000000000000296 .Loc.309
     /tmp/ccBau7gc.s:764    .text:0000000000000296 .Loc.310
     /tmp/ccBau7gc.s:773    .text:000000000000029c .Loc.311
     /tmp/ccBau7gc.s:777    .text:000000000000029e .Loc.312
     /tmp/ccBau7gc.s:779    .text:00000000000002a0 .Loc.313
     /tmp/ccBau7gc.s:781    .text:00000000000002a2 .Loc.314
     /tmp/ccBau7gc.s:782    .text:00000000000002a2 .Loc.315
     /tmp/ccBau7gc.s:783    .text:00000000000002a2 .Loc.316
     /tmp/ccBau7gc.s:785    .text:00000000000002a2 .Loc.317
     /tmp/ccBau7gc.s:787    .text:00000000000002a2 .Loc.318
     /tmp/ccBau7gc.s:788    .text:00000000000002a2 .Loc.319
     /tmp/ccBau7gc.s:797    .text:00000000000002a8 .Loc.320
     /tmp/ccBau7gc.s:801    .text:00000000000002aa .Loc.321
     /tmp/ccBau7gc.s:803    .text:00000000000002ac .Loc.322
GAS LISTING /tmp/ccBau7gc.s 			page 64


     /tmp/ccBau7gc.s:805    .text:00000000000002ae .Loc.323
     /tmp/ccBau7gc.s:806    .text:00000000000002ae .Loc.324
     /tmp/ccBau7gc.s:808    .text:00000000000002ae .Loc.325
     /tmp/ccBau7gc.s:810    .text:00000000000002ae .Loc.326
     /tmp/ccBau7gc.s:811    .text:00000000000002ae .Loc.327
     /tmp/ccBau7gc.s:820    .text:00000000000002b4 .Loc.328
     /tmp/ccBau7gc.s:824    .text:00000000000002b6 .Loc.329
     /tmp/ccBau7gc.s:826    .text:00000000000002b8 .Loc.330
     /tmp/ccBau7gc.s:828    .text:00000000000002ba .Loc.331
     /tmp/ccBau7gc.s:829    .text:00000000000002ba .Loc.332
     /tmp/ccBau7gc.s:830    .text:00000000000002ba .Loc.333
     /tmp/ccBau7gc.s:834    .text:00000000000002be .Loc.334
     /tmp/ccBau7gc.s:840    .text:00000000000002c8 .Loc.335
     /tmp/ccBau7gc.s:845    .text:00000000000002cc .Loc.336
     /tmp/ccBau7gc.s:847    .text:00000000000002cc .Loc.337
     /tmp/ccBau7gc.s:848    .text:00000000000002cc .Loc.338
     /tmp/ccBau7gc.s:849    .text:00000000000002cc .Loc.339
     /tmp/ccBau7gc.s:858    .text:00000000000002d2 .Loc.340
     /tmp/ccBau7gc.s:862    .text:00000000000002d4 .Loc.341
     /tmp/ccBau7gc.s:864    .text:00000000000002d6 .Loc.342
     /tmp/ccBau7gc.s:866    .text:00000000000002d8 .Loc.343
     /tmp/ccBau7gc.s:867    .text:00000000000002d8 .Loc.344
     /tmp/ccBau7gc.s:869    .text:00000000000002d8 .Loc.345
     /tmp/ccBau7gc.s:871    .text:00000000000002d8 .Loc.346
     /tmp/ccBau7gc.s:872    .text:00000000000002d8 .Loc.347
     /tmp/ccBau7gc.s:881    .text:00000000000002de .Loc.348
     /tmp/ccBau7gc.s:885    .text:00000000000002e0 .Loc.349
     /tmp/ccBau7gc.s:887    .text:00000000000002e2 .Loc.350
     /tmp/ccBau7gc.s:889    .text:00000000000002e4 .Loc.351
     /tmp/ccBau7gc.s:890    .text:00000000000002e4 .Loc.352
     /tmp/ccBau7gc.s:891    .text:00000000000002e4 .Loc.353
     /tmp/ccBau7gc.s:893    .text:00000000000002e4 .Loc.354
     /tmp/ccBau7gc.s:895    .text:00000000000002e4 .Loc.355
     /tmp/ccBau7gc.s:896    .text:00000000000002e4 .Loc.356
     /tmp/ccBau7gc.s:905    .text:00000000000002ea .Loc.357
     /tmp/ccBau7gc.s:909    .text:00000000000002ec .Loc.358
     /tmp/ccBau7gc.s:911    .text:00000000000002ee .Loc.359
     /tmp/ccBau7gc.s:913    .text:00000000000002f0 .Loc.360
     /tmp/ccBau7gc.s:914    .text:00000000000002f0 .Loc.361
     /tmp/ccBau7gc.s:916    .text:00000000000002f0 .Loc.362
     /tmp/ccBau7gc.s:918    .text:00000000000002f0 .Loc.363
     /tmp/ccBau7gc.s:919    .text:00000000000002f0 .Loc.364
     /tmp/ccBau7gc.s:928    .text:00000000000002f6 .Loc.365
     /tmp/ccBau7gc.s:932    .text:00000000000002f8 .Loc.366
     /tmp/ccBau7gc.s:934    .text:00000000000002fa .Loc.367
     /tmp/ccBau7gc.s:936    .text:00000000000002fc .Loc.368
     /tmp/ccBau7gc.s:937    .text:00000000000002fc .Loc.369
     /tmp/ccBau7gc.s:938    .text:00000000000002fc .Loc.370
     /tmp/ccBau7gc.s:942    .text:0000000000000300 .Loc.371
     /tmp/ccBau7gc.s:947    .text:0000000000000308 .Loc.372
     /tmp/ccBau7gc.s:948    .text:0000000000000308 .Loc.373
     /tmp/ccBau7gc.s:956    .text:0000000000000318 L0
     /tmp/ccBau7gc.s:959    .text:000000000000031a .Loc.374
     /tmp/ccBau7gc.s:961    .text:000000000000031c L0
     /tmp/ccBau7gc.s:966    .text:000000000000031c calibrate_graphics
     /tmp/ccBau7gc.s:968    .text:000000000000031c .Loc.375
     /tmp/ccBau7gc.s:969    .text:000000000000031c L0
GAS LISTING /tmp/ccBau7gc.s 			page 65


     /tmp/ccBau7gc.s:974    .text:000000000000031c .Loc.376
     /tmp/ccBau7gc.s:975    .text:000000000000031c .Loc.377
     /tmp/ccBau7gc.s:977    .text:000000000000031e .Loc.378
     /tmp/ccBau7gc.s:980    .text:0000000000000322 .Loc.379
     /tmp/ccBau7gc.s:982    .text:0000000000000324 .Loc.380
     /tmp/ccBau7gc.s:984    .text:0000000000000326 .Loc.381
     /tmp/ccBau7gc.s:986    .text:0000000000000328 .Loc.382
     /tmp/ccBau7gc.s:987    .text:0000000000000328 .Loc.383
     /tmp/ccBau7gc.s:989    .text:000000000000032a .Loc.384
     /tmp/ccBau7gc.s:991    .text:000000000000032c .Loc.385
     /tmp/ccBau7gc.s:993    .text:000000000000032e .Loc.386
     /tmp/ccBau7gc.s:994    .text:000000000000032e .Loc.387
     /tmp/ccBau7gc.s:996    .text:0000000000000330 .Loc.388
     /tmp/ccBau7gc.s:998    .text:0000000000000332 .Loc.389
     /tmp/ccBau7gc.s:1000   .text:0000000000000334 .Loc.390
     /tmp/ccBau7gc.s:1001   .text:0000000000000334 .Loc.391
     /tmp/ccBau7gc.s:1002   .text:0000000000000334 .Loc.392
     /tmp/ccBau7gc.s:1004   .text:0000000000000336 .Loc.393
     /tmp/ccBau7gc.s:1006   .text:0000000000000338 .Loc.394
     /tmp/ccBau7gc.s:1008   .text:000000000000033a .Loc.395
     /tmp/ccBau7gc.s:1009   .text:000000000000033a .Loc.396
     /tmp/ccBau7gc.s:1012   .text:000000000000033e .Loc.397
     /tmp/ccBau7gc.s:1014   .text:0000000000000340 .Loc.398
     /tmp/ccBau7gc.s:1016   .text:0000000000000342 .Loc.399
     /tmp/ccBau7gc.s:1017   .text:0000000000000342 .Loc.400
     /tmp/ccBau7gc.s:1018   .text:0000000000000342 .Loc.401
     /tmp/ccBau7gc.s:1020   .text:0000000000000344 .Loc.402
     /tmp/ccBau7gc.s:1023   .text:0000000000000348 .Loc.403
     /tmp/ccBau7gc.s:1025   .text:000000000000034a .Loc.404
     /tmp/ccBau7gc.s:1027   .text:000000000000034c .Loc.405
     /tmp/ccBau7gc.s:1029   .text:000000000000034e .Loc.406
     /tmp/ccBau7gc.s:1030   .text:000000000000034e .Loc.407
     /tmp/ccBau7gc.s:1032   .text:0000000000000350 .Loc.408
     /tmp/ccBau7gc.s:1034   .text:0000000000000352 .Loc.409
     /tmp/ccBau7gc.s:1036   .text:0000000000000354 .Loc.410
     /tmp/ccBau7gc.s:1037   .text:0000000000000354 .Loc.411
     /tmp/ccBau7gc.s:1040   .text:0000000000000358 .Loc.412
     /tmp/ccBau7gc.s:1042   .text:000000000000035a .Loc.413
     /tmp/ccBau7gc.s:1044   .text:000000000000035c .Loc.414
     /tmp/ccBau7gc.s:1045   .text:000000000000035c .Loc.415
     /tmp/ccBau7gc.s:1046   .text:000000000000035c .Loc.416
     /tmp/ccBau7gc.s:1049   .text:0000000000000360 .Loc.417
     /tmp/ccBau7gc.s:1051   .text:0000000000000362 .Loc.418
     /tmp/ccBau7gc.s:1053   .text:0000000000000364 .Loc.419
     /tmp/ccBau7gc.s:1054   .text:0000000000000364 .Loc.420
     /tmp/ccBau7gc.s:1057   .text:0000000000000368 .Loc.421
     /tmp/ccBau7gc.s:1059   .text:000000000000036a .Loc.422
     /tmp/ccBau7gc.s:1061   .text:000000000000036c .Loc.423
     /tmp/ccBau7gc.s:1062   .text:000000000000036c .Loc.424
     /tmp/ccBau7gc.s:1063   .text:000000000000036c .Loc.425
     /tmp/ccBau7gc.s:1065   .text:000000000000036e .Loc.426
     /tmp/ccBau7gc.s:1068   .text:0000000000000372 .Loc.427
     /tmp/ccBau7gc.s:1070   .text:0000000000000374 .Loc.428
     /tmp/ccBau7gc.s:1072   .text:0000000000000376 .Loc.429
     /tmp/ccBau7gc.s:1074   .text:0000000000000378 .Loc.430
     /tmp/ccBau7gc.s:1075   .text:0000000000000378 .Loc.431
     /tmp/ccBau7gc.s:1077   .text:0000000000000378 .Loc.432
GAS LISTING /tmp/ccBau7gc.s 			page 66


     /tmp/ccBau7gc.s:1080   .text:000000000000037c .Loc.433
     /tmp/ccBau7gc.s:1085   .text:0000000000000380 .Loc.434
     /tmp/ccBau7gc.s:1086   .text:0000000000000380 .Loc.435
     /tmp/ccBau7gc.s:1088   .text:0000000000000382 .Loc.436
     /tmp/ccBau7gc.s:1092   .text:0000000000000384 .Loc.437
     /tmp/ccBau7gc.s:1094   .text:0000000000000384 .Loc.438
     /tmp/ccBau7gc.s:1095   .text:0000000000000384 .Loc.439
     /tmp/ccBau7gc.s:1096   .text:0000000000000384 .Loc.440
     /tmp/ccBau7gc.s:1105   .text:000000000000038a .Loc.441
     /tmp/ccBau7gc.s:1109   .text:000000000000038c .Loc.442
     /tmp/ccBau7gc.s:1111   .text:000000000000038e .Loc.443
     /tmp/ccBau7gc.s:1113   .text:0000000000000390 .Loc.444
     /tmp/ccBau7gc.s:1114   .text:0000000000000390 .Loc.445
     /tmp/ccBau7gc.s:1116   .text:0000000000000390 .Loc.446
     /tmp/ccBau7gc.s:1118   .text:0000000000000390 .Loc.447
     /tmp/ccBau7gc.s:1119   .text:0000000000000390 .Loc.448
     /tmp/ccBau7gc.s:1128   .text:0000000000000396 .Loc.449
     /tmp/ccBau7gc.s:1132   .text:0000000000000398 .Loc.450
     /tmp/ccBau7gc.s:1134   .text:000000000000039a .Loc.451
     /tmp/ccBau7gc.s:1136   .text:000000000000039c .Loc.452
     /tmp/ccBau7gc.s:1137   .text:000000000000039c .Loc.453
     /tmp/ccBau7gc.s:1138   .text:000000000000039c .Loc.454
     /tmp/ccBau7gc.s:1140   .text:000000000000039c .Loc.455
     /tmp/ccBau7gc.s:1142   .text:000000000000039c .Loc.456
     /tmp/ccBau7gc.s:1143   .text:000000000000039c .Loc.457
     /tmp/ccBau7gc.s:1152   .text:00000000000003a2 .Loc.458
     /tmp/ccBau7gc.s:1156   .text:00000000000003a4 .Loc.459
     /tmp/ccBau7gc.s:1158   .text:00000000000003a6 .Loc.460
     /tmp/ccBau7gc.s:1160   .text:00000000000003a8 .Loc.461
     /tmp/ccBau7gc.s:1161   .text:00000000000003a8 .Loc.462
     /tmp/ccBau7gc.s:1163   .text:00000000000003a8 .Loc.463
     /tmp/ccBau7gc.s:1165   .text:00000000000003a8 .Loc.464
     /tmp/ccBau7gc.s:1166   .text:00000000000003a8 .Loc.465
     /tmp/ccBau7gc.s:1175   .text:00000000000003ae .Loc.466
     /tmp/ccBau7gc.s:1179   .text:00000000000003b0 .Loc.467
     /tmp/ccBau7gc.s:1181   .text:00000000000003b2 .Loc.468
     /tmp/ccBau7gc.s:1183   .text:00000000000003b4 .Loc.469
     /tmp/ccBau7gc.s:1184   .text:00000000000003b4 .Loc.470
     /tmp/ccBau7gc.s:1185   .text:00000000000003b4 .Loc.471
     /tmp/ccBau7gc.s:1188   .text:00000000000003b6 .Loc.472
     /tmp/ccBau7gc.s:1193   .text:00000000000003be .Loc.473
     /tmp/ccBau7gc.s:1197   .text:00000000000003c0 .Loc.474
     /tmp/ccBau7gc.s:1199   .text:00000000000003c0 .Loc.475
     /tmp/ccBau7gc.s:1200   .text:00000000000003c0 .Loc.476
     /tmp/ccBau7gc.s:1201   .text:00000000000003c0 .Loc.477
     /tmp/ccBau7gc.s:1210   .text:00000000000003c6 .Loc.478
     /tmp/ccBau7gc.s:1214   .text:00000000000003c8 .Loc.479
     /tmp/ccBau7gc.s:1216   .text:00000000000003ca .Loc.480
     /tmp/ccBau7gc.s:1218   .text:00000000000003cc .Loc.481
     /tmp/ccBau7gc.s:1219   .text:00000000000003cc .Loc.482
     /tmp/ccBau7gc.s:1221   .text:00000000000003cc .Loc.483
     /tmp/ccBau7gc.s:1223   .text:00000000000003cc .Loc.484
     /tmp/ccBau7gc.s:1224   .text:00000000000003cc .Loc.485
     /tmp/ccBau7gc.s:1233   .text:00000000000003d2 .Loc.486
     /tmp/ccBau7gc.s:1237   .text:00000000000003d4 .Loc.487
     /tmp/ccBau7gc.s:1239   .text:00000000000003d6 .Loc.488
     /tmp/ccBau7gc.s:1241   .text:00000000000003d8 .Loc.489
GAS LISTING /tmp/ccBau7gc.s 			page 67


     /tmp/ccBau7gc.s:1242   .text:00000000000003d8 .Loc.490
     /tmp/ccBau7gc.s:1243   .text:00000000000003d8 .Loc.491
     /tmp/ccBau7gc.s:1245   .text:00000000000003d8 .Loc.492
     /tmp/ccBau7gc.s:1247   .text:00000000000003d8 .Loc.493
     /tmp/ccBau7gc.s:1248   .text:00000000000003d8 .Loc.494
     /tmp/ccBau7gc.s:1257   .text:00000000000003de .Loc.495
     /tmp/ccBau7gc.s:1261   .text:00000000000003e0 .Loc.496
     /tmp/ccBau7gc.s:1263   .text:00000000000003e2 .Loc.497
     /tmp/ccBau7gc.s:1265   .text:00000000000003e4 .Loc.498
     /tmp/ccBau7gc.s:1266   .text:00000000000003e4 .Loc.499
     /tmp/ccBau7gc.s:1268   .text:00000000000003e4 .Loc.500
     /tmp/ccBau7gc.s:1270   .text:00000000000003e4 .Loc.501
     /tmp/ccBau7gc.s:1271   .text:00000000000003e4 .Loc.502
     /tmp/ccBau7gc.s:1280   .text:00000000000003ea .Loc.503
     /tmp/ccBau7gc.s:1284   .text:00000000000003ec .Loc.504
     /tmp/ccBau7gc.s:1286   .text:00000000000003ee .Loc.505
     /tmp/ccBau7gc.s:1288   .text:00000000000003f0 .Loc.506
     /tmp/ccBau7gc.s:1289   .text:00000000000003f0 .Loc.507
     /tmp/ccBau7gc.s:1290   .text:00000000000003f0 .Loc.508
     /tmp/ccBau7gc.s:1293   .text:00000000000003f2 .Loc.509
     /tmp/ccBau7gc.s:1297   .text:00000000000003f8 .Loc.510
     /tmp/ccBau7gc.s:1299   .text:00000000000003f8 .Loc.511
     /tmp/ccBau7gc.s:1305   .text:0000000000000400 .Loc.512
     /tmp/ccBau7gc.s:1309   .text:0000000000000408 L0
     /tmp/ccBau7gc.s:1312   .text:000000000000040a .Loc.513
     /tmp/ccBau7gc.s:1314   .text:000000000000040c L0
     /tmp/ccBau7gc.s:1335   .text:000000000000040c L0
                     .debug_frame:0000000000000000 L0
     /tmp/ccBau7gc.s:203    .text:00000000000000c0 .L3
     /tmp/ccBau7gc.s:224    .text:00000000000000e2 .L5
     /tmp/ccBau7gc.s:97     .text:0000000000000050 .L7
     /tmp/ccBau7gc.s:245    .text:0000000000000104 .L6
     /tmp/ccBau7gc.s:104    .text:0000000000000056 .L4
     /tmp/ccBau7gc.s:397    .text:0000000000000190 .L10
     /tmp/ccBau7gc.s:505    .text:00000000000001d2 .L11
     /tmp/ccBau7gc.s:389    .text:000000000000018a .L9
     /tmp/ccBau7gc.s:736    .text:000000000000028a .L14
     /tmp/ccBau7gc.s:844    .text:00000000000002cc .L15
     /tmp/ccBau7gc.s:728    .text:0000000000000284 .L13
     /tmp/ccBau7gc.s:1091   .text:0000000000000384 .L23
     /tmp/ccBau7gc.s:1196   .text:00000000000003c0 .L24
     /tmp/ccBau7gc.s:1084   .text:0000000000000380 .L22
     /tmp/ccBau7gc.s:1961   .debug_abbrev:0000000000000000 .Ldebug_abbrev0
     /tmp/ccBau7gc.s:8      .text:0000000000000000 .Ltext0
     /tmp/ccBau7gc.s:1330   .text:000000000000040c .Letext0
     /tmp/ccBau7gc.s:2918   .debug_line:0000000000000000 .Ldebug_line0
     /tmp/ccBau7gc.s:967    .text:000000000000031c .LFB4
     /tmp/ccBau7gc.s:1315   .text:000000000000040c .LFE4
     /tmp/ccBau7gc.s:2391   .debug_loclists:0000000000000010 .LLST19
     /tmp/ccBau7gc.s:2386   .debug_loclists:000000000000000c .LVUS19
     /tmp/ccBau7gc.s:2413   .debug_loclists:0000000000000028 .LLST20
     /tmp/ccBau7gc.s:2404   .debug_loclists:0000000000000020 .LVUS20
     /tmp/ccBau7gc.s:1093   .text:0000000000000384 .LBB18
     /tmp/ccBau7gc.s:1107   .text:000000000000038a .LBE18
     /tmp/ccBau7gc.s:2458   .debug_loclists:000000000000005c .LLST21
     /tmp/ccBau7gc.s:2455   .debug_loclists:000000000000005a .LVUS21
     /tmp/ccBau7gc.s:1115   .text:0000000000000390 .LBB19
GAS LISTING /tmp/ccBau7gc.s 			page 68


     /tmp/ccBau7gc.s:1130   .text:0000000000000396 .LBE19
     /tmp/ccBau7gc.s:2473   .debug_loclists:000000000000006b .LLST22
     /tmp/ccBau7gc.s:2470   .debug_loclists:0000000000000069 .LVUS22
     /tmp/ccBau7gc.s:1139   .text:000000000000039c .LBB20
     /tmp/ccBau7gc.s:1154   .text:00000000000003a2 .LBE20
     /tmp/ccBau7gc.s:2488   .debug_loclists:000000000000007a .LLST23
     /tmp/ccBau7gc.s:2485   .debug_loclists:0000000000000078 .LVUS23
     /tmp/ccBau7gc.s:1162   .text:00000000000003a8 .LBB21
     /tmp/ccBau7gc.s:1177   .text:00000000000003ae .LBE21
     /tmp/ccBau7gc.s:2503   .debug_loclists:0000000000000089 .LLST24
     /tmp/ccBau7gc.s:2500   .debug_loclists:0000000000000087 .LVUS24
     /tmp/ccBau7gc.s:1198   .text:00000000000003c0 .LBB22
     /tmp/ccBau7gc.s:1212   .text:00000000000003c6 .LBE22
     /tmp/ccBau7gc.s:2518   .debug_loclists:0000000000000098 .LLST25
     /tmp/ccBau7gc.s:2515   .debug_loclists:0000000000000096 .LVUS25
     /tmp/ccBau7gc.s:1220   .text:00000000000003cc .LBB23
     /tmp/ccBau7gc.s:1235   .text:00000000000003d2 .LBE23
     /tmp/ccBau7gc.s:2533   .debug_loclists:00000000000000a7 .LLST26
     /tmp/ccBau7gc.s:2530   .debug_loclists:00000000000000a5 .LVUS26
     /tmp/ccBau7gc.s:1244   .text:00000000000003d8 .LBB24
     /tmp/ccBau7gc.s:1259   .text:00000000000003de .LBE24
     /tmp/ccBau7gc.s:2548   .debug_loclists:00000000000000b6 .LLST27
     /tmp/ccBau7gc.s:2545   .debug_loclists:00000000000000b4 .LVUS27
     /tmp/ccBau7gc.s:1267   .text:00000000000003e4 .LBB25
     /tmp/ccBau7gc.s:1282   .text:00000000000003ea .LBE25
     /tmp/ccBau7gc.s:2563   .debug_loclists:00000000000000c5 .LLST28
     /tmp/ccBau7gc.s:2560   .debug_loclists:00000000000000c3 .LVUS28
     /tmp/ccBau7gc.s:273    .text:0000000000000128 .LFB3
     /tmp/ccBau7gc.s:962    .text:000000000000031c .LFE3
     /tmp/ccBau7gc.s:2584   .debug_loclists:00000000000000da .LLST1
     /tmp/ccBau7gc.s:2575   .debug_loclists:00000000000000d2 .LVUS1
     /tmp/ccBau7gc.s:2623   .debug_loclists:0000000000000107 .LLST2
     /tmp/ccBau7gc.s:2618   .debug_loclists:0000000000000103 .LVUS2
     /tmp/ccBau7gc.s:399    .text:0000000000000190 .LBB2
     /tmp/ccBau7gc.s:413    .text:0000000000000196 .LBE2
     /tmp/ccBau7gc.s:2640   .debug_loclists:000000000000011a .LLST3
     /tmp/ccBau7gc.s:2637   .debug_loclists:0000000000000118 .LVUS3
     /tmp/ccBau7gc.s:421    .text:000000000000019c .LBB3
     /tmp/ccBau7gc.s:436    .text:00000000000001a2 .LBE3
     /tmp/ccBau7gc.s:2655   .debug_loclists:0000000000000129 .LLST4
     /tmp/ccBau7gc.s:2652   .debug_loclists:0000000000000127 .LVUS4
     /tmp/ccBau7gc.s:445    .text:00000000000001a8 .LBB4
     /tmp/ccBau7gc.s:460    .text:00000000000001ae .LBE4
     /tmp/ccBau7gc.s:2670   .debug_loclists:0000000000000138 .LLST5
     /tmp/ccBau7gc.s:2667   .debug_loclists:0000000000000136 .LVUS5
     /tmp/ccBau7gc.s:468    .text:00000000000001b4 .LBB5
     /tmp/ccBau7gc.s:483    .text:00000000000001ba .LBE5
     /tmp/ccBau7gc.s:2685   .debug_loclists:0000000000000147 .LLST6
     /tmp/ccBau7gc.s:2682   .debug_loclists:0000000000000145 .LVUS6
     /tmp/ccBau7gc.s:507    .text:00000000000001d2 .LBB6
     /tmp/ccBau7gc.s:521    .text:00000000000001d8 .LBE6
     /tmp/ccBau7gc.s:2700   .debug_loclists:0000000000000156 .LLST7
     /tmp/ccBau7gc.s:2697   .debug_loclists:0000000000000154 .LVUS7
     /tmp/ccBau7gc.s:529    .text:00000000000001de .LBB7
     /tmp/ccBau7gc.s:544    .text:00000000000001e4 .LBE7
     /tmp/ccBau7gc.s:2715   .debug_loclists:0000000000000165 .LLST8
     /tmp/ccBau7gc.s:2712   .debug_loclists:0000000000000163 .LVUS8
GAS LISTING /tmp/ccBau7gc.s 			page 69


     /tmp/ccBau7gc.s:553    .text:00000000000001ea .LBB8
     /tmp/ccBau7gc.s:568    .text:00000000000001f0 .LBE8
     /tmp/ccBau7gc.s:2730   .debug_loclists:0000000000000174 .LLST9
     /tmp/ccBau7gc.s:2727   .debug_loclists:0000000000000172 .LVUS9
     /tmp/ccBau7gc.s:576    .text:00000000000001f6 .LBB9
     /tmp/ccBau7gc.s:591    .text:00000000000001fc .LBE9
     /tmp/ccBau7gc.s:2745   .debug_loclists:0000000000000183 .LLST10
     /tmp/ccBau7gc.s:2742   .debug_loclists:0000000000000181 .LVUS10
     /tmp/ccBau7gc.s:738    .text:000000000000028a .LBB10
     /tmp/ccBau7gc.s:752    .text:0000000000000290 .LBE10
     /tmp/ccBau7gc.s:2760   .debug_loclists:0000000000000192 .LLST11
     /tmp/ccBau7gc.s:2757   .debug_loclists:0000000000000190 .LVUS11
     /tmp/ccBau7gc.s:760    .text:0000000000000296 .LBB11
     /tmp/ccBau7gc.s:775    .text:000000000000029c .LBE11
     /tmp/ccBau7gc.s:2775   .debug_loclists:00000000000001a1 .LLST12
     /tmp/ccBau7gc.s:2772   .debug_loclists:000000000000019f .LVUS12
     /tmp/ccBau7gc.s:784    .text:00000000000002a2 .LBB12
     /tmp/ccBau7gc.s:799    .text:00000000000002a8 .LBE12
     /tmp/ccBau7gc.s:2790   .debug_loclists:00000000000001b0 .LLST13
     /tmp/ccBau7gc.s:2787   .debug_loclists:00000000000001ae .LVUS13
     /tmp/ccBau7gc.s:807    .text:00000000000002ae .LBB13
     /tmp/ccBau7gc.s:822    .text:00000000000002b4 .LBE13
     /tmp/ccBau7gc.s:2805   .debug_loclists:00000000000001bf .LLST14
     /tmp/ccBau7gc.s:2802   .debug_loclists:00000000000001bd .LVUS14
     /tmp/ccBau7gc.s:846    .text:00000000000002cc .LBB14
     /tmp/ccBau7gc.s:860    .text:00000000000002d2 .LBE14
     /tmp/ccBau7gc.s:2820   .debug_loclists:00000000000001ce .LLST15
     /tmp/ccBau7gc.s:2817   .debug_loclists:00000000000001cc .LVUS15
     /tmp/ccBau7gc.s:868    .text:00000000000002d8 .LBB15
     /tmp/ccBau7gc.s:883    .text:00000000000002de .LBE15
     /tmp/ccBau7gc.s:2835   .debug_loclists:00000000000001dd .LLST16
     /tmp/ccBau7gc.s:2832   .debug_loclists:00000000000001db .LVUS16
     /tmp/ccBau7gc.s:892    .text:00000000000002e4 .LBB16
     /tmp/ccBau7gc.s:907    .text:00000000000002ea .LBE16
     /tmp/ccBau7gc.s:2850   .debug_loclists:00000000000001ec .LLST17
     /tmp/ccBau7gc.s:2847   .debug_loclists:00000000000001ea .LVUS17
     /tmp/ccBau7gc.s:915    .text:00000000000002f0 .LBB17
     /tmp/ccBau7gc.s:930    .text:00000000000002f6 .LBE17
     /tmp/ccBau7gc.s:2865   .debug_loclists:00000000000001fb .LLST18
     /tmp/ccBau7gc.s:2862   .debug_loclists:00000000000001f9 .LVUS18
     /tmp/ccBau7gc.s:50     .text:0000000000000018 .LFB2
     /tmp/ccBau7gc.s:268    .text:0000000000000128 .LFE2
     /tmp/ccBau7gc.s:2882   .debug_loclists:000000000000020c .LLST0
     /tmp/ccBau7gc.s:2877   .debug_loclists:0000000000000208 .LVUS0
     /tmp/ccBau7gc.s:14     .text:0000000000000000 .LFB1
     /tmp/ccBau7gc.s:44     .text:0000000000000018 .LFE1
     /tmp/ccBau7gc.s:42     .text:0000000000000018 .LVL0
     /tmp/ccBau7gc.s:1336   .debug_info:0000000000000000 .Ldebug_info0

UNDEFINED SYMBOLS
init_display_controller
bg1_1
bg1_2
bg1_3
__do_copy_data
