GAS LISTING /tmp/ccgw1eT1.s 			page 1


   1               		.file	"lcd.c"
   2               	__SP_H__ = 0x3e
   3               	__SP_L__ = 0x3d
   4               	__SREG__ = 0x3f
   5               	__tmp_reg__ = 0
   6               	__zero_reg__ = 1
   7               		.stabs	"/home/kaicho/Southampton/sotond5/sotond5/liblcd/",100,0,2,.Ltext0
   8               		.stabs	"lcd.c",100,0,2,.Ltext0
   9               		.text
  10               	.Ltext0:
  11               		.stabs	"gcc2_compiled.",60,0,0,0
  12               		.stabs	"pwr_kw:F(0,1)=(0,1)",36,0,65,pwr_kw
  13               		.stabs	"uint8_t:t(0,2)=(0,3)=@s8;r(0,3);0;255;",128,0,126,0
  14               		.stabs	"uint16_t:t(0,4)=(0,5)=r(0,5);0;0177777;",128,0,128,0
  15               		.stabs	"uint32_t:t(0,6)=(0,7)=@s32;r(0,7);0;037777777777;",128,0,130,0
  16               		.stabs	"void:t(0,1)",128,0,0,0
  17               		.stabs	"unsigned char:t(0,3)",128,0,0,0
  18               		.stabs	"unsigned int:t(0,5)",128,0,0,0
  19               		.stabs	"long unsigned int:t(0,7)",128,0,0,0
  20               		.stabs	"digit:P(0,2)",64,0,65,24
  21               	.global	pwr_kw
  22               		.type	pwr_kw, @function
  23               	pwr_kw:
   1:lcd.c         **** /*  Author: kaicho (ys6g21)
   2:lcd.c         ****  */
   3:lcd.c         **** #include <avr/io.h>
   4:lcd.c         **** #include "ili934x.h"
   5:lcd.c         **** #include "graphics.h"
   6:lcd.c         **** #include "fonts.h"
   7:lcd.c         **** #include "lcd.h"
   8:lcd.c         **** #include <stdbool.h>
   9:lcd.c         **** #define __ELPM_word_classic__(addr)     \
  10:lcd.c         **** (__extension__({                        \
  11:lcd.c         ****     uint32_t __addr32 = (uint32_t)(addr); \
  12:lcd.c         ****     uint16_t __result;                  \
  13:lcd.c         ****     __asm__ __volatile__                \
  14:lcd.c         ****     (                                   \
  15:lcd.c         ****         "out %2, %C1"   "\n\t"          \
  16:lcd.c         ****         "mov r31, %B1"  "\n\t"          \
  17:lcd.c         ****         "mov r30, %A1"  "\n\t"          \
  18:lcd.c         ****         "elpm"          "\n\t"          \
  19:lcd.c         ****         "mov %A0, r0"   "\n\t"          \
  20:lcd.c         ****         "in r0, %2"     "\n\t"          \
  21:lcd.c         ****         "adiw r30, 1"   "\n\t"          \
  22:lcd.c         ****         "adc r0, __zero_reg__" "\n\t"   \
  23:lcd.c         ****         "out %2, r0"    "\n\t"          \
  24:lcd.c         ****         "elpm"          "\n\t"          \
  25:lcd.c         ****         "mov %B0, r0"   "\n\t"          \
  26:lcd.c         ****         : "=r" (__result)               \
  27:lcd.c         ****         : "r" (__addr32),               \
  28:lcd.c         ****           "I" (_SFR_IO_ADDR(RAMPZ))     \
  29:lcd.c         ****         : "r0", "r30", "r31"            \
  30:lcd.c         ****     );                                  \
  31:lcd.c         ****     __result;                           \
  32:lcd.c         **** }))
  33:lcd.c         **** #define __ELPM_word(addr)   __ELPM_word_classic__(addr)
  34:lcd.c         **** #define pgm_read_word_far(address_long)  __ELPM_word((uint32_t)(address_long))
GAS LISTING /tmp/ccgw1eT1.s 			page 2


  35:lcd.c         **** #define RAMPZ _SFR_IO8(0x3B)
  36:lcd.c         **** #define pgm_get_far_address(var)                          \
  37:lcd.c         **** ({                                                    \
  38:lcd.c         **** 	uint_farptr_t tmp;                                \
  39:lcd.c         ****                                                       \
  40:lcd.c         **** 	__asm__ __volatile__(                             \
  41:lcd.c         ****                                                       \
  42:lcd.c         **** 			"ldi	%A0, lo8(%1)"           "\n\t"    \
  43:lcd.c         **** 			"ldi	%B0, hi8(%1)"           "\n\t"    \
  44:lcd.c         **** 			"ldi	%C0, hh8(%1)"           "\n\t"    \
  45:lcd.c         **** 			"clr	%D0"                    "\n\t"    \
  46:lcd.c         **** 		:                                             \
  47:lcd.c         **** 			"=d" (tmp)                                \
  48:lcd.c         **** 		:                                             \
  49:lcd.c         **** 			"p"  (&(var))                             \
  50:lcd.c         **** 	);                                                \
  51:lcd.c         **** 	tmp;                                              \
  52:lcd.c         **** })
  53:lcd.c         **** #include "pgmspace.h"
  54:lcd.c         **** //  Dammit AVR why dont you include standard library functions.
  55:lcd.c         **** //  The 1284P supports LPM and ELPM but its not in iom1284p.h ;(
  56:lcd.c         **** 
  57:lcd.c         **** 
  58:lcd.c         **** //  Three Digits, digit 1 = kW
  59:lcd.c         **** //  Digit 2 = 100s of W
  60:lcd.c         **** //  Digit 3 = 10s of W
  61:lcd.c         **** //  Digit 1 Anchor (19, 102)
  62:lcd.c         **** //  Digit 2 Anchor (55, 102)
  63:lcd.c         **** //  Digit 3 Anchor (80, 102)  (Multiply by 2 for display)
  64:lcd.c         **** //  Each Digit is 21 x 37, Digit texture is 370 tall, starting at 9.
  65:lcd.c         **** void pwr_kw(uint8_t digit){
  24               		.stabn	68,0,65,.LM0-.LFBB1
  25               	.LM0:
  26               	.LFBB1:
  27 0000 8F92      		push r8
  28 0002 9F92      		push r9
  29 0004 AF92      		push r10
  30 0006 BF92      		push r11
  31 0008 CF92      		push r12
  32 000a DF92      		push r13
  33 000c EF92      		push r14
  34 000e FF92      		push r15
  35 0010 0F93      		push r16
  36 0012 1F93      		push r17
  37 0014 CF93      		push r28
  38 0016 DF93      		push r29
  39               	/* prologue: function */
  40               	/* frame size = 0 */
  41               	/* stack size = 12 */
  42               	.L__stack_usage = 12
  43               	.LBB2:
  66:lcd.c         **** 	if(digit >= 3)
  67:lcd.c         **** 		digit = 2;
  68:lcd.c         **** 	uint16_t x, y;
  69:lcd.c         **** 	uint32_t address = pgm_get_far_address(digit1);
  44               		.stabn	68,0,69,.LM1-.LFBB1
  45               	.LM1:
GAS LISTING /tmp/ccgw1eT1.s 			page 3


  46               	/* #APP */
  47               	 ;  69 "lcd.c" 1
  48 0018 40E0      		ldi	r20, lo8(digit1)
  49 001a 50E0      		ldi	r21, hi8(digit1)
  50 001c 60E0      		ldi	r22, hh8(digit1)
  51 001e 7727      		clr	r23
  52               		
  53               	 ;  0 "" 2
  54               	/* #NOAPP */
  55               	.LBE2:
  70:lcd.c         **** 	//  pgm_get_far_address will throw a r26 undefined error unless the value has been assigned at com
  71:lcd.c         **** 	write_cmd(COLUMN_ADDRESS_SET);
  56               		.stabn	68,0,71,.LM2-.LFBB1
  57               	.LM2:
  58 0020 4498      		cbi 0x8,4
  59 0022 9AE2      		ldi r25,lo8(42)
  60 0024 95B9      		out 0x5,r25
  61 0026 4398      		cbi 0x8,3
  62 0028 439A      		sbi 0x8,3
  63 002a 449A      		sbi 0x8,4
  72:lcd.c         **** 	write_data16(38);
  64               		.stabn	68,0,72,.LM3-.LFBB1
  65               	.LM3:
  66 002c 15B8      		out 0x5,__zero_reg__
  67 002e 4398      		cbi 0x8,3
  68 0030 439A      		sbi 0x8,3
  69 0032 96E2      		ldi r25,lo8(38)
  70 0034 95B9      		out 0x5,r25
  71 0036 4398      		cbi 0x8,3
  72 0038 439A      		sbi 0x8,3
  73:lcd.c         **** 	write_data16(79);
  73               		.stabn	68,0,73,.LM4-.LFBB1
  74               	.LM4:
  75 003a 15B8      		out 0x5,__zero_reg__
  76 003c 4398      		cbi 0x8,3
  77 003e 439A      		sbi 0x8,3
  78 0040 9FE4      		ldi r25,lo8(79)
  79 0042 95B9      		out 0x5,r25
  80 0044 4398      		cbi 0x8,3
  81 0046 439A      		sbi 0x8,3
  74:lcd.c         **** 	write_cmd(PAGE_ADDRESS_SET);
  82               		.stabn	68,0,74,.LM5-.LFBB1
  83               	.LM5:
  84 0048 4498      		cbi 0x8,4
  85 004a 9BE2      		ldi r25,lo8(43)
  86 004c 95B9      		out 0x5,r25
  87 004e 4398      		cbi 0x8,3
  88 0050 439A      		sbi 0x8,3
  89 0052 449A      		sbi 0x8,4
  75:lcd.c         **** 	write_data16(204);
  90               		.stabn	68,0,75,.LM6-.LFBB1
  91               	.LM6:
  92 0054 15B8      		out 0x5,__zero_reg__
  93 0056 4398      		cbi 0x8,3
  94 0058 439A      		sbi 0x8,3
  95 005a 9CEC      		ldi r25,lo8(-52)
  96 005c 95B9      		out 0x5,r25
GAS LISTING /tmp/ccgw1eT1.s 			page 4


  97 005e 4398      		cbi 0x8,3
  98 0060 439A      		sbi 0x8,3
  76:lcd.c         **** 	write_data16(277);
  99               		.stabn	68,0,76,.LM7-.LFBB1
 100               	.LM7:
 101 0062 91E0      		ldi r25,lo8(1)
 102 0064 95B9      		out 0x5,r25
 103 0066 4398      		cbi 0x8,3
 104 0068 439A      		sbi 0x8,3
 105 006a 95E1      		ldi r25,lo8(21)
 106 006c 95B9      		out 0x5,r25
 107 006e 4398      		cbi 0x8,3
 108 0070 439A      		sbi 0x8,3
  77:lcd.c         **** 	write_cmd(MEMORY_WRITE);
 109               		.stabn	68,0,77,.LM8-.LFBB1
 110               	.LM8:
 111 0072 4498      		cbi 0x8,4
 112 0074 9CE2      		ldi r25,lo8(44)
 113 0076 95B9      		out 0x5,r25
 114 0078 4398      		cbi 0x8,3
 115 007a 439A      		sbi 0x8,3
 116 007c 449A      		sbi 0x8,4
 117               	.LBB3:
  78:lcd.c         **** 	for(y = 0; y <= 36; y++){
  79:lcd.c         **** 		for(x = 0; x <= 20; x++){
  80:lcd.c         **** 			write_data16( pgm_read_word_far(address + 2*((2-digit)*777+x+y*21)));
 118               		.stabn	68,0,80,.LM9-.LFBB1
 119               	.LM9:
 120 007e 8330      		cpi r24,lo8(3)
 121 0080 00F0      		brlo .L2
 122 0082 82E0      		ldi r24,lo8(2)
 123               	.L2:
 124 0084 22E0      		ldi r18,lo8(2)
 125 0086 30E0      		ldi r19,0
 126 0088 6901      		movw r12,r18
 127 008a C81A      		sub r12,r24
 128 008c D108      		sbc r13,__zero_reg__
 129 008e E9E0      		ldi r30,lo8(9)
 130 0090 F3E0      		ldi r31,lo8(3)
 131 0092 CE9E      		mul r12,r30
 132 0094 9001      		movw r18,r0
 133 0096 CF9E      		mul r12,r31
 134 0098 300D      		add r19,r0
 135 009a DE9E      		mul r13,r30
 136 009c 300D      		add r19,r0
 137 009e 1124      		clr r1
 138 00a0 8901      		movw r16,r18
 139 00a2 075F      		subi r16,-9
 140 00a4 1C4F      		sbci r17,-4
 141               	.L3:
 142 00a6 C901      		movw r24,r18
 143 00a8 880F      		lsl r24
 144 00aa 991F      		rol r25
 145 00ac 6A01      		movw r12,r20
 146 00ae 7B01      		movw r14,r22
 147 00b0 C80E      		add r12,r24
 148 00b2 D91E      		adc r13,r25
GAS LISTING /tmp/ccgw1eT1.s 			page 5


 149 00b4 E11C      		adc r14,__zero_reg__
 150 00b6 F11C      		adc r15,__zero_reg__
 151 00b8 D701      		movw r26,r14
 152 00ba C601      		movw r24,r12
 153               	.LBE3:
  65:lcd.c         **** 	if(digit >= 3)
 154               		.stabn	68,0,65,.LM10-.LFBB1
 155               	.LM10:
 156 00bc 4601      		movw r8,r12
 157 00be 5701      		movw r10,r14
 158 00c0 C5E1      		ldi r28,lo8(21)
 159 00c2 D0E0      		ldi r29,0
 160               	.L4:
 161               	.LBB4:
 162               		.stabn	68,0,80,.LM11-.LFBB1
 163               	.LM11:
 164               	/* #APP */
 165               	 ;  80 "lcd.c" 1
 166 00c4 ABBE      		out 59, r10
 167 00c6 F92D      		mov r31, r9
 168 00c8 E82D      		mov r30, r8
 169 00ca D895      		elpm
 170 00cc E02C      		mov r14, r0
 171 00ce 0BB6      		in r0, 59
 172 00d0 3196      		adiw r30, 1
 173 00d2 011C      		adc r0, __zero_reg__
 174 00d4 0BBE      		out 59, r0
 175 00d6 D895      		elpm
 176 00d8 F02C      		mov r15, r0
 177               		
 178               	 ;  0 "" 2
 179               	/* #NOAPP */
 180               	.LBE4:
 181 00da F5B8      		out 0x5,r15
 182 00dc 4398      		cbi 0x8,3
 183 00de 439A      		sbi 0x8,3
 184               	.LBB5:
 185               	/* #APP */
 186               	 ;  80 "lcd.c" 1
 187 00e0 ABBE      		out 59, r10
 188 00e2 F92D      		mov r31, r9
 189 00e4 E82D      		mov r30, r8
 190 00e6 D895      		elpm
 191 00e8 E02C      		mov r14, r0
 192 00ea 0BB6      		in r0, 59
 193 00ec 3196      		adiw r30, 1
 194 00ee 011C      		adc r0, __zero_reg__
 195 00f0 0BBE      		out 59, r0
 196 00f2 D895      		elpm
 197 00f4 F02C      		mov r15, r0
 198               		
 199               	 ;  0 "" 2
 200               	/* #NOAPP */
 201               	.LBE5:
 202 00f6 E5B8      		out 0x5,r14
 203 00f8 4398      		cbi 0x8,3
 204 00fa 439A      		sbi 0x8,3
GAS LISTING /tmp/ccgw1eT1.s 			page 6


 205               	.LBB6:
  81:lcd.c         **** 			write_data16( pgm_read_word_far(address + 2*((2-digit)*777+x+y*21)));
 206               		.stabn	68,0,81,.LM12-.LFBB1
 207               	.LM12:
 208               	/* #APP */
 209               	 ;  81 "lcd.c" 1
 210 00fc ABBE      		out 59, r10
 211 00fe F92D      		mov r31, r9
 212 0100 E82D      		mov r30, r8
 213 0102 D895      		elpm
 214 0104 E02C      		mov r14, r0
 215 0106 0BB6      		in r0, 59
 216 0108 3196      		adiw r30, 1
 217 010a 011C      		adc r0, __zero_reg__
 218 010c 0BBE      		out 59, r0
 219 010e D895      		elpm
 220 0110 F02C      		mov r15, r0
 221               		
 222               	 ;  0 "" 2
 223               	/* #NOAPP */
 224               	.LBE6:
 225 0112 F5B8      		out 0x5,r15
 226 0114 4398      		cbi 0x8,3
 227 0116 439A      		sbi 0x8,3
 228               	.LBB7:
 229               	/* #APP */
 230               	 ;  81 "lcd.c" 1
 231 0118 ABBE      		out 59, r10
 232 011a F92D      		mov r31, r9
 233 011c E82D      		mov r30, r8
 234 011e D895      		elpm
 235 0120 E02C      		mov r14, r0
 236 0122 0BB6      		in r0, 59
 237 0124 3196      		adiw r30, 1
 238 0126 011C      		adc r0, __zero_reg__
 239 0128 0BBE      		out 59, r0
 240 012a D895      		elpm
 241 012c F02C      		mov r15, r0
 242               		
 243               	 ;  0 "" 2
 244               	/* #NOAPP */
 245               	.LBE7:
 246 012e E5B8      		out 0x5,r14
 247 0130 4398      		cbi 0x8,3
 248 0132 439A      		sbi 0x8,3
  79:lcd.c         **** 			write_data16( pgm_read_word_far(address + 2*((2-digit)*777+x+y*21)));
 249               		.stabn	68,0,79,.LM13-.LFBB1
 250               	.LM13:
 251 0134 2197      		sbiw r28,1
 252 0136 E2E0      		ldi r30,2
 253 0138 8E0E      		add r8,r30
 254 013a 911C      		adc r9,__zero_reg__
 255 013c A11C      		adc r10,__zero_reg__
 256 013e B11C      		adc r11,__zero_reg__
 257 0140 2097      		sbiw r28,0
 258 0142 01F0      		breq .+2
 259 0144 00C0      		rjmp .L4
GAS LISTING /tmp/ccgw1eT1.s 			page 7


 260 0146 C5E1      		ldi r28,lo8(21)
 261 0148 D0E0      		ldi r29,0
 262               	.L5:
 263               	.LBB8:
  82:lcd.c         **** 		}
  83:lcd.c         **** 		for(x = 0; x <= 20; x++){
  84:lcd.c         **** 			write_data16( pgm_read_word_far(address + 2*((2-digit)*777+x+y*21)));
 264               		.stabn	68,0,84,.LM14-.LFBB1
 265               	.LM14:
 266               	/* #APP */
 267               	 ;  84 "lcd.c" 1
 268 014a ABBF      		out 59, r26
 269 014c F92F      		mov r31, r25
 270 014e E82F      		mov r30, r24
 271 0150 D895      		elpm
 272 0152 E02C      		mov r14, r0
 273 0154 0BB6      		in r0, 59
 274 0156 3196      		adiw r30, 1
 275 0158 011C      		adc r0, __zero_reg__
 276 015a 0BBE      		out 59, r0
 277 015c D895      		elpm
 278 015e F02C      		mov r15, r0
 279               		
 280               	 ;  0 "" 2
 281               	/* #NOAPP */
 282               	.LBE8:
 283 0160 F5B8      		out 0x5,r15
 284 0162 4398      		cbi 0x8,3
 285 0164 439A      		sbi 0x8,3
 286               	.LBB9:
 287               	/* #APP */
 288               	 ;  84 "lcd.c" 1
 289 0166 ABBF      		out 59, r26
 290 0168 F92F      		mov r31, r25
 291 016a E82F      		mov r30, r24
 292 016c D895      		elpm
 293 016e E02C      		mov r14, r0
 294 0170 0BB6      		in r0, 59
 295 0172 3196      		adiw r30, 1
 296 0174 011C      		adc r0, __zero_reg__
 297 0176 0BBE      		out 59, r0
 298 0178 D895      		elpm
 299 017a F02C      		mov r15, r0
 300               		
 301               	 ;  0 "" 2
 302               	/* #NOAPP */
 303               	.LBE9:
 304 017c E5B8      		out 0x5,r14
 305 017e 4398      		cbi 0x8,3
 306 0180 439A      		sbi 0x8,3
 307               	.LBB10:
  85:lcd.c         **** 			write_data16( pgm_read_word_far(address + 2*((2-digit)*777+x+y*21)));
 308               		.stabn	68,0,85,.LM15-.LFBB1
 309               	.LM15:
 310               	/* #APP */
 311               	 ;  85 "lcd.c" 1
 312 0182 ABBF      		out 59, r26
GAS LISTING /tmp/ccgw1eT1.s 			page 8


 313 0184 F92F      		mov r31, r25
 314 0186 E82F      		mov r30, r24
 315 0188 D895      		elpm
 316 018a E02C      		mov r14, r0
 317 018c 0BB6      		in r0, 59
 318 018e 3196      		adiw r30, 1
 319 0190 011C      		adc r0, __zero_reg__
 320 0192 0BBE      		out 59, r0
 321 0194 D895      		elpm
 322 0196 F02C      		mov r15, r0
 323               		
 324               	 ;  0 "" 2
 325               	/* #NOAPP */
 326               	.LBE10:
 327 0198 F5B8      		out 0x5,r15
 328 019a 4398      		cbi 0x8,3
 329 019c 439A      		sbi 0x8,3
 330               	.LBB11:
 331               	/* #APP */
 332               	 ;  85 "lcd.c" 1
 333 019e ABBF      		out 59, r26
 334 01a0 F92F      		mov r31, r25
 335 01a2 E82F      		mov r30, r24
 336 01a4 D895      		elpm
 337 01a6 E02C      		mov r14, r0
 338 01a8 0BB6      		in r0, 59
 339 01aa 3196      		adiw r30, 1
 340 01ac 011C      		adc r0, __zero_reg__
 341 01ae 0BBE      		out 59, r0
 342 01b0 D895      		elpm
 343 01b2 F02C      		mov r15, r0
 344               		
 345               	 ;  0 "" 2
 346               	/* #NOAPP */
 347               	.LBE11:
 348 01b4 E5B8      		out 0x5,r14
 349 01b6 4398      		cbi 0x8,3
 350 01b8 439A      		sbi 0x8,3
  83:lcd.c         **** 			write_data16( pgm_read_word_far(address + 2*((2-digit)*777+x+y*21)));
 351               		.stabn	68,0,83,.LM16-.LFBB1
 352               	.LM16:
 353 01ba 2197      		sbiw r28,1
 354 01bc 0296      		adiw r24,2
 355 01be A11D      		adc r26,__zero_reg__
 356 01c0 B11D      		adc r27,__zero_reg__
 357 01c2 2097      		sbiw r28,0
 358 01c4 01F0      		breq .+2
 359 01c6 00C0      		rjmp .L5
  78:lcd.c         **** 		for(x = 0; x <= 20; x++){
 360               		.stabn	68,0,78,.LM17-.LFBB1
 361               	.LM17:
 362 01c8 2B5E      		subi r18,-21
 363 01ca 3F4F      		sbci r19,-1
 364 01cc 2017      		cp r18,r16
 365 01ce 3107      		cpc r19,r17
 366 01d0 01F0      		breq .+2
 367 01d2 00C0      		rjmp .L3
GAS LISTING /tmp/ccgw1eT1.s 			page 9


 368               	/* epilogue start */
  86:lcd.c         **** 		}
  87:lcd.c         **** 	}
  88:lcd.c         **** }
 369               		.stabn	68,0,88,.LM18-.LFBB1
 370               	.LM18:
 371 01d4 DF91      		pop r29
 372 01d6 CF91      		pop r28
 373 01d8 1F91      		pop r17
 374 01da 0F91      		pop r16
 375 01dc FF90      		pop r15
 376 01de EF90      		pop r14
 377 01e0 DF90      		pop r13
 378 01e2 CF90      		pop r12
 379 01e4 BF90      		pop r11
 380 01e6 AF90      		pop r10
 381 01e8 9F90      		pop r9
 382 01ea 8F90      		pop r8
 383 01ec 0895      		ret
 384               		.size	pwr_kw, .-pwr_kw
 385               		.stabs	"tmp:r(0,8)=(0,6)",64,0,69,20
 386               		.stabs	"uint_farptr_t:t(0,8)",128,0,81,0
 387               		.stabn	192,0,0,.LBB2-.LFBB1
 388               		.stabn	224,0,0,.LBE2-.LFBB1
 389               	.Lscope1:
 390               		.stabs	"",36,0,0,.Lscope1-.LFBB1
 391               		.stabs	"pwr_100:F(0,1)",36,0,90,pwr_100
 392               		.stabs	"digit:P(0,2)",64,0,90,24
 393               	.global	pwr_100
 394               		.type	pwr_100, @function
 395               	pwr_100:
  89:lcd.c         **** 
  90:lcd.c         **** void pwr_100(uint8_t digit){
 396               		.stabn	68,0,90,.LM19-.LFBB2
 397               	.LM19:
 398               	.LFBB2:
 399 01ee 8F92      		push r8
 400 01f0 9F92      		push r9
 401 01f2 AF92      		push r10
 402 01f4 BF92      		push r11
 403 01f6 CF92      		push r12
 404 01f8 DF92      		push r13
 405 01fa EF92      		push r14
 406 01fc FF92      		push r15
 407 01fe 0F93      		push r16
 408 0200 1F93      		push r17
 409 0202 CF93      		push r28
 410 0204 DF93      		push r29
 411               	/* prologue: function */
 412               	/* frame size = 0 */
 413               	/* stack size = 12 */
 414               	.L__stack_usage = 12
 415               	.LBB12:
  91:lcd.c         **** 	if(digit >= 10)
  92:lcd.c         **** 		digit = 9;
  93:lcd.c         **** 	uint16_t x, y;
  94:lcd.c         **** 	uint32_t address = pgm_get_far_address(digit2);
GAS LISTING /tmp/ccgw1eT1.s 			page 10


 416               		.stabn	68,0,94,.LM20-.LFBB2
 417               	.LM20:
 418               	/* #APP */
 419               	 ;  94 "lcd.c" 1
 420 0206 40E0      		ldi	r20, lo8(digit2)
 421 0208 50E0      		ldi	r21, hi8(digit2)
 422 020a 60E0      		ldi	r22, hh8(digit2)
 423 020c 7727      		clr	r23
 424               		
 425               	 ;  0 "" 2
 426               	/* #NOAPP */
 427               	.LBE12:
  95:lcd.c         **** 	write_cmd(COLUMN_ADDRESS_SET);
 428               		.stabn	68,0,95,.LM21-.LFBB2
 429               	.LM21:
 430 020e 4498      		cbi 0x8,4
 431 0210 9AE2      		ldi r25,lo8(42)
 432 0212 95B9      		out 0x5,r25
 433 0214 4398      		cbi 0x8,3
 434 0216 439A      		sbi 0x8,3
 435 0218 449A      		sbi 0x8,4
  96:lcd.c         **** 	write_data16(110);
 436               		.stabn	68,0,96,.LM22-.LFBB2
 437               	.LM22:
 438 021a 15B8      		out 0x5,__zero_reg__
 439 021c 4398      		cbi 0x8,3
 440 021e 439A      		sbi 0x8,3
 441 0220 9EE6      		ldi r25,lo8(110)
 442 0222 95B9      		out 0x5,r25
 443 0224 4398      		cbi 0x8,3
 444 0226 439A      		sbi 0x8,3
  97:lcd.c         **** 	write_data16(151);
 445               		.stabn	68,0,97,.LM23-.LFBB2
 446               	.LM23:
 447 0228 15B8      		out 0x5,__zero_reg__
 448 022a 4398      		cbi 0x8,3
 449 022c 439A      		sbi 0x8,3
 450 022e 97E9      		ldi r25,lo8(-105)
 451 0230 95B9      		out 0x5,r25
 452 0232 4398      		cbi 0x8,3
 453 0234 439A      		sbi 0x8,3
  98:lcd.c         **** 	write_cmd(PAGE_ADDRESS_SET);
 454               		.stabn	68,0,98,.LM24-.LFBB2
 455               	.LM24:
 456 0236 4498      		cbi 0x8,4
 457 0238 9BE2      		ldi r25,lo8(43)
 458 023a 95B9      		out 0x5,r25
 459 023c 4398      		cbi 0x8,3
 460 023e 439A      		sbi 0x8,3
 461 0240 449A      		sbi 0x8,4
  99:lcd.c         **** 	write_data16(204);
 462               		.stabn	68,0,99,.LM25-.LFBB2
 463               	.LM25:
 464 0242 15B8      		out 0x5,__zero_reg__
 465 0244 4398      		cbi 0x8,3
 466 0246 439A      		sbi 0x8,3
 467 0248 9CEC      		ldi r25,lo8(-52)
GAS LISTING /tmp/ccgw1eT1.s 			page 11


 468 024a 95B9      		out 0x5,r25
 469 024c 4398      		cbi 0x8,3
 470 024e 439A      		sbi 0x8,3
 100:lcd.c         **** 	write_data16(277);
 471               		.stabn	68,0,100,.LM26-.LFBB2
 472               	.LM26:
 473 0250 91E0      		ldi r25,lo8(1)
 474 0252 95B9      		out 0x5,r25
 475 0254 4398      		cbi 0x8,3
 476 0256 439A      		sbi 0x8,3
 477 0258 95E1      		ldi r25,lo8(21)
 478 025a 95B9      		out 0x5,r25
 479 025c 4398      		cbi 0x8,3
 480 025e 439A      		sbi 0x8,3
 101:lcd.c         **** 	write_cmd(MEMORY_WRITE);
 481               		.stabn	68,0,101,.LM27-.LFBB2
 482               	.LM27:
 483 0260 4498      		cbi 0x8,4
 484 0262 9CE2      		ldi r25,lo8(44)
 485 0264 95B9      		out 0x5,r25
 486 0266 4398      		cbi 0x8,3
 487 0268 439A      		sbi 0x8,3
 488 026a 449A      		sbi 0x8,4
 489               	.LBB13:
 102:lcd.c         **** 	for(y = 0; y <= 36; y++){
 103:lcd.c         **** 		for(x = 0; x <= 20; x++){
 104:lcd.c         **** 			write_data16( pgm_read_word_far(address + 2*((9-digit)*777+x+y*21)));
 490               		.stabn	68,0,104,.LM28-.LFBB2
 491               	.LM28:
 492 026c 8A30      		cpi r24,lo8(10)
 493 026e 00F0      		brlo .L10
 494 0270 89E0      		ldi r24,lo8(9)
 495               	.L10:
 496 0272 29E0      		ldi r18,lo8(9)
 497 0274 30E0      		ldi r19,0
 498 0276 6901      		movw r12,r18
 499 0278 C81A      		sub r12,r24
 500 027a D108      		sbc r13,__zero_reg__
 501 027c E9E0      		ldi r30,lo8(9)
 502 027e F3E0      		ldi r31,lo8(3)
 503 0280 CE9E      		mul r12,r30
 504 0282 9001      		movw r18,r0
 505 0284 CF9E      		mul r12,r31
 506 0286 300D      		add r19,r0
 507 0288 DE9E      		mul r13,r30
 508 028a 300D      		add r19,r0
 509 028c 1124      		clr r1
 510 028e 8901      		movw r16,r18
 511 0290 075F      		subi r16,-9
 512 0292 1C4F      		sbci r17,-4
 513               	.L11:
 514 0294 C901      		movw r24,r18
 515 0296 880F      		lsl r24
 516 0298 991F      		rol r25
 517 029a 6A01      		movw r12,r20
 518 029c 7B01      		movw r14,r22
 519 029e C80E      		add r12,r24
GAS LISTING /tmp/ccgw1eT1.s 			page 12


 520 02a0 D91E      		adc r13,r25
 521 02a2 E11C      		adc r14,__zero_reg__
 522 02a4 F11C      		adc r15,__zero_reg__
 523 02a6 D701      		movw r26,r14
 524 02a8 C601      		movw r24,r12
 525               	.LBE13:
  90:lcd.c         **** 	if(digit >= 10)
 526               		.stabn	68,0,90,.LM29-.LFBB2
 527               	.LM29:
 528 02aa 4601      		movw r8,r12
 529 02ac 5701      		movw r10,r14
 530 02ae C5E1      		ldi r28,lo8(21)
 531 02b0 D0E0      		ldi r29,0
 532               	.L12:
 533               	.LBB14:
 534               		.stabn	68,0,104,.LM30-.LFBB2
 535               	.LM30:
 536               	/* #APP */
 537               	 ;  104 "lcd.c" 1
 538 02b2 ABBE      		out 59, r10
 539 02b4 F92D      		mov r31, r9
 540 02b6 E82D      		mov r30, r8
 541 02b8 D895      		elpm
 542 02ba E02C      		mov r14, r0
 543 02bc 0BB6      		in r0, 59
 544 02be 3196      		adiw r30, 1
 545 02c0 011C      		adc r0, __zero_reg__
 546 02c2 0BBE      		out 59, r0
 547 02c4 D895      		elpm
 548 02c6 F02C      		mov r15, r0
 549               		
 550               	 ;  0 "" 2
 551               	/* #NOAPP */
 552               	.LBE14:
 553 02c8 F5B8      		out 0x5,r15
 554 02ca 4398      		cbi 0x8,3
 555 02cc 439A      		sbi 0x8,3
 556               	.LBB15:
 557               	/* #APP */
 558               	 ;  104 "lcd.c" 1
 559 02ce ABBE      		out 59, r10
 560 02d0 F92D      		mov r31, r9
 561 02d2 E82D      		mov r30, r8
 562 02d4 D895      		elpm
 563 02d6 E02C      		mov r14, r0
 564 02d8 0BB6      		in r0, 59
 565 02da 3196      		adiw r30, 1
 566 02dc 011C      		adc r0, __zero_reg__
 567 02de 0BBE      		out 59, r0
 568 02e0 D895      		elpm
 569 02e2 F02C      		mov r15, r0
 570               		
 571               	 ;  0 "" 2
 572               	/* #NOAPP */
 573               	.LBE15:
 574 02e4 E5B8      		out 0x5,r14
 575 02e6 4398      		cbi 0x8,3
GAS LISTING /tmp/ccgw1eT1.s 			page 13


 576 02e8 439A      		sbi 0x8,3
 577               	.LBB16:
 105:lcd.c         **** 			write_data16( pgm_read_word_far(address + 2*((9-digit)*777+x+y*21)));
 578               		.stabn	68,0,105,.LM31-.LFBB2
 579               	.LM31:
 580               	/* #APP */
 581               	 ;  105 "lcd.c" 1
 582 02ea ABBE      		out 59, r10
 583 02ec F92D      		mov r31, r9
 584 02ee E82D      		mov r30, r8
 585 02f0 D895      		elpm
 586 02f2 E02C      		mov r14, r0
 587 02f4 0BB6      		in r0, 59
 588 02f6 3196      		adiw r30, 1
 589 02f8 011C      		adc r0, __zero_reg__
 590 02fa 0BBE      		out 59, r0
 591 02fc D895      		elpm
 592 02fe F02C      		mov r15, r0
 593               		
 594               	 ;  0 "" 2
 595               	/* #NOAPP */
 596               	.LBE16:
 597 0300 F5B8      		out 0x5,r15
 598 0302 4398      		cbi 0x8,3
 599 0304 439A      		sbi 0x8,3
 600               	.LBB17:
 601               	/* #APP */
 602               	 ;  105 "lcd.c" 1
 603 0306 ABBE      		out 59, r10
 604 0308 F92D      		mov r31, r9
 605 030a E82D      		mov r30, r8
 606 030c D895      		elpm
 607 030e E02C      		mov r14, r0
 608 0310 0BB6      		in r0, 59
 609 0312 3196      		adiw r30, 1
 610 0314 011C      		adc r0, __zero_reg__
 611 0316 0BBE      		out 59, r0
 612 0318 D895      		elpm
 613 031a F02C      		mov r15, r0
 614               		
 615               	 ;  0 "" 2
 616               	/* #NOAPP */
 617               	.LBE17:
 618 031c E5B8      		out 0x5,r14
 619 031e 4398      		cbi 0x8,3
 620 0320 439A      		sbi 0x8,3
 103:lcd.c         **** 			write_data16( pgm_read_word_far(address + 2*((9-digit)*777+x+y*21)));
 621               		.stabn	68,0,103,.LM32-.LFBB2
 622               	.LM32:
 623 0322 2197      		sbiw r28,1
 624 0324 E2E0      		ldi r30,2
 625 0326 8E0E      		add r8,r30
 626 0328 911C      		adc r9,__zero_reg__
 627 032a A11C      		adc r10,__zero_reg__
 628 032c B11C      		adc r11,__zero_reg__
 629 032e 2097      		sbiw r28,0
 630 0330 01F0      		breq .+2
GAS LISTING /tmp/ccgw1eT1.s 			page 14


 631 0332 00C0      		rjmp .L12
 632 0334 C5E1      		ldi r28,lo8(21)
 633 0336 D0E0      		ldi r29,0
 634               	.L13:
 635               	.LBB18:
 106:lcd.c         **** 		}
 107:lcd.c         **** 		for(x = 0; x <= 20; x++){
 108:lcd.c         **** 			write_data16( pgm_read_word_far(address + 2*((9-digit)*777+x+y*21)));
 636               		.stabn	68,0,108,.LM33-.LFBB2
 637               	.LM33:
 638               	/* #APP */
 639               	 ;  108 "lcd.c" 1
 640 0338 ABBF      		out 59, r26
 641 033a F92F      		mov r31, r25
 642 033c E82F      		mov r30, r24
 643 033e D895      		elpm
 644 0340 E02C      		mov r14, r0
 645 0342 0BB6      		in r0, 59
 646 0344 3196      		adiw r30, 1
 647 0346 011C      		adc r0, __zero_reg__
 648 0348 0BBE      		out 59, r0
 649 034a D895      		elpm
 650 034c F02C      		mov r15, r0
 651               		
 652               	 ;  0 "" 2
 653               	/* #NOAPP */
 654               	.LBE18:
 655 034e F5B8      		out 0x5,r15
 656 0350 4398      		cbi 0x8,3
 657 0352 439A      		sbi 0x8,3
 658               	.LBB19:
 659               	/* #APP */
 660               	 ;  108 "lcd.c" 1
 661 0354 ABBF      		out 59, r26
 662 0356 F92F      		mov r31, r25
 663 0358 E82F      		mov r30, r24
 664 035a D895      		elpm
 665 035c E02C      		mov r14, r0
 666 035e 0BB6      		in r0, 59
 667 0360 3196      		adiw r30, 1
 668 0362 011C      		adc r0, __zero_reg__
 669 0364 0BBE      		out 59, r0
 670 0366 D895      		elpm
 671 0368 F02C      		mov r15, r0
 672               		
 673               	 ;  0 "" 2
 674               	/* #NOAPP */
 675               	.LBE19:
 676 036a E5B8      		out 0x5,r14
 677 036c 4398      		cbi 0x8,3
 678 036e 439A      		sbi 0x8,3
 679               	.LBB20:
 109:lcd.c         **** 			write_data16( pgm_read_word_far(address + 2*((9-digit)*777+x+y*21)));
 680               		.stabn	68,0,109,.LM34-.LFBB2
 681               	.LM34:
 682               	/* #APP */
 683               	 ;  109 "lcd.c" 1
GAS LISTING /tmp/ccgw1eT1.s 			page 15


 684 0370 ABBF      		out 59, r26
 685 0372 F92F      		mov r31, r25
 686 0374 E82F      		mov r30, r24
 687 0376 D895      		elpm
 688 0378 E02C      		mov r14, r0
 689 037a 0BB6      		in r0, 59
 690 037c 3196      		adiw r30, 1
 691 037e 011C      		adc r0, __zero_reg__
 692 0380 0BBE      		out 59, r0
 693 0382 D895      		elpm
 694 0384 F02C      		mov r15, r0
 695               		
 696               	 ;  0 "" 2
 697               	/* #NOAPP */
 698               	.LBE20:
 699 0386 F5B8      		out 0x5,r15
 700 0388 4398      		cbi 0x8,3
 701 038a 439A      		sbi 0x8,3
 702               	.LBB21:
 703               	/* #APP */
 704               	 ;  109 "lcd.c" 1
 705 038c ABBF      		out 59, r26
 706 038e F92F      		mov r31, r25
 707 0390 E82F      		mov r30, r24
 708 0392 D895      		elpm
 709 0394 E02C      		mov r14, r0
 710 0396 0BB6      		in r0, 59
 711 0398 3196      		adiw r30, 1
 712 039a 011C      		adc r0, __zero_reg__
 713 039c 0BBE      		out 59, r0
 714 039e D895      		elpm
 715 03a0 F02C      		mov r15, r0
 716               		
 717               	 ;  0 "" 2
 718               	/* #NOAPP */
 719               	.LBE21:
 720 03a2 E5B8      		out 0x5,r14
 721 03a4 4398      		cbi 0x8,3
 722 03a6 439A      		sbi 0x8,3
 107:lcd.c         **** 			write_data16( pgm_read_word_far(address + 2*((9-digit)*777+x+y*21)));
 723               		.stabn	68,0,107,.LM35-.LFBB2
 724               	.LM35:
 725 03a8 2197      		sbiw r28,1
 726 03aa 0296      		adiw r24,2
 727 03ac A11D      		adc r26,__zero_reg__
 728 03ae B11D      		adc r27,__zero_reg__
 729 03b0 2097      		sbiw r28,0
 730 03b2 01F0      		breq .+2
 731 03b4 00C0      		rjmp .L13
 102:lcd.c         **** 		for(x = 0; x <= 20; x++){
 732               		.stabn	68,0,102,.LM36-.LFBB2
 733               	.LM36:
 734 03b6 2B5E      		subi r18,-21
 735 03b8 3F4F      		sbci r19,-1
 736 03ba 2017      		cp r18,r16
 737 03bc 3107      		cpc r19,r17
 738 03be 01F0      		breq .+2
GAS LISTING /tmp/ccgw1eT1.s 			page 16


 739 03c0 00C0      		rjmp .L11
 740               	/* epilogue start */
 110:lcd.c         **** 		}
 111:lcd.c         **** 	}
 112:lcd.c         **** }
 741               		.stabn	68,0,112,.LM37-.LFBB2
 742               	.LM37:
 743 03c2 DF91      		pop r29
 744 03c4 CF91      		pop r28
 745 03c6 1F91      		pop r17
 746 03c8 0F91      		pop r16
 747 03ca FF90      		pop r15
 748 03cc EF90      		pop r14
 749 03ce DF90      		pop r13
 750 03d0 CF90      		pop r12
 751 03d2 BF90      		pop r11
 752 03d4 AF90      		pop r10
 753 03d6 9F90      		pop r9
 754 03d8 8F90      		pop r8
 755 03da 0895      		ret
 756               		.size	pwr_100, .-pwr_100
 757               		.stabs	"tmp:r(0,8)",64,0,94,20
 758               		.stabn	192,0,0,.LBB12-.LFBB2
 759               		.stabn	224,0,0,.LBE12-.LFBB2
 760               	.Lscope2:
 761               		.stabs	"",36,0,0,.Lscope2-.LFBB2
 762               		.stabs	"pwr_10:F(0,1)",36,0,114,pwr_10
 763               		.stabs	"digit:P(0,2)",64,0,114,24
 764               	.global	pwr_10
 765               		.type	pwr_10, @function
 766               	pwr_10:
 113:lcd.c         **** 
 114:lcd.c         **** void pwr_10(uint8_t digit){
 767               		.stabn	68,0,114,.LM38-.LFBB3
 768               	.LM38:
 769               	.LFBB3:
 770 03dc 8F92      		push r8
 771 03de 9F92      		push r9
 772 03e0 AF92      		push r10
 773 03e2 BF92      		push r11
 774 03e4 CF92      		push r12
 775 03e6 DF92      		push r13
 776 03e8 EF92      		push r14
 777 03ea FF92      		push r15
 778 03ec 0F93      		push r16
 779 03ee 1F93      		push r17
 780 03f0 CF93      		push r28
 781 03f2 DF93      		push r29
 782               	/* prologue: function */
 783               	/* frame size = 0 */
 784               	/* stack size = 12 */
 785               	.L__stack_usage = 12
 786               	.LBB22:
 115:lcd.c         **** 	if(digit >= 10)
 116:lcd.c         **** 		digit = 9;
 117:lcd.c         **** 	uint16_t x, y;
 118:lcd.c         **** 	uint32_t address = pgm_get_far_address(d3);
GAS LISTING /tmp/ccgw1eT1.s 			page 17


 787               		.stabn	68,0,118,.LM39-.LFBB3
 788               	.LM39:
 789               	/* #APP */
 790               	 ;  118 "lcd.c" 1
 791 03f4 40E0      		ldi	r20, lo8(d3)
 792 03f6 50E0      		ldi	r21, hi8(d3)
 793 03f8 60E0      		ldi	r22, hh8(d3)
 794 03fa 7727      		clr	r23
 795               		
 796               	 ;  0 "" 2
 797               	/* #NOAPP */
 798               	.LBE22:
 119:lcd.c         **** 	write_cmd(COLUMN_ADDRESS_SET);
 799               		.stabn	68,0,119,.LM40-.LFBB3
 800               	.LM40:
 801 03fc 4498      		cbi 0x8,4
 802 03fe 9AE2      		ldi r25,lo8(42)
 803 0400 95B9      		out 0x5,r25
 804 0402 4398      		cbi 0x8,3
 805 0404 439A      		sbi 0x8,3
 806 0406 449A      		sbi 0x8,4
 120:lcd.c         **** 	write_data16(160);
 807               		.stabn	68,0,120,.LM41-.LFBB3
 808               	.LM41:
 809 0408 15B8      		out 0x5,__zero_reg__
 810 040a 4398      		cbi 0x8,3
 811 040c 439A      		sbi 0x8,3
 812 040e 90EA      		ldi r25,lo8(-96)
 813 0410 95B9      		out 0x5,r25
 814 0412 4398      		cbi 0x8,3
 815 0414 439A      		sbi 0x8,3
 121:lcd.c         **** 	write_data16(201);
 816               		.stabn	68,0,121,.LM42-.LFBB3
 817               	.LM42:
 818 0416 15B8      		out 0x5,__zero_reg__
 819 0418 4398      		cbi 0x8,3
 820 041a 439A      		sbi 0x8,3
 821 041c 99EC      		ldi r25,lo8(-55)
 822 041e 95B9      		out 0x5,r25
 823 0420 4398      		cbi 0x8,3
 824 0422 439A      		sbi 0x8,3
 122:lcd.c         **** 	write_cmd(PAGE_ADDRESS_SET);
 825               		.stabn	68,0,122,.LM43-.LFBB3
 826               	.LM43:
 827 0424 4498      		cbi 0x8,4
 828 0426 9BE2      		ldi r25,lo8(43)
 829 0428 95B9      		out 0x5,r25
 830 042a 4398      		cbi 0x8,3
 831 042c 439A      		sbi 0x8,3
 832 042e 449A      		sbi 0x8,4
 123:lcd.c         **** 	write_data16(204);
 833               		.stabn	68,0,123,.LM44-.LFBB3
 834               	.LM44:
 835 0430 15B8      		out 0x5,__zero_reg__
 836 0432 4398      		cbi 0x8,3
 837 0434 439A      		sbi 0x8,3
 838 0436 9CEC      		ldi r25,lo8(-52)
GAS LISTING /tmp/ccgw1eT1.s 			page 18


 839 0438 95B9      		out 0x5,r25
 840 043a 4398      		cbi 0x8,3
 841 043c 439A      		sbi 0x8,3
 124:lcd.c         **** 	write_data16(277);
 842               		.stabn	68,0,124,.LM45-.LFBB3
 843               	.LM45:
 844 043e 91E0      		ldi r25,lo8(1)
 845 0440 95B9      		out 0x5,r25
 846 0442 4398      		cbi 0x8,3
 847 0444 439A      		sbi 0x8,3
 848 0446 95E1      		ldi r25,lo8(21)
 849 0448 95B9      		out 0x5,r25
 850 044a 4398      		cbi 0x8,3
 851 044c 439A      		sbi 0x8,3
 125:lcd.c         **** 	write_cmd(MEMORY_WRITE);
 852               		.stabn	68,0,125,.LM46-.LFBB3
 853               	.LM46:
 854 044e 4498      		cbi 0x8,4
 855 0450 9CE2      		ldi r25,lo8(44)
 856 0452 95B9      		out 0x5,r25
 857 0454 4398      		cbi 0x8,3
 858 0456 439A      		sbi 0x8,3
 859 0458 449A      		sbi 0x8,4
 860               	.LBB23:
 126:lcd.c         **** 	for(y = 0; y <= 36; y++){
 127:lcd.c         **** 		for(x = 0; x <= 20; x++){
 128:lcd.c         **** 			write_data16( pgm_read_word_far(address + 2*((9-digit)*777+x+y*21)));
 861               		.stabn	68,0,128,.LM47-.LFBB3
 862               	.LM47:
 863 045a 8A30      		cpi r24,lo8(10)
 864 045c 00F0      		brlo .L18
 865 045e 89E0      		ldi r24,lo8(9)
 866               	.L18:
 867 0460 29E0      		ldi r18,lo8(9)
 868 0462 30E0      		ldi r19,0
 869 0464 6901      		movw r12,r18
 870 0466 C81A      		sub r12,r24
 871 0468 D108      		sbc r13,__zero_reg__
 872 046a E9E0      		ldi r30,lo8(9)
 873 046c F3E0      		ldi r31,lo8(3)
 874 046e CE9E      		mul r12,r30
 875 0470 9001      		movw r18,r0
 876 0472 CF9E      		mul r12,r31
 877 0474 300D      		add r19,r0
 878 0476 DE9E      		mul r13,r30
 879 0478 300D      		add r19,r0
 880 047a 1124      		clr r1
 881 047c 8901      		movw r16,r18
 882 047e 075F      		subi r16,-9
 883 0480 1C4F      		sbci r17,-4
 884               	.L19:
 885 0482 C901      		movw r24,r18
 886 0484 880F      		lsl r24
 887 0486 991F      		rol r25
 888 0488 6A01      		movw r12,r20
 889 048a 7B01      		movw r14,r22
 890 048c C80E      		add r12,r24
GAS LISTING /tmp/ccgw1eT1.s 			page 19


 891 048e D91E      		adc r13,r25
 892 0490 E11C      		adc r14,__zero_reg__
 893 0492 F11C      		adc r15,__zero_reg__
 894 0494 D701      		movw r26,r14
 895 0496 C601      		movw r24,r12
 896               	.LBE23:
 114:lcd.c         **** 	if(digit >= 10)
 897               		.stabn	68,0,114,.LM48-.LFBB3
 898               	.LM48:
 899 0498 4601      		movw r8,r12
 900 049a 5701      		movw r10,r14
 901 049c C5E1      		ldi r28,lo8(21)
 902 049e D0E0      		ldi r29,0
 903               	.L20:
 904               	.LBB24:
 905               		.stabn	68,0,128,.LM49-.LFBB3
 906               	.LM49:
 907               	/* #APP */
 908               	 ;  128 "lcd.c" 1
 909 04a0 ABBE      		out 59, r10
 910 04a2 F92D      		mov r31, r9
 911 04a4 E82D      		mov r30, r8
 912 04a6 D895      		elpm
 913 04a8 E02C      		mov r14, r0
 914 04aa 0BB6      		in r0, 59
 915 04ac 3196      		adiw r30, 1
 916 04ae 011C      		adc r0, __zero_reg__
 917 04b0 0BBE      		out 59, r0
 918 04b2 D895      		elpm
 919 04b4 F02C      		mov r15, r0
 920               		
 921               	 ;  0 "" 2
 922               	/* #NOAPP */
 923               	.LBE24:
 924 04b6 F5B8      		out 0x5,r15
 925 04b8 4398      		cbi 0x8,3
 926 04ba 439A      		sbi 0x8,3
 927               	.LBB25:
 928               	/* #APP */
 929               	 ;  128 "lcd.c" 1
 930 04bc ABBE      		out 59, r10
 931 04be F92D      		mov r31, r9
 932 04c0 E82D      		mov r30, r8
 933 04c2 D895      		elpm
 934 04c4 E02C      		mov r14, r0
 935 04c6 0BB6      		in r0, 59
 936 04c8 3196      		adiw r30, 1
 937 04ca 011C      		adc r0, __zero_reg__
 938 04cc 0BBE      		out 59, r0
 939 04ce D895      		elpm
 940 04d0 F02C      		mov r15, r0
 941               		
 942               	 ;  0 "" 2
 943               	/* #NOAPP */
 944               	.LBE25:
 945 04d2 E5B8      		out 0x5,r14
 946 04d4 4398      		cbi 0x8,3
GAS LISTING /tmp/ccgw1eT1.s 			page 20


 947 04d6 439A      		sbi 0x8,3
 948               	.LBB26:
 129:lcd.c         **** 			write_data16( pgm_read_word_far(address + 2*((9-digit)*777+x+y*21)));
 949               		.stabn	68,0,129,.LM50-.LFBB3
 950               	.LM50:
 951               	/* #APP */
 952               	 ;  129 "lcd.c" 1
 953 04d8 ABBE      		out 59, r10
 954 04da F92D      		mov r31, r9
 955 04dc E82D      		mov r30, r8
 956 04de D895      		elpm
 957 04e0 E02C      		mov r14, r0
 958 04e2 0BB6      		in r0, 59
 959 04e4 3196      		adiw r30, 1
 960 04e6 011C      		adc r0, __zero_reg__
 961 04e8 0BBE      		out 59, r0
 962 04ea D895      		elpm
 963 04ec F02C      		mov r15, r0
 964               		
 965               	 ;  0 "" 2
 966               	/* #NOAPP */
 967               	.LBE26:
 968 04ee F5B8      		out 0x5,r15
 969 04f0 4398      		cbi 0x8,3
 970 04f2 439A      		sbi 0x8,3
 971               	.LBB27:
 972               	/* #APP */
 973               	 ;  129 "lcd.c" 1
 974 04f4 ABBE      		out 59, r10
 975 04f6 F92D      		mov r31, r9
 976 04f8 E82D      		mov r30, r8
 977 04fa D895      		elpm
 978 04fc E02C      		mov r14, r0
 979 04fe 0BB6      		in r0, 59
 980 0500 3196      		adiw r30, 1
 981 0502 011C      		adc r0, __zero_reg__
 982 0504 0BBE      		out 59, r0
 983 0506 D895      		elpm
 984 0508 F02C      		mov r15, r0
 985               		
 986               	 ;  0 "" 2
 987               	/* #NOAPP */
 988               	.LBE27:
 989 050a E5B8      		out 0x5,r14
 990 050c 4398      		cbi 0x8,3
 991 050e 439A      		sbi 0x8,3
 127:lcd.c         **** 			write_data16( pgm_read_word_far(address + 2*((9-digit)*777+x+y*21)));
 992               		.stabn	68,0,127,.LM51-.LFBB3
 993               	.LM51:
 994 0510 2197      		sbiw r28,1
 995 0512 E2E0      		ldi r30,2
 996 0514 8E0E      		add r8,r30
 997 0516 911C      		adc r9,__zero_reg__
 998 0518 A11C      		adc r10,__zero_reg__
 999 051a B11C      		adc r11,__zero_reg__
 1000 051c 2097      		sbiw r28,0
 1001 051e 01F0      		breq .+2
GAS LISTING /tmp/ccgw1eT1.s 			page 21


 1002 0520 00C0      		rjmp .L20
 1003 0522 C5E1      		ldi r28,lo8(21)
 1004 0524 D0E0      		ldi r29,0
 1005               	.L21:
 1006               	.LBB28:
 130:lcd.c         **** 		}
 131:lcd.c         **** 		for(x = 0; x <= 20; x++){
 132:lcd.c         **** 			write_data16( pgm_read_word_far(address + 2*((9-digit)*777+x+y*21)));
 1007               		.stabn	68,0,132,.LM52-.LFBB3
 1008               	.LM52:
 1009               	/* #APP */
 1010               	 ;  132 "lcd.c" 1
 1011 0526 ABBF      		out 59, r26
 1012 0528 F92F      		mov r31, r25
 1013 052a E82F      		mov r30, r24
 1014 052c D895      		elpm
 1015 052e E02C      		mov r14, r0
 1016 0530 0BB6      		in r0, 59
 1017 0532 3196      		adiw r30, 1
 1018 0534 011C      		adc r0, __zero_reg__
 1019 0536 0BBE      		out 59, r0
 1020 0538 D895      		elpm
 1021 053a F02C      		mov r15, r0
 1022               		
 1023               	 ;  0 "" 2
 1024               	/* #NOAPP */
 1025               	.LBE28:
 1026 053c F5B8      		out 0x5,r15
 1027 053e 4398      		cbi 0x8,3
 1028 0540 439A      		sbi 0x8,3
 1029               	.LBB29:
 1030               	/* #APP */
 1031               	 ;  132 "lcd.c" 1
 1032 0542 ABBF      		out 59, r26
 1033 0544 F92F      		mov r31, r25
 1034 0546 E82F      		mov r30, r24
 1035 0548 D895      		elpm
 1036 054a E02C      		mov r14, r0
 1037 054c 0BB6      		in r0, 59
 1038 054e 3196      		adiw r30, 1
 1039 0550 011C      		adc r0, __zero_reg__
 1040 0552 0BBE      		out 59, r0
 1041 0554 D895      		elpm
 1042 0556 F02C      		mov r15, r0
 1043               		
 1044               	 ;  0 "" 2
 1045               	/* #NOAPP */
 1046               	.LBE29:
 1047 0558 E5B8      		out 0x5,r14
 1048 055a 4398      		cbi 0x8,3
 1049 055c 439A      		sbi 0x8,3
 1050               	.LBB30:
 133:lcd.c         **** 			write_data16( pgm_read_word_far(address + 2*((9-digit)*777+x+y*21)));
 1051               		.stabn	68,0,133,.LM53-.LFBB3
 1052               	.LM53:
 1053               	/* #APP */
 1054               	 ;  133 "lcd.c" 1
GAS LISTING /tmp/ccgw1eT1.s 			page 22


 1055 055e ABBF      		out 59, r26
 1056 0560 F92F      		mov r31, r25
 1057 0562 E82F      		mov r30, r24
 1058 0564 D895      		elpm
 1059 0566 E02C      		mov r14, r0
 1060 0568 0BB6      		in r0, 59
 1061 056a 3196      		adiw r30, 1
 1062 056c 011C      		adc r0, __zero_reg__
 1063 056e 0BBE      		out 59, r0
 1064 0570 D895      		elpm
 1065 0572 F02C      		mov r15, r0
 1066               		
 1067               	 ;  0 "" 2
 1068               	/* #NOAPP */
 1069               	.LBE30:
 1070 0574 F5B8      		out 0x5,r15
 1071 0576 4398      		cbi 0x8,3
 1072 0578 439A      		sbi 0x8,3
 1073               	.LBB31:
 1074               	/* #APP */
 1075               	 ;  133 "lcd.c" 1
 1076 057a ABBF      		out 59, r26
 1077 057c F92F      		mov r31, r25
 1078 057e E82F      		mov r30, r24
 1079 0580 D895      		elpm
 1080 0582 E02C      		mov r14, r0
 1081 0584 0BB6      		in r0, 59
 1082 0586 3196      		adiw r30, 1
 1083 0588 011C      		adc r0, __zero_reg__
 1084 058a 0BBE      		out 59, r0
 1085 058c D895      		elpm
 1086 058e F02C      		mov r15, r0
 1087               		
 1088               	 ;  0 "" 2
 1089               	/* #NOAPP */
 1090               	.LBE31:
 1091 0590 E5B8      		out 0x5,r14
 1092 0592 4398      		cbi 0x8,3
 1093 0594 439A      		sbi 0x8,3
 131:lcd.c         **** 			write_data16( pgm_read_word_far(address + 2*((9-digit)*777+x+y*21)));
 1094               		.stabn	68,0,131,.LM54-.LFBB3
 1095               	.LM54:
 1096 0596 2197      		sbiw r28,1
 1097 0598 0296      		adiw r24,2
 1098 059a A11D      		adc r26,__zero_reg__
 1099 059c B11D      		adc r27,__zero_reg__
 1100 059e 2097      		sbiw r28,0
 1101 05a0 01F0      		breq .+2
 1102 05a2 00C0      		rjmp .L21
 126:lcd.c         **** 		for(x = 0; x <= 20; x++){
 1103               		.stabn	68,0,126,.LM55-.LFBB3
 1104               	.LM55:
 1105 05a4 2B5E      		subi r18,-21
 1106 05a6 3F4F      		sbci r19,-1
 1107 05a8 2017      		cp r18,r16
 1108 05aa 3107      		cpc r19,r17
 1109 05ac 01F0      		breq .+2
GAS LISTING /tmp/ccgw1eT1.s 			page 23


 1110 05ae 00C0      		rjmp .L19
 1111               	/* epilogue start */
 134:lcd.c         **** 		}
 135:lcd.c         **** 	}
 136:lcd.c         **** }
 1112               		.stabn	68,0,136,.LM56-.LFBB3
 1113               	.LM56:
 1114 05b0 DF91      		pop r29
 1115 05b2 CF91      		pop r28
 1116 05b4 1F91      		pop r17
 1117 05b6 0F91      		pop r16
 1118 05b8 FF90      		pop r15
 1119 05ba EF90      		pop r14
 1120 05bc DF90      		pop r13
 1121 05be CF90      		pop r12
 1122 05c0 BF90      		pop r11
 1123 05c2 AF90      		pop r10
 1124 05c4 9F90      		pop r9
 1125 05c6 8F90      		pop r8
 1126 05c8 0895      		ret
 1127               		.size	pwr_10, .-pwr_10
 1128               		.stabs	"tmp:r(0,8)",64,0,118,20
 1129               		.stabn	192,0,0,.LBB22-.LFBB3
 1130               		.stabn	224,0,0,.LBE22-.LFBB3
 1131               	.Lscope3:
 1132               		.stabs	"",36,0,0,.Lscope3-.LFBB3
 1133               		.stabs	"bat_pwr:F(0,1)",36,0,138,bat_pwr
 1134               		.stabs	"state:P(0,9)=@s8;-16;",64,0,138,24
 1135               		.stabs	"_Bool:t(0,9)",128,0,0,0
 1136               	.global	bat_pwr
 1137               		.type	bat_pwr, @function
 1138               	bat_pwr:
 137:lcd.c         **** 
 138:lcd.c         **** void bat_pwr(bool state){
 1139               		.stabn	68,0,138,.LM57-.LFBB4
 1140               	.LM57:
 1141               	.LFBB4:
 1142 05ca 0F93      		push r16
 1143 05cc 1F93      		push r17
 1144 05ce CF93      		push r28
 1145 05d0 DF93      		push r29
 1146               	/* prologue: function */
 1147               	/* frame size = 0 */
 1148               	/* stack size = 4 */
 1149               	.L__stack_usage = 4
 1150               	.LBB32:
 139:lcd.c         **** 	//  14px wide, 25px tall
 140:lcd.c         **** 	//  Anchoring to coordinate (106, 28)
 141:lcd.c         **** 	uint16_t x, y;
 142:lcd.c         **** 	uint32_t addresschr = pgm_get_far_address(BATCHR);
 1151               		.stabn	68,0,142,.LM58-.LFBB4
 1152               	.LM58:
 1153               	/* #APP */
 1154               	 ;  142 "lcd.c" 1
 1155 05d2 00E0      		ldi	r16, lo8(BATCHR)
 1156 05d4 10E0      		ldi	r17, hi8(BATCHR)
 1157 05d6 20E0      		ldi	r18, hh8(BATCHR)
GAS LISTING /tmp/ccgw1eT1.s 			page 24


 1158 05d8 3327      		clr	r19
 1159               		
 1160               	 ;  0 "" 2
 1161               	/* #NOAPP */
 1162               	.LBE32:
 1163               	.LBB33:
 143:lcd.c         **** 	uint32_t addressdrn = pgm_get_far_address(BATDRN);
 1164               		.stabn	68,0,143,.LM59-.LFBB4
 1165               	.LM59:
 1166               	/* #APP */
 1167               	 ;  143 "lcd.c" 1
 1168 05da 40E0      		ldi	r20, lo8(BATDRN)
 1169 05dc 50E0      		ldi	r21, hi8(BATDRN)
 1170 05de 60E0      		ldi	r22, hh8(BATDRN)
 1171 05e0 7727      		clr	r23
 1172               		
 1173               	 ;  0 "" 2
 1174               	/* #NOAPP */
 1175               	.LBE33:
 144:lcd.c         **** 	write_cmd(COLUMN_ADDRESS_SET);
 1176               		.stabn	68,0,144,.LM60-.LFBB4
 1177               	.LM60:
 1178 05e2 4498      		cbi 0x8,4
 1179 05e4 9AE2      		ldi r25,lo8(42)
 1180 05e6 95B9      		out 0x5,r25
 1181 05e8 4398      		cbi 0x8,3
 1182 05ea 439A      		sbi 0x8,3
 1183 05ec 449A      		sbi 0x8,4
 145:lcd.c         **** 	write_data16(106);
 1184               		.stabn	68,0,145,.LM61-.LFBB4
 1185               	.LM61:
 1186 05ee 15B8      		out 0x5,__zero_reg__
 1187 05f0 4398      		cbi 0x8,3
 1188 05f2 439A      		sbi 0x8,3
 1189 05f4 9AE6      		ldi r25,lo8(106)
 1190 05f6 95B9      		out 0x5,r25
 1191 05f8 4398      		cbi 0x8,3
 1192 05fa 439A      		sbi 0x8,3
 146:lcd.c         **** 	write_data16(133);
 1193               		.stabn	68,0,146,.LM62-.LFBB4
 1194               	.LM62:
 1195 05fc 15B8      		out 0x5,__zero_reg__
 1196 05fe 4398      		cbi 0x8,3
 1197 0600 439A      		sbi 0x8,3
 1198 0602 95E8      		ldi r25,lo8(-123)
 1199 0604 95B9      		out 0x5,r25
 1200 0606 4398      		cbi 0x8,3
 1201 0608 439A      		sbi 0x8,3
 147:lcd.c         **** 	write_cmd(PAGE_ADDRESS_SET);
 1202               		.stabn	68,0,147,.LM63-.LFBB4
 1203               	.LM63:
 1204 060a 4498      		cbi 0x8,4
 1205 060c 9BE2      		ldi r25,lo8(43)
 1206 060e 95B9      		out 0x5,r25
 1207 0610 4398      		cbi 0x8,3
 1208 0612 439A      		sbi 0x8,3
 1209 0614 449A      		sbi 0x8,4
GAS LISTING /tmp/ccgw1eT1.s 			page 25


 148:lcd.c         **** 	write_data16(28);
 1210               		.stabn	68,0,148,.LM64-.LFBB4
 1211               	.LM64:
 1212 0616 15B8      		out 0x5,__zero_reg__
 1213 0618 4398      		cbi 0x8,3
 1214 061a 439A      		sbi 0x8,3
 1215 061c 9CE1      		ldi r25,lo8(28)
 1216 061e 95B9      		out 0x5,r25
 1217 0620 4398      		cbi 0x8,3
 1218 0622 439A      		sbi 0x8,3
 149:lcd.c         **** 	write_data16(77);
 1219               		.stabn	68,0,149,.LM65-.LFBB4
 1220               	.LM65:
 1221 0624 15B8      		out 0x5,__zero_reg__
 1222 0626 4398      		cbi 0x8,3
 1223 0628 439A      		sbi 0x8,3
 1224 062a 9DE4      		ldi r25,lo8(77)
 1225 062c 95B9      		out 0x5,r25
 1226 062e 4398      		cbi 0x8,3
 1227 0630 439A      		sbi 0x8,3
 150:lcd.c         **** 	write_cmd(MEMORY_WRITE);
 1228               		.stabn	68,0,150,.LM66-.LFBB4
 1229               	.LM66:
 1230 0632 4498      		cbi 0x8,4
 1231 0634 9CE2      		ldi r25,lo8(44)
 1232 0636 95B9      		out 0x5,r25
 1233 0638 4398      		cbi 0x8,3
 1234 063a 439A      		sbi 0x8,3
 1235 063c 449A      		sbi 0x8,4
 151:lcd.c         **** 	if(state){
 1236               		.stabn	68,0,151,.LM67-.LFBB4
 1237               	.LM67:
 1238 063e 8111      		cpse r24,__zero_reg__
 1239 0640 00C0      		rjmp .L33
 1240 0642 30E0      		ldi r19,0
 1241 0644 20E0      		ldi r18,0
 1242               	.L27:
 1243 0646 DB01      		movw r26,r22
 1244 0648 CA01      		movw r24,r20
 1245 064a 0EE0      		ldi r16,lo8(14)
 1246 064c 10E0      		ldi r17,0
 1247               	.L31:
 1248               	.LBB34:
 152:lcd.c         **** 		for(y = 0; y <= 24; y++){
 153:lcd.c         **** 			for(x = 0; x <= 13; x++){
 154:lcd.c         **** 				write_data16(pgm_read_word_far(addresschr + 2*(x+y*14)));
 155:lcd.c         **** 				write_data16(pgm_read_word_far(addresschr + 2*(x+y*14)));
 156:lcd.c         **** 			}
 157:lcd.c         **** 			for(x = 0; x <= 13; x++){
 158:lcd.c         **** 				write_data16(pgm_read_word_far(addresschr + 2*(x+y*14)));
 159:lcd.c         **** 				write_data16(pgm_read_word_far(addresschr + 2*(x+y*14)));
 160:lcd.c         **** 			}
 161:lcd.c         **** 		}
 162:lcd.c         **** 	}
 163:lcd.c         **** 	else {
 164:lcd.c         **** 		for(y = 0; y <= 24; y++){
 165:lcd.c         **** 			for(x = 0; x <= 13; x++){
GAS LISTING /tmp/ccgw1eT1.s 			page 26


 166:lcd.c         **** 				write_data16(pgm_read_word_far(addressdrn + 2*(x+y*14)));
 1249               		.stabn	68,0,166,.LM68-.LFBB4
 1250               	.LM68:
 1251               	/* #APP */
 1252               	 ;  166 "lcd.c" 1
 1253 064e ABBF      		out 59, r26
 1254 0650 F92F      		mov r31, r25
 1255 0652 E82F      		mov r30, r24
 1256 0654 D895      		elpm
 1257 0656 C02D      		mov r28, r0
 1258 0658 0BB6      		in r0, 59
 1259 065a 3196      		adiw r30, 1
 1260 065c 011C      		adc r0, __zero_reg__
 1261 065e 0BBE      		out 59, r0
 1262 0660 D895      		elpm
 1263 0662 D02D      		mov r29, r0
 1264               		
 1265               	 ;  0 "" 2
 1266               	/* #NOAPP */
 1267               	.LBE34:
 1268 0664 D5B9      		out 0x5,r29
 1269 0666 4398      		cbi 0x8,3
 1270 0668 439A      		sbi 0x8,3
 1271               	.LBB35:
 1272               	/* #APP */
 1273               	 ;  166 "lcd.c" 1
 1274 066a ABBF      		out 59, r26
 1275 066c F92F      		mov r31, r25
 1276 066e E82F      		mov r30, r24
 1277 0670 D895      		elpm
 1278 0672 C02D      		mov r28, r0
 1279 0674 0BB6      		in r0, 59
 1280 0676 3196      		adiw r30, 1
 1281 0678 011C      		adc r0, __zero_reg__
 1282 067a 0BBE      		out 59, r0
 1283 067c D895      		elpm
 1284 067e D02D      		mov r29, r0
 1285               		
 1286               	 ;  0 "" 2
 1287               	/* #NOAPP */
 1288               	.LBE35:
 1289 0680 C5B9      		out 0x5,r28
 1290 0682 4398      		cbi 0x8,3
 1291 0684 439A      		sbi 0x8,3
 1292               	.LBB36:
 167:lcd.c         **** 				write_data16(pgm_read_word_far(addressdrn + 2*(x+y*14)));
 1293               		.stabn	68,0,167,.LM69-.LFBB4
 1294               	.LM69:
 1295               	/* #APP */
 1296               	 ;  167 "lcd.c" 1
 1297 0686 ABBF      		out 59, r26
 1298 0688 F92F      		mov r31, r25
 1299 068a E82F      		mov r30, r24
 1300 068c D895      		elpm
 1301 068e C02D      		mov r28, r0
 1302 0690 0BB6      		in r0, 59
 1303 0692 3196      		adiw r30, 1
GAS LISTING /tmp/ccgw1eT1.s 			page 27


 1304 0694 011C      		adc r0, __zero_reg__
 1305 0696 0BBE      		out 59, r0
 1306 0698 D895      		elpm
 1307 069a D02D      		mov r29, r0
 1308               		
 1309               	 ;  0 "" 2
 1310               	/* #NOAPP */
 1311               	.LBE36:
 1312 069c D5B9      		out 0x5,r29
 1313 069e 4398      		cbi 0x8,3
 1314 06a0 439A      		sbi 0x8,3
 1315               	.LBB37:
 1316               	/* #APP */
 1317               	 ;  167 "lcd.c" 1
 1318 06a2 ABBF      		out 59, r26
 1319 06a4 F92F      		mov r31, r25
 1320 06a6 E82F      		mov r30, r24
 1321 06a8 D895      		elpm
 1322 06aa C02D      		mov r28, r0
 1323 06ac 0BB6      		in r0, 59
 1324 06ae 3196      		adiw r30, 1
 1325 06b0 011C      		adc r0, __zero_reg__
 1326 06b2 0BBE      		out 59, r0
 1327 06b4 D895      		elpm
 1328 06b6 D02D      		mov r29, r0
 1329               		
 1330               	 ;  0 "" 2
 1331               	/* #NOAPP */
 1332               	.LBE37:
 1333 06b8 C5B9      		out 0x5,r28
 1334 06ba 4398      		cbi 0x8,3
 1335 06bc 439A      		sbi 0x8,3
 165:lcd.c         **** 				write_data16(pgm_read_word_far(addressdrn + 2*(x+y*14)));
 1336               		.stabn	68,0,165,.LM70-.LFBB4
 1337               	.LM70:
 1338 06be 0150      		subi r16,1
 1339 06c0 1109      		sbc r17,__zero_reg__
 1340 06c2 0296      		adiw r24,2
 1341 06c4 A11D      		adc r26,__zero_reg__
 1342 06c6 B11D      		adc r27,__zero_reg__
 1343 06c8 0115      		cp r16,__zero_reg__
 1344 06ca 1105      		cpc r17,__zero_reg__
 1345 06cc 01F0      		breq .+2
 1346 06ce 00C0      		rjmp .L31
 1347 06d0 DB01      		movw r26,r22
 1348 06d2 CA01      		movw r24,r20
 1349 06d4 0EE0      		ldi r16,lo8(14)
 1350 06d6 10E0      		ldi r17,0
 1351               	.L32:
 1352               	.LBB38:
 168:lcd.c         **** 			}
 169:lcd.c         **** 			for(x = 0; x <= 13; x++){
 170:lcd.c         **** 				write_data16(pgm_read_word_far(addressdrn + 2*(x+y*14)));
 1353               		.stabn	68,0,170,.LM71-.LFBB4
 1354               	.LM71:
 1355               	/* #APP */
 1356               	 ;  170 "lcd.c" 1
GAS LISTING /tmp/ccgw1eT1.s 			page 28


 1357 06d8 ABBF      		out 59, r26
 1358 06da F92F      		mov r31, r25
 1359 06dc E82F      		mov r30, r24
 1360 06de D895      		elpm
 1361 06e0 C02D      		mov r28, r0
 1362 06e2 0BB6      		in r0, 59
 1363 06e4 3196      		adiw r30, 1
 1364 06e6 011C      		adc r0, __zero_reg__
 1365 06e8 0BBE      		out 59, r0
 1366 06ea D895      		elpm
 1367 06ec D02D      		mov r29, r0
 1368               		
 1369               	 ;  0 "" 2
 1370               	/* #NOAPP */
 1371               	.LBE38:
 1372 06ee D5B9      		out 0x5,r29
 1373 06f0 4398      		cbi 0x8,3
 1374 06f2 439A      		sbi 0x8,3
 1375               	.LBB39:
 1376               	/* #APP */
 1377               	 ;  170 "lcd.c" 1
 1378 06f4 ABBF      		out 59, r26
 1379 06f6 F92F      		mov r31, r25
 1380 06f8 E82F      		mov r30, r24
 1381 06fa D895      		elpm
 1382 06fc C02D      		mov r28, r0
 1383 06fe 0BB6      		in r0, 59
 1384 0700 3196      		adiw r30, 1
 1385 0702 011C      		adc r0, __zero_reg__
 1386 0704 0BBE      		out 59, r0
 1387 0706 D895      		elpm
 1388 0708 D02D      		mov r29, r0
 1389               		
 1390               	 ;  0 "" 2
 1391               	/* #NOAPP */
 1392               	.LBE39:
 1393 070a C5B9      		out 0x5,r28
 1394 070c 4398      		cbi 0x8,3
 1395 070e 439A      		sbi 0x8,3
 1396               	.LBB40:
 171:lcd.c         **** 				write_data16(pgm_read_word_far(addressdrn + 2*(x+y*14)));
 1397               		.stabn	68,0,171,.LM72-.LFBB4
 1398               	.LM72:
 1399               	/* #APP */
 1400               	 ;  171 "lcd.c" 1
 1401 0710 ABBF      		out 59, r26
 1402 0712 F92F      		mov r31, r25
 1403 0714 E82F      		mov r30, r24
 1404 0716 D895      		elpm
 1405 0718 C02D      		mov r28, r0
 1406 071a 0BB6      		in r0, 59
 1407 071c 3196      		adiw r30, 1
 1408 071e 011C      		adc r0, __zero_reg__
 1409 0720 0BBE      		out 59, r0
 1410 0722 D895      		elpm
 1411 0724 D02D      		mov r29, r0
 1412               		
GAS LISTING /tmp/ccgw1eT1.s 			page 29


 1413               	 ;  0 "" 2
 1414               	/* #NOAPP */
 1415               	.LBE40:
 1416 0726 D5B9      		out 0x5,r29
 1417 0728 4398      		cbi 0x8,3
 1418 072a 439A      		sbi 0x8,3
 1419               	.LBB41:
 1420               	/* #APP */
 1421               	 ;  171 "lcd.c" 1
 1422 072c ABBF      		out 59, r26
 1423 072e F92F      		mov r31, r25
 1424 0730 E82F      		mov r30, r24
 1425 0732 D895      		elpm
 1426 0734 C02D      		mov r28, r0
 1427 0736 0BB6      		in r0, 59
 1428 0738 3196      		adiw r30, 1
 1429 073a 011C      		adc r0, __zero_reg__
 1430 073c 0BBE      		out 59, r0
 1431 073e D895      		elpm
 1432 0740 D02D      		mov r29, r0
 1433               		
 1434               	 ;  0 "" 2
 1435               	/* #NOAPP */
 1436               	.LBE41:
 1437 0742 C5B9      		out 0x5,r28
 1438 0744 4398      		cbi 0x8,3
 1439 0746 439A      		sbi 0x8,3
 169:lcd.c         **** 				write_data16(pgm_read_word_far(addressdrn + 2*(x+y*14)));
 1440               		.stabn	68,0,169,.LM73-.LFBB4
 1441               	.LM73:
 1442 0748 0150      		subi r16,1
 1443 074a 1109      		sbc r17,__zero_reg__
 1444 074c 0296      		adiw r24,2
 1445 074e A11D      		adc r26,__zero_reg__
 1446 0750 B11D      		adc r27,__zero_reg__
 1447 0752 0115      		cp r16,__zero_reg__
 1448 0754 1105      		cpc r17,__zero_reg__
 1449 0756 01F0      		breq .+2
 1450 0758 00C0      		rjmp .L32
 164:lcd.c         **** 			for(x = 0; x <= 13; x++){
 1451               		.stabn	68,0,164,.LM74-.LFBB4
 1452               	.LM74:
 1453 075a 445E      		subi r20,-28
 1454 075c 5F4F      		sbci r21,-1
 1455 075e 6F4F      		sbci r22,-1
 1456 0760 7F4F      		sbci r23,-1
 1457 0762 225F      		subi r18,-14
 1458 0764 3F4F      		sbci r19,-1
 1459 0766 2E35      		cpi r18,94
 1460 0768 81E0      		ldi r24,1
 1461 076a 3807      		cpc r19,r24
 1462 076c 01F0      		breq .+2
 1463 076e 00C0      		rjmp .L27
 1464 0770 00C0      		rjmp .L25
 1465               	.L33:
 1466 0772 50E0      		ldi r21,0
 1467 0774 40E0      		ldi r20,0
GAS LISTING /tmp/ccgw1eT1.s 			page 30


 1468               	.L26:
 138:lcd.c         **** 	//  14px wide, 25px tall
 1469               		.stabn	68,0,138,.LM75-.LFBB4
 1470               	.LM75:
 1471 0776 D901      		movw r26,r18
 1472 0778 C801      		movw r24,r16
 1473 077a 6EE0      		ldi r22,lo8(14)
 1474 077c 70E0      		ldi r23,0
 1475               	.L28:
 1476               	.LBB42:
 154:lcd.c         **** 				write_data16(pgm_read_word_far(addresschr + 2*(x+y*14)));
 1477               		.stabn	68,0,154,.LM76-.LFBB4
 1478               	.LM76:
 1479               	/* #APP */
 1480               	 ;  154 "lcd.c" 1
 1481 077e ABBF      		out 59, r26
 1482 0780 F92F      		mov r31, r25
 1483 0782 E82F      		mov r30, r24
 1484 0784 D895      		elpm
 1485 0786 C02D      		mov r28, r0
 1486 0788 0BB6      		in r0, 59
 1487 078a 3196      		adiw r30, 1
 1488 078c 011C      		adc r0, __zero_reg__
 1489 078e 0BBE      		out 59, r0
 1490 0790 D895      		elpm
 1491 0792 D02D      		mov r29, r0
 1492               		
 1493               	 ;  0 "" 2
 1494               	/* #NOAPP */
 1495               	.LBE42:
 1496 0794 D5B9      		out 0x5,r29
 1497 0796 4398      		cbi 0x8,3
 1498 0798 439A      		sbi 0x8,3
 1499               	.LBB43:
 1500               	/* #APP */
 1501               	 ;  154 "lcd.c" 1
 1502 079a ABBF      		out 59, r26
 1503 079c F92F      		mov r31, r25
 1504 079e E82F      		mov r30, r24
 1505 07a0 D895      		elpm
 1506 07a2 C02D      		mov r28, r0
 1507 07a4 0BB6      		in r0, 59
 1508 07a6 3196      		adiw r30, 1
 1509 07a8 011C      		adc r0, __zero_reg__
 1510 07aa 0BBE      		out 59, r0
 1511 07ac D895      		elpm
 1512 07ae D02D      		mov r29, r0
 1513               		
 1514               	 ;  0 "" 2
 1515               	/* #NOAPP */
 1516               	.LBE43:
 1517 07b0 C5B9      		out 0x5,r28
 1518 07b2 4398      		cbi 0x8,3
 1519 07b4 439A      		sbi 0x8,3
 1520               	.LBB44:
 155:lcd.c         **** 			}
 1521               		.stabn	68,0,155,.LM77-.LFBB4
GAS LISTING /tmp/ccgw1eT1.s 			page 31


 1522               	.LM77:
 1523               	/* #APP */
 1524               	 ;  155 "lcd.c" 1
 1525 07b6 ABBF      		out 59, r26
 1526 07b8 F92F      		mov r31, r25
 1527 07ba E82F      		mov r30, r24
 1528 07bc D895      		elpm
 1529 07be C02D      		mov r28, r0
 1530 07c0 0BB6      		in r0, 59
 1531 07c2 3196      		adiw r30, 1
 1532 07c4 011C      		adc r0, __zero_reg__
 1533 07c6 0BBE      		out 59, r0
 1534 07c8 D895      		elpm
 1535 07ca D02D      		mov r29, r0
 1536               		
 1537               	 ;  0 "" 2
 1538               	/* #NOAPP */
 1539               	.LBE44:
 1540 07cc D5B9      		out 0x5,r29
 1541 07ce 4398      		cbi 0x8,3
 1542 07d0 439A      		sbi 0x8,3
 1543               	.LBB45:
 1544               	/* #APP */
 1545               	 ;  155 "lcd.c" 1
 1546 07d2 ABBF      		out 59, r26
 1547 07d4 F92F      		mov r31, r25
 1548 07d6 E82F      		mov r30, r24
 1549 07d8 D895      		elpm
 1550 07da C02D      		mov r28, r0
 1551 07dc 0BB6      		in r0, 59
 1552 07de 3196      		adiw r30, 1
 1553 07e0 011C      		adc r0, __zero_reg__
 1554 07e2 0BBE      		out 59, r0
 1555 07e4 D895      		elpm
 1556 07e6 D02D      		mov r29, r0
 1557               		
 1558               	 ;  0 "" 2
 1559               	/* #NOAPP */
 1560               	.LBE45:
 1561 07e8 C5B9      		out 0x5,r28
 1562 07ea 4398      		cbi 0x8,3
 1563 07ec 439A      		sbi 0x8,3
 153:lcd.c         **** 				write_data16(pgm_read_word_far(addresschr + 2*(x+y*14)));
 1564               		.stabn	68,0,153,.LM78-.LFBB4
 1565               	.LM78:
 1566 07ee 6150      		subi r22,1
 1567 07f0 7109      		sbc r23,__zero_reg__
 1568 07f2 0296      		adiw r24,2
 1569 07f4 A11D      		adc r26,__zero_reg__
 1570 07f6 B11D      		adc r27,__zero_reg__
 1571 07f8 6115      		cp r22,__zero_reg__
 1572 07fa 7105      		cpc r23,__zero_reg__
 1573 07fc 01F0      		breq .+2
 1574 07fe 00C0      		rjmp .L28
 1575 0800 D901      		movw r26,r18
 1576 0802 C801      		movw r24,r16
 1577 0804 6EE0      		ldi r22,lo8(14)
GAS LISTING /tmp/ccgw1eT1.s 			page 32


 1578 0806 70E0      		ldi r23,0
 1579               	.L29:
 1580               	.LBB46:
 158:lcd.c         **** 				write_data16(pgm_read_word_far(addresschr + 2*(x+y*14)));
 1581               		.stabn	68,0,158,.LM79-.LFBB4
 1582               	.LM79:
 1583               	/* #APP */
 1584               	 ;  158 "lcd.c" 1
 1585 0808 ABBF      		out 59, r26
 1586 080a F92F      		mov r31, r25
 1587 080c E82F      		mov r30, r24
 1588 080e D895      		elpm
 1589 0810 C02D      		mov r28, r0
 1590 0812 0BB6      		in r0, 59
 1591 0814 3196      		adiw r30, 1
 1592 0816 011C      		adc r0, __zero_reg__
 1593 0818 0BBE      		out 59, r0
 1594 081a D895      		elpm
 1595 081c D02D      		mov r29, r0
 1596               		
 1597               	 ;  0 "" 2
 1598               	/* #NOAPP */
 1599               	.LBE46:
 1600 081e D5B9      		out 0x5,r29
 1601 0820 4398      		cbi 0x8,3
 1602 0822 439A      		sbi 0x8,3
 1603               	.LBB47:
 1604               	/* #APP */
 1605               	 ;  158 "lcd.c" 1
 1606 0824 ABBF      		out 59, r26
 1607 0826 F92F      		mov r31, r25
 1608 0828 E82F      		mov r30, r24
 1609 082a D895      		elpm
 1610 082c C02D      		mov r28, r0
 1611 082e 0BB6      		in r0, 59
 1612 0830 3196      		adiw r30, 1
 1613 0832 011C      		adc r0, __zero_reg__
 1614 0834 0BBE      		out 59, r0
 1615 0836 D895      		elpm
 1616 0838 D02D      		mov r29, r0
 1617               		
 1618               	 ;  0 "" 2
 1619               	/* #NOAPP */
 1620               	.LBE47:
 1621 083a C5B9      		out 0x5,r28
 1622 083c 4398      		cbi 0x8,3
 1623 083e 439A      		sbi 0x8,3
 1624               	.LBB48:
 159:lcd.c         **** 			}
 1625               		.stabn	68,0,159,.LM80-.LFBB4
 1626               	.LM80:
 1627               	/* #APP */
 1628               	 ;  159 "lcd.c" 1
 1629 0840 ABBF      		out 59, r26
 1630 0842 F92F      		mov r31, r25
 1631 0844 E82F      		mov r30, r24
 1632 0846 D895      		elpm
GAS LISTING /tmp/ccgw1eT1.s 			page 33


 1633 0848 C02D      		mov r28, r0
 1634 084a 0BB6      		in r0, 59
 1635 084c 3196      		adiw r30, 1
 1636 084e 011C      		adc r0, __zero_reg__
 1637 0850 0BBE      		out 59, r0
 1638 0852 D895      		elpm
 1639 0854 D02D      		mov r29, r0
 1640               		
 1641               	 ;  0 "" 2
 1642               	/* #NOAPP */
 1643               	.LBE48:
 1644 0856 D5B9      		out 0x5,r29
 1645 0858 4398      		cbi 0x8,3
 1646 085a 439A      		sbi 0x8,3
 1647               	.LBB49:
 1648               	/* #APP */
 1649               	 ;  159 "lcd.c" 1
 1650 085c ABBF      		out 59, r26
 1651 085e F92F      		mov r31, r25
 1652 0860 E82F      		mov r30, r24
 1653 0862 D895      		elpm
 1654 0864 C02D      		mov r28, r0
 1655 0866 0BB6      		in r0, 59
 1656 0868 3196      		adiw r30, 1
 1657 086a 011C      		adc r0, __zero_reg__
 1658 086c 0BBE      		out 59, r0
 1659 086e D895      		elpm
 1660 0870 D02D      		mov r29, r0
 1661               		
 1662               	 ;  0 "" 2
 1663               	/* #NOAPP */
 1664               	.LBE49:
 1665 0872 C5B9      		out 0x5,r28
 1666 0874 4398      		cbi 0x8,3
 1667 0876 439A      		sbi 0x8,3
 157:lcd.c         **** 				write_data16(pgm_read_word_far(addresschr + 2*(x+y*14)));
 1668               		.stabn	68,0,157,.LM81-.LFBB4
 1669               	.LM81:
 1670 0878 6150      		subi r22,1
 1671 087a 7109      		sbc r23,__zero_reg__
 1672 087c 0296      		adiw r24,2
 1673 087e A11D      		adc r26,__zero_reg__
 1674 0880 B11D      		adc r27,__zero_reg__
 1675 0882 6115      		cp r22,__zero_reg__
 1676 0884 7105      		cpc r23,__zero_reg__
 1677 0886 01F0      		breq .+2
 1678 0888 00C0      		rjmp .L29
 152:lcd.c         **** 			for(x = 0; x <= 13; x++){
 1679               		.stabn	68,0,152,.LM82-.LFBB4
 1680               	.LM82:
 1681 088a 045E      		subi r16,-28
 1682 088c 1F4F      		sbci r17,-1
 1683 088e 2F4F      		sbci r18,-1
 1684 0890 3F4F      		sbci r19,-1
 1685 0892 425F      		subi r20,-14
 1686 0894 5F4F      		sbci r21,-1
 1687 0896 4E35      		cpi r20,94
GAS LISTING /tmp/ccgw1eT1.s 			page 34


 1688 0898 81E0      		ldi r24,1
 1689 089a 5807      		cpc r21,r24
 1690 089c 01F0      		breq .+2
 1691 089e 00C0      		rjmp .L26
 1692               	.L25:
 1693               	/* epilogue start */
 172:lcd.c         **** 			}
 173:lcd.c         **** 		}
 174:lcd.c         **** 	}
 175:lcd.c         **** }
 1694               		.stabn	68,0,175,.LM83-.LFBB4
 1695               	.LM83:
 1696 08a0 DF91      		pop r29
 1697 08a2 CF91      		pop r28
 1698 08a4 1F91      		pop r17
 1699 08a6 0F91      		pop r16
 1700 08a8 0895      		ret
 1701               		.size	bat_pwr, .-bat_pwr
 1702               		.stabs	"tmp:r(0,8)",64,0,142,16
 1703               		.stabn	192,0,0,.LBB32-.LFBB4
 1704               		.stabn	224,0,0,.LBE32-.LFBB4
 1705               		.stabs	"tmp:r(0,8)",64,0,143,20
 1706               		.stabn	192,0,0,.LBB33-.LFBB4
 1707               		.stabn	224,0,0,.LBE33-.LFBB4
 1708               	.Lscope4:
 1709               		.stabs	"",36,0,0,.Lscope4-.LFBB4
 1710               		.stabs	"kamimashita:F(0,1)",36,0,177,kamimashita
 1711               	.global	kamimashita
 1712               		.type	kamimashita, @function
 1713               	kamimashita:
 176:lcd.c         **** 
 177:lcd.c         **** void kamimashita()
 178:lcd.c         **** {
 1714               		.stabn	68,0,178,.LM84-.LFBB5
 1715               	.LM84:
 1716               	.LFBB5:
 1717 08aa 0F93      		push r16
 1718 08ac 1F93      		push r17
 1719 08ae CF93      		push r28
 1720 08b0 DF93      		push r29
 1721               	/* prologue: function */
 1722               	/* frame size = 0 */
 1723               	/* stack size = 4 */
 1724               	.L__stack_usage = 4
 1725               	.LBB50:
 179:lcd.c         **** 	// (40,149)
 180:lcd.c         **** 	uint16_t x, y;
 181:lcd.c         **** 	uint32_t address = pgm_get_far_address(hachikuji);
 1726               		.stabn	68,0,181,.LM85-.LFBB5
 1727               	.LM85:
 1728               	/* #APP */
 1729               	 ;  181 "lcd.c" 1
 1730 08b2 40E0      		ldi	r20, lo8(hachikuji)
 1731 08b4 50E0      		ldi	r21, hi8(hachikuji)
 1732 08b6 60E0      		ldi	r22, hh8(hachikuji)
 1733 08b8 7727      		clr	r23
 1734               		
GAS LISTING /tmp/ccgw1eT1.s 			page 35


 1735               	 ;  0 "" 2
 1736               	/* #NOAPP */
 1737               	.LBE50:
 182:lcd.c         **** 	write_cmd(COLUMN_ADDRESS_SET);
 1738               		.stabn	68,0,182,.LM86-.LFBB5
 1739               	.LM86:
 1740 08ba 4498      		cbi 0x8,4
 1741 08bc 8AE2      		ldi r24,lo8(42)
 1742 08be 85B9      		out 0x5,r24
 1743 08c0 4398      		cbi 0x8,3
 1744 08c2 439A      		sbi 0x8,3
 1745 08c4 449A      		sbi 0x8,4
 183:lcd.c         **** 	write_data16(40);
 1746               		.stabn	68,0,183,.LM87-.LFBB5
 1747               	.LM87:
 1748 08c6 15B8      		out 0x5,__zero_reg__
 1749 08c8 4398      		cbi 0x8,3
 1750 08ca 439A      		sbi 0x8,3
 1751 08cc 88E2      		ldi r24,lo8(40)
 1752 08ce 85B9      		out 0x5,r24
 1753 08d0 4398      		cbi 0x8,3
 1754 08d2 439A      		sbi 0x8,3
 184:lcd.c         **** 	write_data16(199);
 1755               		.stabn	68,0,184,.LM88-.LFBB5
 1756               	.LM88:
 1757 08d4 15B8      		out 0x5,__zero_reg__
 1758 08d6 4398      		cbi 0x8,3
 1759 08d8 439A      		sbi 0x8,3
 1760 08da 87EC      		ldi r24,lo8(-57)
 1761 08dc 85B9      		out 0x5,r24
 1762 08de 4398      		cbi 0x8,3
 1763 08e0 439A      		sbi 0x8,3
 185:lcd.c         **** 	write_cmd(PAGE_ADDRESS_SET);
 1764               		.stabn	68,0,185,.LM89-.LFBB5
 1765               	.LM89:
 1766 08e2 4498      		cbi 0x8,4
 1767 08e4 8BE2      		ldi r24,lo8(43)
 1768 08e6 85B9      		out 0x5,r24
 1769 08e8 4398      		cbi 0x8,3
 1770 08ea 439A      		sbi 0x8,3
 1771 08ec 449A      		sbi 0x8,4
 186:lcd.c         **** 	write_data16(149);
 1772               		.stabn	68,0,186,.LM90-.LFBB5
 1773               	.LM90:
 1774 08ee 15B8      		out 0x5,__zero_reg__
 1775 08f0 4398      		cbi 0x8,3
 1776 08f2 439A      		sbi 0x8,3
 1777 08f4 85E9      		ldi r24,lo8(-107)
 1778 08f6 85B9      		out 0x5,r24
 1779 08f8 4398      		cbi 0x8,3
 1780 08fa 439A      		sbi 0x8,3
 187:lcd.c         **** 	write_data16(238);
 1781               		.stabn	68,0,187,.LM91-.LFBB5
 1782               	.LM91:
 1783 08fc 15B8      		out 0x5,__zero_reg__
 1784 08fe 4398      		cbi 0x8,3
 1785 0900 439A      		sbi 0x8,3
GAS LISTING /tmp/ccgw1eT1.s 			page 36


 1786 0902 8EEE      		ldi r24,lo8(-18)
 1787 0904 85B9      		out 0x5,r24
 1788 0906 4398      		cbi 0x8,3
 1789 0908 439A      		sbi 0x8,3
 188:lcd.c         **** 	write_cmd(MEMORY_WRITE);
 1790               		.stabn	68,0,188,.LM92-.LFBB5
 1791               	.LM92:
 1792 090a 4498      		cbi 0x8,4
 1793 090c 8CE2      		ldi r24,lo8(44)
 1794 090e 85B9      		out 0x5,r24
 1795 0910 4398      		cbi 0x8,3
 1796 0912 439A      		sbi 0x8,3
 1797 0914 449A      		sbi 0x8,4
 1798 0916 D0E0      		ldi r29,0
 1799 0918 C0E0      		ldi r28,0
 1800               	.L45:
 178:lcd.c         **** 	// (40,149)
 1801               		.stabn	68,0,178,.LM93-.LFBB5
 1802               	.LM93:
 1803 091a DB01      		movw r26,r22
 1804 091c CA01      		movw r24,r20
 1805 091e 20EA      		ldi r18,lo8(-96)
 1806 0920 30E0      		ldi r19,0
 1807               	.L46:
 1808               	.LBB51:
 189:lcd.c         **** 	for(y = 0; y <= 89; y++){
 190:lcd.c         **** 		for(x = 0; x <= 159; x++){
 191:lcd.c         **** 			write_data16(pgm_read_word_far(address + 2*(x+y*160)));
 1809               		.stabn	68,0,191,.LM94-.LFBB5
 1810               	.LM94:
 1811               	/* #APP */
 1812               	 ;  191 "lcd.c" 1
 1813 0922 ABBF      		out 59, r26
 1814 0924 F92F      		mov r31, r25
 1815 0926 E82F      		mov r30, r24
 1816 0928 D895      		elpm
 1817 092a 002D      		mov r16, r0
 1818 092c 0BB6      		in r0, 59
 1819 092e 3196      		adiw r30, 1
 1820 0930 011C      		adc r0, __zero_reg__
 1821 0932 0BBE      		out 59, r0
 1822 0934 D895      		elpm
 1823 0936 102D      		mov r17, r0
 1824               		
 1825               	 ;  0 "" 2
 1826               	/* #NOAPP */
 1827               	.LBE51:
 1828 0938 15B9      		out 0x5,r17
 1829 093a 4398      		cbi 0x8,3
 1830 093c 439A      		sbi 0x8,3
 1831               	.LBB52:
 1832               	/* #APP */
 1833               	 ;  191 "lcd.c" 1
 1834 093e ABBF      		out 59, r26
 1835 0940 F92F      		mov r31, r25
 1836 0942 E82F      		mov r30, r24
 1837 0944 D895      		elpm
GAS LISTING /tmp/ccgw1eT1.s 			page 37


 1838 0946 002D      		mov r16, r0
 1839 0948 0BB6      		in r0, 59
 1840 094a 3196      		adiw r30, 1
 1841 094c 011C      		adc r0, __zero_reg__
 1842 094e 0BBE      		out 59, r0
 1843 0950 D895      		elpm
 1844 0952 102D      		mov r17, r0
 1845               		
 1846               	 ;  0 "" 2
 1847               	/* #NOAPP */
 1848               	.LBE52:
 1849 0954 05B9      		out 0x5,r16
 1850 0956 4398      		cbi 0x8,3
 1851 0958 439A      		sbi 0x8,3
 190:lcd.c         **** 			write_data16(pgm_read_word_far(address + 2*(x+y*160)));
 1852               		.stabn	68,0,190,.LM95-.LFBB5
 1853               	.LM95:
 1854 095a 2150      		subi r18,1
 1855 095c 3109      		sbc r19,__zero_reg__
 1856 095e 0296      		adiw r24,2
 1857 0960 A11D      		adc r26,__zero_reg__
 1858 0962 B11D      		adc r27,__zero_reg__
 1859 0964 2115      		cp r18,__zero_reg__
 1860 0966 3105      		cpc r19,__zero_reg__
 1861 0968 01F4      		brne .L46
 189:lcd.c         **** 	for(y = 0; y <= 89; y++){
 1862               		.stabn	68,0,189,.LM96-.LFBB5
 1863               	.LM96:
 1864 096a 405C      		subi r20,-64
 1865 096c 5E4F      		sbci r21,-2
 1866 096e 6F4F      		sbci r22,-1
 1867 0970 7F4F      		sbci r23,-1
 1868 0972 C056      		subi r28,96
 1869 0974 DF4F      		sbci r29,-1
 1870 0976 C034      		cpi r28,64
 1871 0978 88E3      		ldi r24,56
 1872 097a D807      		cpc r29,r24
 1873 097c 01F0      		breq .+2
 1874 097e 00C0      		rjmp .L45
 1875               	/* epilogue start */
 192:lcd.c         **** 		}
 193:lcd.c         **** 	}
 194:lcd.c         **** }
 1876               		.stabn	68,0,194,.LM97-.LFBB5
 1877               	.LM97:
 1878 0980 DF91      		pop r29
 1879 0982 CF91      		pop r28
 1880 0984 1F91      		pop r17
 1881 0986 0F91      		pop r16
 1882 0988 0895      		ret
 1883               		.size	kamimashita, .-kamimashita
 1884               		.stabs	"tmp:r(0,8)",64,0,181,20
 1885               		.stabn	192,0,0,.LBB50-.LFBB5
 1886               		.stabn	224,0,0,.LBE50-.LFBB5
 1887               	.Lscope5:
 1888               		.stabs	"",36,0,0,.Lscope5-.LFBB5
 1889               		.stabs	"init_graphics:F(0,1)",36,0,197,init_graphics
GAS LISTING /tmp/ccgw1eT1.s 			page 38


 1890               	.global	init_graphics
 1891               		.type	init_graphics, @function
 1892               	init_graphics:
 195:lcd.c         **** 
 196:lcd.c         **** 
 197:lcd.c         **** void init_graphics()
 198:lcd.c         **** {
 1893               		.stabn	68,0,198,.LM98-.LFBB6
 1894               	.LM98:
 1895               	.LFBB6:
 1896               	/* prologue: function */
 1897               	/* frame size = 0 */
 1898               	/* stack size = 0 */
 1899               	.L__stack_usage = 0
 199:lcd.c         **** 	uint16_t x, y;
 200:lcd.c         **** 	write_cmd(COLUMN_ADDRESS_SET);
 1900               		.stabn	68,0,200,.LM99-.LFBB6
 1901               	.LM99:
 1902 098a 4498      		cbi 0x8,4
 1903 098c 8AE2      		ldi r24,lo8(42)
 1904 098e 85B9      		out 0x5,r24
 1905 0990 4398      		cbi 0x8,3
 1906 0992 439A      		sbi 0x8,3
 1907 0994 449A      		sbi 0x8,4
 201:lcd.c         **** 	write_data16(0);
 1908               		.stabn	68,0,201,.LM100-.LFBB6
 1909               	.LM100:
 1910 0996 15B8      		out 0x5,__zero_reg__
 1911 0998 4398      		cbi 0x8,3
 1912 099a 439A      		sbi 0x8,3
 1913 099c 15B8      		out 0x5,__zero_reg__
 1914 099e 4398      		cbi 0x8,3
 1915 09a0 439A      		sbi 0x8,3
 202:lcd.c         **** 	write_data16(240);
 1916               		.stabn	68,0,202,.LM101-.LFBB6
 1917               	.LM101:
 1918 09a2 15B8      		out 0x5,__zero_reg__
 1919 09a4 4398      		cbi 0x8,3
 1920 09a6 439A      		sbi 0x8,3
 1921 09a8 80EF      		ldi r24,lo8(-16)
 1922 09aa 85B9      		out 0x5,r24
 1923 09ac 4398      		cbi 0x8,3
 1924 09ae 439A      		sbi 0x8,3
 203:lcd.c         **** 	write_cmd(PAGE_ADDRESS_SET);
 1925               		.stabn	68,0,203,.LM102-.LFBB6
 1926               	.LM102:
 1927 09b0 4498      		cbi 0x8,4
 1928 09b2 8BE2      		ldi r24,lo8(43)
 1929 09b4 85B9      		out 0x5,r24
 1930 09b6 4398      		cbi 0x8,3
 1931 09b8 439A      		sbi 0x8,3
 1932 09ba 449A      		sbi 0x8,4
 204:lcd.c         **** 	write_data16(0);
 1933               		.stabn	68,0,204,.LM103-.LFBB6
 1934               	.LM103:
 1935 09bc 15B8      		out 0x5,__zero_reg__
 1936 09be 4398      		cbi 0x8,3
GAS LISTING /tmp/ccgw1eT1.s 			page 39


 1937 09c0 439A      		sbi 0x8,3
 1938 09c2 15B8      		out 0x5,__zero_reg__
 1939 09c4 4398      		cbi 0x8,3
 1940 09c6 439A      		sbi 0x8,3
 205:lcd.c         **** 	write_data16(160);
 1941               		.stabn	68,0,205,.LM104-.LFBB6
 1942               	.LM104:
 1943 09c8 15B8      		out 0x5,__zero_reg__
 1944 09ca 4398      		cbi 0x8,3
 1945 09cc 439A      		sbi 0x8,3
 1946 09ce 80EA      		ldi r24,lo8(-96)
 1947 09d0 85B9      		out 0x5,r24
 1948 09d2 4398      		cbi 0x8,3
 1949 09d4 439A      		sbi 0x8,3
 206:lcd.c         **** 	write_cmd(MEMORY_WRITE);
 1950               		.stabn	68,0,206,.LM105-.LFBB6
 1951               	.LM105:
 1952 09d6 4498      		cbi 0x8,4
 1953 09d8 8CE2      		ldi r24,lo8(44)
 1954 09da 85B9      		out 0x5,r24
 1955 09dc 4398      		cbi 0x8,3
 1956 09de 439A      		sbi 0x8,3
 1957 09e0 449A      		sbi 0x8,4
 1958 09e2 20E0      		ldi r18,lo8(bg1_1)
 1959 09e4 30E0      		ldi r19,hi8(bg1_1)
 1960 09e6 70E0      		ldi r23,0
 1961 09e8 60E0      		ldi r22,0
 1962               	.L50:
 198:lcd.c         **** 	uint16_t x, y;
 1963               		.stabn	68,0,198,.LM106-.LFBB6
 1964               	.LM106:
 1965 09ea C901      		movw r24,r18
 207:lcd.c         **** 	for(y = 0; y <= 79; y++){
 208:lcd.c         **** 		for(x = 0; x <= 119; x++){
 1966               		.stabn	68,0,208,.LM107-.LFBB6
 1967               	.LM107:
 1968 09ec 50E0      		ldi r21,0
 1969 09ee 40E0      		ldi r20,0
 1970               	.L51:
 1971               	.LBB53:
 209:lcd.c         **** 			write_data16( pgm_read_word( &(bg1_1[x+y*120])));
 1972               		.stabn	68,0,209,.LM108-.LFBB6
 1973               	.LM108:
 1974 09f0 FC01      		movw r30,r24
 1975               	/* #APP */
 1976               	 ;  209 "lcd.c" 1
 1977 09f2 A591      		lpm r26, Z+
 1978 09f4 B491      		lpm r27, Z
 1979               		
 1980               	 ;  0 "" 2
 1981               	/* #NOAPP */
 1982               	.LBE53:
 1983 09f6 B5B9      		out 0x5,r27
 1984 09f8 4398      		cbi 0x8,3
 1985 09fa 439A      		sbi 0x8,3
 1986               	.LBB54:
 1987 09fc FC01      		movw r30,r24
GAS LISTING /tmp/ccgw1eT1.s 			page 40


 1988               	/* #APP */
 1989               	 ;  209 "lcd.c" 1
 1990 09fe A591      		lpm r26, Z+
 1991 0a00 B491      		lpm r27, Z
 1992               		
 1993               	 ;  0 "" 2
 1994               	/* #NOAPP */
 1995               	.LBE54:
 1996 0a02 A5B9      		out 0x5,r26
 1997 0a04 4398      		cbi 0x8,3
 1998 0a06 439A      		sbi 0x8,3
 1999               	.LBB55:
 210:lcd.c         **** 			write_data16( pgm_read_word( &(bg1_1[x+y*120])));
 2000               		.stabn	68,0,210,.LM109-.LFBB6
 2001               	.LM109:
 2002 0a08 FC01      		movw r30,r24
 2003               	/* #APP */
 2004               	 ;  210 "lcd.c" 1
 2005 0a0a A591      		lpm r26, Z+
 2006 0a0c B491      		lpm r27, Z
 2007               		
 2008               	 ;  0 "" 2
 2009               	/* #NOAPP */
 2010               	.LBE55:
 2011 0a0e B5B9      		out 0x5,r27
 2012 0a10 4398      		cbi 0x8,3
 2013 0a12 439A      		sbi 0x8,3
 2014               	.LBB56:
 2015 0a14 FC01      		movw r30,r24
 2016               	/* #APP */
 2017               	 ;  210 "lcd.c" 1
 2018 0a16 A591      		lpm r26, Z+
 2019 0a18 B491      		lpm r27, Z
 2020               		
 2021               	 ;  0 "" 2
 2022               	/* #NOAPP */
 2023               	.LBE56:
 2024 0a1a A5B9      		out 0x5,r26
 2025 0a1c 4398      		cbi 0x8,3
 2026 0a1e 439A      		sbi 0x8,3
 208:lcd.c         **** 			write_data16( pgm_read_word( &(bg1_1[x+y*120])));
 2027               		.stabn	68,0,208,.LM110-.LFBB6
 2028               	.LM110:
 2029 0a20 4F5F      		subi r20,-1
 2030 0a22 5F4F      		sbci r21,-1
 208:lcd.c         **** 			write_data16( pgm_read_word( &(bg1_1[x+y*120])));
 2031               		.stabn	68,0,208,.LM111-.LFBB6
 2032               	.LM111:
 2033 0a24 0296      		adiw r24,2
 2034 0a26 4837      		cpi r20,120
 2035 0a28 5105      		cpc r21,__zero_reg__
 2036 0a2a 01F4      		brne .L51
 2037 0a2c C901      		movw r24,r18
 211:lcd.c         **** 		}
 212:lcd.c         **** 		for(x = 0; x <= 119; x++){
 2038               		.stabn	68,0,212,.LM112-.LFBB6
 2039               	.LM112:
GAS LISTING /tmp/ccgw1eT1.s 			page 41


 2040 0a2e 50E0      		ldi r21,0
 2041 0a30 40E0      		ldi r20,0
 2042               	.L52:
 2043               	.LBB57:
 213:lcd.c         **** 			write_data16( pgm_read_word( &(bg1_1[x+y*120])));
 2044               		.stabn	68,0,213,.LM113-.LFBB6
 2045               	.LM113:
 2046 0a32 FC01      		movw r30,r24
 2047               	/* #APP */
 2048               	 ;  213 "lcd.c" 1
 2049 0a34 A591      		lpm r26, Z+
 2050 0a36 B491      		lpm r27, Z
 2051               		
 2052               	 ;  0 "" 2
 2053               	/* #NOAPP */
 2054               	.LBE57:
 2055 0a38 B5B9      		out 0x5,r27
 2056 0a3a 4398      		cbi 0x8,3
 2057 0a3c 439A      		sbi 0x8,3
 2058               	.LBB58:
 2059 0a3e FC01      		movw r30,r24
 2060               	/* #APP */
 2061               	 ;  213 "lcd.c" 1
 2062 0a40 A591      		lpm r26, Z+
 2063 0a42 B491      		lpm r27, Z
 2064               		
 2065               	 ;  0 "" 2
 2066               	/* #NOAPP */
 2067               	.LBE58:
 2068 0a44 A5B9      		out 0x5,r26
 2069 0a46 4398      		cbi 0x8,3
 2070 0a48 439A      		sbi 0x8,3
 2071               	.LBB59:
 214:lcd.c         **** 			write_data16( pgm_read_word( &(bg1_1[x+y*120])));
 2072               		.stabn	68,0,214,.LM114-.LFBB6
 2073               	.LM114:
 2074 0a4a FC01      		movw r30,r24
 2075               	/* #APP */
 2076               	 ;  214 "lcd.c" 1
 2077 0a4c A591      		lpm r26, Z+
 2078 0a4e B491      		lpm r27, Z
 2079               		
 2080               	 ;  0 "" 2
 2081               	/* #NOAPP */
 2082               	.LBE59:
 2083 0a50 B5B9      		out 0x5,r27
 2084 0a52 4398      		cbi 0x8,3
 2085 0a54 439A      		sbi 0x8,3
 2086               	.LBB60:
 2087 0a56 FC01      		movw r30,r24
 2088               	/* #APP */
 2089               	 ;  214 "lcd.c" 1
 2090 0a58 A591      		lpm r26, Z+
 2091 0a5a B491      		lpm r27, Z
 2092               		
 2093               	 ;  0 "" 2
 2094               	/* #NOAPP */
GAS LISTING /tmp/ccgw1eT1.s 			page 42


 2095               	.LBE60:
 2096 0a5c A5B9      		out 0x5,r26
 2097 0a5e 4398      		cbi 0x8,3
 2098 0a60 439A      		sbi 0x8,3
 212:lcd.c         **** 			write_data16( pgm_read_word( &(bg1_1[x+y*120])));
 2099               		.stabn	68,0,212,.LM115-.LFBB6
 2100               	.LM115:
 2101 0a62 4F5F      		subi r20,-1
 2102 0a64 5F4F      		sbci r21,-1
 212:lcd.c         **** 			write_data16( pgm_read_word( &(bg1_1[x+y*120])));
 2103               		.stabn	68,0,212,.LM116-.LFBB6
 2104               	.LM116:
 2105 0a66 0296      		adiw r24,2
 2106 0a68 4837      		cpi r20,120
 2107 0a6a 5105      		cpc r21,__zero_reg__
 2108 0a6c 01F4      		brne .L52
 207:lcd.c         **** 		for(x = 0; x <= 119; x++){
 2109               		.stabn	68,0,207,.LM117-.LFBB6
 2110               	.LM117:
 2111 0a6e 2051      		subi r18,16
 2112 0a70 3F4F      		sbci r19,-1
 2113 0a72 6858      		subi r22,-120
 2114 0a74 7F4F      		sbci r23,-1
 2115 0a76 6038      		cpi r22,-128
 2116 0a78 85E2      		ldi r24,37
 2117 0a7a 7807      		cpc r23,r24
 2118 0a7c 01F0      		breq .+2
 2119 0a7e 00C0      		rjmp .L50
 215:lcd.c         **** 		}
 216:lcd.c         **** 	}
 217:lcd.c         **** 	write_cmd(COLUMN_ADDRESS_SET);
 2120               		.stabn	68,0,217,.LM118-.LFBB6
 2121               	.LM118:
 2122 0a80 4498      		cbi 0x8,4
 2123 0a82 8AE2      		ldi r24,lo8(42)
 2124 0a84 85B9      		out 0x5,r24
 2125 0a86 4398      		cbi 0x8,3
 2126 0a88 439A      		sbi 0x8,3
 2127 0a8a 449A      		sbi 0x8,4
 218:lcd.c         **** 	write_data16(0);
 2128               		.stabn	68,0,218,.LM119-.LFBB6
 2129               	.LM119:
 2130 0a8c 15B8      		out 0x5,__zero_reg__
 2131 0a8e 4398      		cbi 0x8,3
 2132 0a90 439A      		sbi 0x8,3
 2133 0a92 15B8      		out 0x5,__zero_reg__
 2134 0a94 4398      		cbi 0x8,3
 2135 0a96 439A      		sbi 0x8,3
 219:lcd.c         **** 	write_data16(240);
 2136               		.stabn	68,0,219,.LM120-.LFBB6
 2137               	.LM120:
 2138 0a98 15B8      		out 0x5,__zero_reg__
 2139 0a9a 4398      		cbi 0x8,3
 2140 0a9c 439A      		sbi 0x8,3
 2141 0a9e 80EF      		ldi r24,lo8(-16)
 2142 0aa0 85B9      		out 0x5,r24
 2143 0aa2 4398      		cbi 0x8,3
GAS LISTING /tmp/ccgw1eT1.s 			page 43


 2144 0aa4 439A      		sbi 0x8,3
 220:lcd.c         **** 	write_cmd(PAGE_ADDRESS_SET);
 2145               		.stabn	68,0,220,.LM121-.LFBB6
 2146               	.LM121:
 2147 0aa6 4498      		cbi 0x8,4
 2148 0aa8 8BE2      		ldi r24,lo8(43)
 2149 0aaa 85B9      		out 0x5,r24
 2150 0aac 4398      		cbi 0x8,3
 2151 0aae 439A      		sbi 0x8,3
 2152 0ab0 449A      		sbi 0x8,4
 221:lcd.c         **** 	write_data16(160);
 2153               		.stabn	68,0,221,.LM122-.LFBB6
 2154               	.LM122:
 2155 0ab2 15B8      		out 0x5,__zero_reg__
 2156 0ab4 4398      		cbi 0x8,3
 2157 0ab6 439A      		sbi 0x8,3
 2158 0ab8 80EA      		ldi r24,lo8(-96)
 2159 0aba 85B9      		out 0x5,r24
 2160 0abc 4398      		cbi 0x8,3
 2161 0abe 439A      		sbi 0x8,3
 222:lcd.c         **** 	write_data16(320);
 2162               		.stabn	68,0,222,.LM123-.LFBB6
 2163               	.LM123:
 2164 0ac0 81E0      		ldi r24,lo8(1)
 2165 0ac2 85B9      		out 0x5,r24
 2166 0ac4 4398      		cbi 0x8,3
 2167 0ac6 439A      		sbi 0x8,3
 2168 0ac8 80E4      		ldi r24,lo8(64)
 2169 0aca 85B9      		out 0x5,r24
 2170 0acc 4398      		cbi 0x8,3
 2171 0ace 439A      		sbi 0x8,3
 223:lcd.c         **** 	write_cmd(MEMORY_WRITE);
 2172               		.stabn	68,0,223,.LM124-.LFBB6
 2173               	.LM124:
 2174 0ad0 4498      		cbi 0x8,4
 2175 0ad2 8CE2      		ldi r24,lo8(44)
 2176 0ad4 85B9      		out 0x5,r24
 2177 0ad6 4398      		cbi 0x8,3
 2178 0ad8 439A      		sbi 0x8,3
 2179 0ada 449A      		sbi 0x8,4
 2180 0adc 20E0      		ldi r18,lo8(bg1_2)
 2181 0ade 30E0      		ldi r19,hi8(bg1_2)
 2182 0ae0 70E0      		ldi r23,0
 2183 0ae2 60E0      		ldi r22,0
 2184               	.L54:
 206:lcd.c         **** 	for(y = 0; y <= 79; y++){
 2185               		.stabn	68,0,206,.LM125-.LFBB6
 2186               	.LM125:
 2187 0ae4 C901      		movw r24,r18
 224:lcd.c         **** 	for(y = 0; y <= 79; y++){
 225:lcd.c         **** 		for(x = 0; x <= 119; x++){
 2188               		.stabn	68,0,225,.LM126-.LFBB6
 2189               	.LM126:
 2190 0ae6 50E0      		ldi r21,0
 2191 0ae8 40E0      		ldi r20,0
 2192               	.L55:
 2193               	.LBB61:
GAS LISTING /tmp/ccgw1eT1.s 			page 44


 226:lcd.c         **** 			write_data16( pgm_read_word( &(bg1_2[x+y*120])));
 2194               		.stabn	68,0,226,.LM127-.LFBB6
 2195               	.LM127:
 2196 0aea FC01      		movw r30,r24
 2197               	/* #APP */
 2198               	 ;  226 "lcd.c" 1
 2199 0aec A591      		lpm r26, Z+
 2200 0aee B491      		lpm r27, Z
 2201               		
 2202               	 ;  0 "" 2
 2203               	/* #NOAPP */
 2204               	.LBE61:
 2205 0af0 B5B9      		out 0x5,r27
 2206 0af2 4398      		cbi 0x8,3
 2207 0af4 439A      		sbi 0x8,3
 2208               	.LBB62:
 2209 0af6 FC01      		movw r30,r24
 2210               	/* #APP */
 2211               	 ;  226 "lcd.c" 1
 2212 0af8 A591      		lpm r26, Z+
 2213 0afa B491      		lpm r27, Z
 2214               		
 2215               	 ;  0 "" 2
 2216               	/* #NOAPP */
 2217               	.LBE62:
 2218 0afc A5B9      		out 0x5,r26
 2219 0afe 4398      		cbi 0x8,3
 2220 0b00 439A      		sbi 0x8,3
 2221               	.LBB63:
 227:lcd.c         **** 			write_data16( pgm_read_word( &(bg1_2[x+y*120])));
 2222               		.stabn	68,0,227,.LM128-.LFBB6
 2223               	.LM128:
 2224 0b02 FC01      		movw r30,r24
 2225               	/* #APP */
 2226               	 ;  227 "lcd.c" 1
 2227 0b04 A591      		lpm r26, Z+
 2228 0b06 B491      		lpm r27, Z
 2229               		
 2230               	 ;  0 "" 2
 2231               	/* #NOAPP */
 2232               	.LBE63:
 2233 0b08 B5B9      		out 0x5,r27
 2234 0b0a 4398      		cbi 0x8,3
 2235 0b0c 439A      		sbi 0x8,3
 2236               	.LBB64:
 2237 0b0e FC01      		movw r30,r24
 2238               	/* #APP */
 2239               	 ;  227 "lcd.c" 1
 2240 0b10 A591      		lpm r26, Z+
 2241 0b12 B491      		lpm r27, Z
 2242               		
 2243               	 ;  0 "" 2
 2244               	/* #NOAPP */
 2245               	.LBE64:
 2246 0b14 A5B9      		out 0x5,r26
 2247 0b16 4398      		cbi 0x8,3
 2248 0b18 439A      		sbi 0x8,3
GAS LISTING /tmp/ccgw1eT1.s 			page 45


 225:lcd.c         **** 			write_data16( pgm_read_word( &(bg1_2[x+y*120])));
 2249               		.stabn	68,0,225,.LM129-.LFBB6
 2250               	.LM129:
 2251 0b1a 4F5F      		subi r20,-1
 2252 0b1c 5F4F      		sbci r21,-1
 225:lcd.c         **** 			write_data16( pgm_read_word( &(bg1_2[x+y*120])));
 2253               		.stabn	68,0,225,.LM130-.LFBB6
 2254               	.LM130:
 2255 0b1e 0296      		adiw r24,2
 2256 0b20 4837      		cpi r20,120
 2257 0b22 5105      		cpc r21,__zero_reg__
 2258 0b24 01F4      		brne .L55
 2259 0b26 C901      		movw r24,r18
 228:lcd.c         **** 		}
 229:lcd.c         **** 		for(x = 0; x <= 119; x++){
 2260               		.stabn	68,0,229,.LM131-.LFBB6
 2261               	.LM131:
 2262 0b28 50E0      		ldi r21,0
 2263 0b2a 40E0      		ldi r20,0
 2264               	.L56:
 2265               	.LBB65:
 230:lcd.c         **** 			write_data16( pgm_read_word( &(bg1_2[x+y*120])));
 2266               		.stabn	68,0,230,.LM132-.LFBB6
 2267               	.LM132:
 2268 0b2c FC01      		movw r30,r24
 2269               	/* #APP */
 2270               	 ;  230 "lcd.c" 1
 2271 0b2e A591      		lpm r26, Z+
 2272 0b30 B491      		lpm r27, Z
 2273               		
 2274               	 ;  0 "" 2
 2275               	/* #NOAPP */
 2276               	.LBE65:
 2277 0b32 B5B9      		out 0x5,r27
 2278 0b34 4398      		cbi 0x8,3
 2279 0b36 439A      		sbi 0x8,3
 2280               	.LBB66:
 2281 0b38 FC01      		movw r30,r24
 2282               	/* #APP */
 2283               	 ;  230 "lcd.c" 1
 2284 0b3a A591      		lpm r26, Z+
 2285 0b3c B491      		lpm r27, Z
 2286               		
 2287               	 ;  0 "" 2
 2288               	/* #NOAPP */
 2289               	.LBE66:
 2290 0b3e A5B9      		out 0x5,r26
 2291 0b40 4398      		cbi 0x8,3
 2292 0b42 439A      		sbi 0x8,3
 2293               	.LBB67:
 231:lcd.c         **** 			write_data16( pgm_read_word( &(bg1_2[x+y*120])));
 2294               		.stabn	68,0,231,.LM133-.LFBB6
 2295               	.LM133:
 2296 0b44 FC01      		movw r30,r24
 2297               	/* #APP */
 2298               	 ;  231 "lcd.c" 1
 2299 0b46 A591      		lpm r26, Z+
GAS LISTING /tmp/ccgw1eT1.s 			page 46


 2300 0b48 B491      		lpm r27, Z
 2301               		
 2302               	 ;  0 "" 2
 2303               	/* #NOAPP */
 2304               	.LBE67:
 2305 0b4a B5B9      		out 0x5,r27
 2306 0b4c 4398      		cbi 0x8,3
 2307 0b4e 439A      		sbi 0x8,3
 2308               	.LBB68:
 2309 0b50 FC01      		movw r30,r24
 2310               	/* #APP */
 2311               	 ;  231 "lcd.c" 1
 2312 0b52 A591      		lpm r26, Z+
 2313 0b54 B491      		lpm r27, Z
 2314               		
 2315               	 ;  0 "" 2
 2316               	/* #NOAPP */
 2317               	.LBE68:
 2318 0b56 A5B9      		out 0x5,r26
 2319 0b58 4398      		cbi 0x8,3
 2320 0b5a 439A      		sbi 0x8,3
 229:lcd.c         **** 			write_data16( pgm_read_word( &(bg1_2[x+y*120])));
 2321               		.stabn	68,0,229,.LM134-.LFBB6
 2322               	.LM134:
 2323 0b5c 4F5F      		subi r20,-1
 2324 0b5e 5F4F      		sbci r21,-1
 229:lcd.c         **** 			write_data16( pgm_read_word( &(bg1_2[x+y*120])));
 2325               		.stabn	68,0,229,.LM135-.LFBB6
 2326               	.LM135:
 2327 0b60 0296      		adiw r24,2
 2328 0b62 4837      		cpi r20,120
 2329 0b64 5105      		cpc r21,__zero_reg__
 2330 0b66 01F4      		brne .L56
 224:lcd.c         **** 		for(x = 0; x <= 119; x++){
 2331               		.stabn	68,0,224,.LM136-.LFBB6
 2332               	.LM136:
 2333 0b68 2051      		subi r18,16
 2334 0b6a 3F4F      		sbci r19,-1
 2335 0b6c 6858      		subi r22,-120
 2336 0b6e 7F4F      		sbci r23,-1
 2337 0b70 6038      		cpi r22,-128
 2338 0b72 85E2      		ldi r24,37
 2339 0b74 7807      		cpc r23,r24
 2340 0b76 01F0      		breq .+2
 2341 0b78 00C0      		rjmp .L54
 2342               	/* epilogue start */
 232:lcd.c         **** 		}
 233:lcd.c         **** 	}
 234:lcd.c         **** }
 2343               		.stabn	68,0,234,.LM137-.LFBB6
 2344               	.LM137:
 2345 0b7a 0895      		ret
 2346               		.size	init_graphics, .-init_graphics
 2347               	.Lscope6:
 2348               		.stabs	"",36,0,0,.Lscope6-.LFBB6
 2349               		.stabs	"init_lcd:F(0,1)",36,0,238,init_lcd
 2350               	.global	init_lcd
GAS LISTING /tmp/ccgw1eT1.s 			page 47


 2351               		.type	init_lcd, @function
 2352               	init_lcd:
 235:lcd.c         **** 
 236:lcd.c         **** lcd display = {LCDWIDTH, LCDHEIGHT, North, 0, 0, 0x20E4, 0xFF99};
 237:lcd.c         **** 
 238:lcd.c         **** void init_lcd()
 239:lcd.c         **** {
 2353               		.stabn	68,0,239,.LM138-.LFBB7
 2354               	.LM138:
 2355               	.LFBB7:
 2356               	/* prologue: function */
 2357               	/* frame size = 0 */
 2358               	/* stack size = 0 */
 2359               	.L__stack_usage = 0
 240:lcd.c         **** 	/* Disable JTAG in software, so that it does not interfere with Port C  */
 241:lcd.c         **** 	/* It will be re-enabled after a power cycle if the JTAGEN fuse is set. */
 242:lcd.c         **** 	MCUCR |= (1<<JTD);
 2360               		.stabn	68,0,242,.LM139-.LFBB7
 2361               	.LM139:
 2362 0b7c 85B7      		in r24,0x35
 2363 0b7e 8068      		ori r24,lo8(-128)
 2364 0b80 85BF      		out 0x35,r24
 243:lcd.c         **** 	MCUCR |= (1<<JTD);
 2365               		.stabn	68,0,243,.LM140-.LFBB7
 2366               	.LM140:
 2367 0b82 85B7      		in r24,0x35
 2368 0b84 8068      		ori r24,lo8(-128)
 2369 0b86 85BF      		out 0x35,r24
 244:lcd.c         **** 
 245:lcd.c         **** 	/* Configure ports */
 246:lcd.c         **** 	CTRL_DDR = 0x7F;
 2370               		.stabn	68,0,246,.LM141-.LFBB7
 2371               	.LM141:
 2372 0b88 8FE7      		ldi r24,lo8(127)
 2373 0b8a 87B9      		out 0x7,r24
 247:lcd.c         **** 	// PIN 7 on the control port is an input.
 248:lcd.c         **** 	DATA_DDR = 0xFF;
 2374               		.stabn	68,0,248,.LM142-.LFBB7
 2375               	.LM142:
 2376 0b8c 8FEF      		ldi r24,lo8(-1)
 2377 0b8e 84B9      		out 0x4,r24
 249:lcd.c         **** 
 250:lcd.c         **** 	init_display_controller();
 2378               		.stabn	68,0,250,.LM143-.LFBB7
 2379               	.LM143:
 2380 0b90 0C94 0000 		jmp init_display_controller
 2381               		.size	init_lcd, .-init_lcd
 2382               	.Lscope7:
 2383               		.stabs	"",36,0,0,.Lscope7-.LFBB7
 2384               		.stabs	"set_orientation:F(0,1)",36,0,253,set_orientation
 2385               		.stabs	" :T(0,10)=eNorth:0,West:1,South:2,East:3,;",128,0,0,0
 2386               		.stabs	"o:P(0,11)=(0,10)",64,0,253,18
 2387               	.global	set_orientation
 2388               		.type	set_orientation, @function
 2389               	set_orientation:
 251:lcd.c         **** }
 252:lcd.c         **** 
GAS LISTING /tmp/ccgw1eT1.s 			page 48


 253:lcd.c         **** void set_orientation(orientation o)
 254:lcd.c         **** {
 2390               		.stabn	68,0,254,.LM144-.LFBB8
 2391               	.LM144:
 2392               	.LFBB8:
 2393               	/* prologue: function */
 2394               	/* frame size = 0 */
 2395               	/* stack size = 0 */
 2396               	.L__stack_usage = 0
 2397 0b94 9C01      		movw r18,r24
 255:lcd.c         **** 	display.orient = o;
 2398               		.stabn	68,0,255,.LM145-.LFBB8
 2399               	.LM145:
 2400 0b96 9093 0000 		sts display+4+1,r25
 2401 0b9a 8093 0000 		sts display+4,r24
 256:lcd.c         **** 	write_cmd(MEMORY_ACCESS_CONTROL);
 2402               		.stabn	68,0,256,.LM146-.LFBB8
 2403               	.LM146:
 2404 0b9e 4498      		cbi 0x8,4
 2405 0ba0 86E3      		ldi r24,lo8(54)
 2406 0ba2 85B9      		out 0x5,r24
 2407 0ba4 4398      		cbi 0x8,3
 2408 0ba6 439A      		sbi 0x8,3
 2409 0ba8 449A      		sbi 0x8,4
 257:lcd.c         **** 	if (o==North) {
 2410               		.stabn	68,0,257,.LM147-.LFBB8
 2411               	.LM147:
 2412 0baa 2115      		cp r18,__zero_reg__
 2413 0bac 3105      		cpc r19,__zero_reg__
 2414 0bae 01F0      		breq .+2
 2415 0bb0 00C0      		rjmp .L64
 258:lcd.c         **** 		display.width = LCDWIDTH;
 2416               		.stabn	68,0,258,.LM148-.LFBB8
 2417               	.LM148:
 2418 0bb2 80EF      		ldi r24,lo8(-16)
 2419 0bb4 90E0      		ldi r25,0
 2420 0bb6 9093 0000 		sts display+1,r25
 2421 0bba 8093 0000 		sts display,r24
 259:lcd.c         **** 		display.height = LCDHEIGHT;
 2422               		.stabn	68,0,259,.LM149-.LFBB8
 2423               	.LM149:
 2424 0bbe 80E4      		ldi r24,lo8(64)
 2425 0bc0 91E0      		ldi r25,lo8(1)
 2426 0bc2 9093 0000 		sts display+2+1,r25
 2427 0bc6 8093 0000 		sts display+2,r24
 260:lcd.c         **** 		write_data(0x48);
 2428               		.stabn	68,0,260,.LM150-.LFBB8
 2429               	.LM150:
 2430 0bca 88E4      		ldi r24,lo8(72)
 2431               	.L68:
 261:lcd.c         **** 	}
 262:lcd.c         **** 	else if (o==West) {
 263:lcd.c         **** 		display.width = LCDHEIGHT;
 264:lcd.c         **** 		display.height = LCDWIDTH;
 265:lcd.c         **** 		write_data(0xE8);
 266:lcd.c         **** 	}
 267:lcd.c         **** 	else if (o==South) {
GAS LISTING /tmp/ccgw1eT1.s 			page 49


 268:lcd.c         **** 		display.width = LCDWIDTH;
 269:lcd.c         **** 		display.height = LCDHEIGHT;
 270:lcd.c         **** 		write_data(0x88);
 271:lcd.c         **** 	}
 272:lcd.c         **** 	else if (o==East) {
 273:lcd.c         **** 		display.width = LCDHEIGHT;
 274:lcd.c         **** 		display.height = LCDWIDTH;
 275:lcd.c         **** 		write_data(0x28);
 2432               		.stabn	68,0,275,.LM151-.LFBB8
 2433               	.LM151:
 2434 0bcc 85B9      		out 0x5,r24
 2435 0bce 4398      		cbi 0x8,3
 2436 0bd0 439A      		sbi 0x8,3
 2437               	.L65:
 276:lcd.c         **** 	}
 277:lcd.c         **** 	write_cmd(COLUMN_ADDRESS_SET);
 2438               		.stabn	68,0,277,.LM152-.LFBB8
 2439               	.LM152:
 2440 0bd2 4498      		cbi 0x8,4
 2441 0bd4 8AE2      		ldi r24,lo8(42)
 2442 0bd6 85B9      		out 0x5,r24
 2443 0bd8 4398      		cbi 0x8,3
 2444 0bda 439A      		sbi 0x8,3
 2445 0bdc 449A      		sbi 0x8,4
 278:lcd.c         **** 	write_data16(0);
 2446               		.stabn	68,0,278,.LM153-.LFBB8
 2447               	.LM153:
 2448 0bde 15B8      		out 0x5,__zero_reg__
 2449 0be0 4398      		cbi 0x8,3
 2450 0be2 439A      		sbi 0x8,3
 2451 0be4 15B8      		out 0x5,__zero_reg__
 2452 0be6 4398      		cbi 0x8,3
 2453 0be8 439A      		sbi 0x8,3
 279:lcd.c         **** 	write_data16(display.width-1);
 2454               		.stabn	68,0,279,.LM154-.LFBB8
 2455               	.LM154:
 2456 0bea 8091 0000 		lds r24,display
 2457 0bee 9091 0000 		lds r25,display+1
 2458 0bf2 0197      		sbiw r24,1
 2459 0bf4 95B9      		out 0x5,r25
 2460 0bf6 4398      		cbi 0x8,3
 2461 0bf8 439A      		sbi 0x8,3
 2462 0bfa 8091 0000 		lds r24,display
 2463 0bfe 8150      		subi r24,lo8(-(-1))
 2464 0c00 85B9      		out 0x5,r24
 2465 0c02 4398      		cbi 0x8,3
 2466 0c04 439A      		sbi 0x8,3
 280:lcd.c         **** 	write_cmd(PAGE_ADDRESS_SET);
 2467               		.stabn	68,0,280,.LM155-.LFBB8
 2468               	.LM155:
 2469 0c06 4498      		cbi 0x8,4
 2470 0c08 8BE2      		ldi r24,lo8(43)
 2471 0c0a 85B9      		out 0x5,r24
 2472 0c0c 4398      		cbi 0x8,3
 2473 0c0e 439A      		sbi 0x8,3
 2474 0c10 449A      		sbi 0x8,4
 281:lcd.c         **** 	write_data16(0);
GAS LISTING /tmp/ccgw1eT1.s 			page 50


 2475               		.stabn	68,0,281,.LM156-.LFBB8
 2476               	.LM156:
 2477 0c12 15B8      		out 0x5,__zero_reg__
 2478 0c14 4398      		cbi 0x8,3
 2479 0c16 439A      		sbi 0x8,3
 2480 0c18 15B8      		out 0x5,__zero_reg__
 2481 0c1a 4398      		cbi 0x8,3
 2482 0c1c 439A      		sbi 0x8,3
 282:lcd.c         **** 	write_data16(display.height-1);
 2483               		.stabn	68,0,282,.LM157-.LFBB8
 2484               	.LM157:
 2485 0c1e 8091 0000 		lds r24,display+2
 2486 0c22 9091 0000 		lds r25,display+2+1
 2487 0c26 0197      		sbiw r24,1
 2488 0c28 95B9      		out 0x5,r25
 2489 0c2a 4398      		cbi 0x8,3
 2490 0c2c 439A      		sbi 0x8,3
 2491 0c2e 8091 0000 		lds r24,display+2
 2492 0c32 8150      		subi r24,lo8(-(-1))
 2493 0c34 85B9      		out 0x5,r24
 2494 0c36 4398      		cbi 0x8,3
 2495 0c38 439A      		sbi 0x8,3
 2496               	/* epilogue start */
 283:lcd.c         **** }
 2497               		.stabn	68,0,283,.LM158-.LFBB8
 2498               	.LM158:
 2499 0c3a 0895      		ret
 2500               	.L64:
 262:lcd.c         **** 		display.width = LCDHEIGHT;
 2501               		.stabn	68,0,262,.LM159-.LFBB8
 2502               	.LM159:
 2503 0c3c 2130      		cpi r18,1
 2504 0c3e 3105      		cpc r19,__zero_reg__
 2505 0c40 01F4      		brne .L66
 263:lcd.c         **** 		display.height = LCDWIDTH;
 2506               		.stabn	68,0,263,.LM160-.LFBB8
 2507               	.LM160:
 2508 0c42 80E4      		ldi r24,lo8(64)
 2509 0c44 91E0      		ldi r25,lo8(1)
 2510 0c46 9093 0000 		sts display+1,r25
 2511 0c4a 8093 0000 		sts display,r24
 264:lcd.c         **** 		write_data(0xE8);
 2512               		.stabn	68,0,264,.LM161-.LFBB8
 2513               	.LM161:
 2514 0c4e 80EF      		ldi r24,lo8(-16)
 2515 0c50 90E0      		ldi r25,0
 2516 0c52 9093 0000 		sts display+2+1,r25
 2517 0c56 8093 0000 		sts display+2,r24
 265:lcd.c         **** 	}
 2518               		.stabn	68,0,265,.LM162-.LFBB8
 2519               	.LM162:
 2520 0c5a 88EE      		ldi r24,lo8(-24)
 2521 0c5c 00C0      		rjmp .L68
 2522               	.L66:
 267:lcd.c         **** 		display.width = LCDWIDTH;
 2523               		.stabn	68,0,267,.LM163-.LFBB8
 2524               	.LM163:
GAS LISTING /tmp/ccgw1eT1.s 			page 51


 2525 0c5e 2230      		cpi r18,2
 2526 0c60 3105      		cpc r19,__zero_reg__
 2527 0c62 01F4      		brne .L67
 268:lcd.c         **** 		display.height = LCDHEIGHT;
 2528               		.stabn	68,0,268,.LM164-.LFBB8
 2529               	.LM164:
 2530 0c64 80EF      		ldi r24,lo8(-16)
 2531 0c66 90E0      		ldi r25,0
 2532 0c68 9093 0000 		sts display+1,r25
 2533 0c6c 8093 0000 		sts display,r24
 269:lcd.c         **** 		write_data(0x88);
 2534               		.stabn	68,0,269,.LM165-.LFBB8
 2535               	.LM165:
 2536 0c70 80E4      		ldi r24,lo8(64)
 2537 0c72 91E0      		ldi r25,lo8(1)
 2538 0c74 9093 0000 		sts display+2+1,r25
 2539 0c78 8093 0000 		sts display+2,r24
 270:lcd.c         **** 	}
 2540               		.stabn	68,0,270,.LM166-.LFBB8
 2541               	.LM166:
 2542 0c7c 88E8      		ldi r24,lo8(-120)
 2543 0c7e 00C0      		rjmp .L68
 2544               	.L67:
 272:lcd.c         **** 		display.width = LCDHEIGHT;
 2545               		.stabn	68,0,272,.LM167-.LFBB8
 2546               	.LM167:
 2547 0c80 2330      		cpi r18,3
 2548 0c82 3105      		cpc r19,__zero_reg__
 2549 0c84 01F0      		breq .+2
 2550 0c86 00C0      		rjmp .L65
 273:lcd.c         **** 		display.height = LCDWIDTH;
 2551               		.stabn	68,0,273,.LM168-.LFBB8
 2552               	.LM168:
 2553 0c88 80E4      		ldi r24,lo8(64)
 2554 0c8a 91E0      		ldi r25,lo8(1)
 2555 0c8c 9093 0000 		sts display+1,r25
 2556 0c90 8093 0000 		sts display,r24
 274:lcd.c         **** 		write_data(0x28);
 2557               		.stabn	68,0,274,.LM169-.LFBB8
 2558               	.LM169:
 2559 0c94 80EF      		ldi r24,lo8(-16)
 2560 0c96 90E0      		ldi r25,0
 2561 0c98 9093 0000 		sts display+2+1,r25
 2562 0c9c 8093 0000 		sts display+2,r24
 275:lcd.c         **** 	}
 2563               		.stabn	68,0,275,.LM170-.LFBB8
 2564               	.LM170:
 2565 0ca0 88E2      		ldi r24,lo8(40)
 2566 0ca2 00C0      		rjmp .L68
 2567               		.size	set_orientation, .-set_orientation
 2568               	.Lscope8:
 2569               		.stabs	"",36,0,0,.Lscope8-.LFBB8
 2570               		.stabs	"fill_rectangle:F(0,1)",36,0,285,fill_rectangle
 2571               		.stabs	"r:p(0,12)=(0,13)=s8left:(0,4),0,16;right:(0,4),16,16;top:(0,4),32,16;bottom:(0,4),48,16;;"
 2572               	.global	fill_rectangle
 2573               		.type	fill_rectangle, @function
 2574               	fill_rectangle:
GAS LISTING /tmp/ccgw1eT1.s 			page 52


 284:lcd.c         **** 
 285:lcd.c         **** void fill_rectangle(rectangle r, uint16_t col)
 286:lcd.c         **** {
 2575               		.stabn	68,0,286,.LM171-.LFBB9
 2576               	.LM171:
 2577               	.LFBB9:
 2578 0ca4 0F93      		push r16
 2579 0ca6 1F93      		push r17
 2580 0ca8 CF93      		push r28
 2581 0caa DF93      		push r29
 2582 0cac CDB7      		in r28,__SP_L__
 2583 0cae DEB7      		in r29,__SP_H__
 2584 0cb0 2897      		sbiw r28,8
 2585 0cb2 0FB6      		in __tmp_reg__,__SREG__
 2586 0cb4 F894      		cli
 2587 0cb6 DEBF      		out __SP_H__,r29
 2588 0cb8 0FBE      		out __SREG__,__tmp_reg__
 2589 0cba CDBF      		out __SP_L__,r28
 2590               	/* prologue: function */
 2591               	/* frame size = 8 */
 2592               	/* stack size = 12 */
 2593               	.L__stack_usage = 12
 2594 0cbc 2983      		std Y+1,r18
 2595 0cbe 3A83      		std Y+2,r19
 2596 0cc0 4B83      		std Y+3,r20
 2597 0cc2 5C83      		std Y+4,r21
 2598 0cc4 462F      		mov r20,r22
 2599 0cc6 6D83      		std Y+5,r22
 2600 0cc8 572F      		mov r21,r23
 2601 0cca 7E83      		std Y+6,r23
 2602 0ccc 8F83      		std Y+7,r24
 2603 0cce 9887      		std Y+8,r25
 2604 0cd0 8981      		ldd r24,Y+1
 2605 0cd2 9A81      		ldd r25,Y+2
 2606 0cd4 6B81      		ldd r22,Y+3
 2607 0cd6 7C81      		ldd r23,Y+4
 2608 0cd8 EF81      		ldd r30,Y+7
 2609 0cda F885      		ldd r31,Y+8
 287:lcd.c         **** 	uint16_t x, y;
 288:lcd.c         **** 	write_cmd(COLUMN_ADDRESS_SET);
 2610               		.stabn	68,0,288,.LM172-.LFBB9
 2611               	.LM172:
 2612 0cdc 4498      		cbi 0x8,4
 2613 0cde 2AE2      		ldi r18,lo8(42)
 2614 0ce0 25B9      		out 0x5,r18
 2615 0ce2 4398      		cbi 0x8,3
 2616 0ce4 439A      		sbi 0x8,3
 2617 0ce6 449A      		sbi 0x8,4
 289:lcd.c         **** 	write_data16(r.left);
 2618               		.stabn	68,0,289,.LM173-.LFBB9
 2619               	.LM173:
 2620 0ce8 95B9      		out 0x5,r25
 2621 0cea 4398      		cbi 0x8,3
 2622 0cec 439A      		sbi 0x8,3
 2623 0cee 85B9      		out 0x5,r24
 2624 0cf0 4398      		cbi 0x8,3
 2625 0cf2 439A      		sbi 0x8,3
GAS LISTING /tmp/ccgw1eT1.s 			page 53


 290:lcd.c         **** 	write_data16(r.right);
 2626               		.stabn	68,0,290,.LM174-.LFBB9
 2627               	.LM174:
 2628 0cf4 75B9      		out 0x5,r23
 2629 0cf6 4398      		cbi 0x8,3
 2630 0cf8 439A      		sbi 0x8,3
 2631 0cfa 65B9      		out 0x5,r22
 2632 0cfc 4398      		cbi 0x8,3
 2633 0cfe 439A      		sbi 0x8,3
 291:lcd.c         **** 	write_cmd(PAGE_ADDRESS_SET);
 2634               		.stabn	68,0,291,.LM175-.LFBB9
 2635               	.LM175:
 2636 0d00 4498      		cbi 0x8,4
 2637 0d02 2BE2      		ldi r18,lo8(43)
 2638 0d04 25B9      		out 0x5,r18
 2639 0d06 4398      		cbi 0x8,3
 2640 0d08 439A      		sbi 0x8,3
 2641 0d0a 449A      		sbi 0x8,4
 292:lcd.c         **** 	write_data16(r.top);
 2642               		.stabn	68,0,292,.LM176-.LFBB9
 2643               	.LM176:
 2644 0d0c 55B9      		out 0x5,r21
 2645 0d0e 4398      		cbi 0x8,3
 2646 0d10 439A      		sbi 0x8,3
 2647 0d12 45B9      		out 0x5,r20
 2648 0d14 4398      		cbi 0x8,3
 2649 0d16 439A      		sbi 0x8,3
 293:lcd.c         **** 	write_data16(r.bottom);
 2650               		.stabn	68,0,293,.LM177-.LFBB9
 2651               	.LM177:
 2652 0d18 F5B9      		out 0x5,r31
 2653 0d1a 4398      		cbi 0x8,3
 2654 0d1c 439A      		sbi 0x8,3
 2655 0d1e E5B9      		out 0x5,r30
 2656 0d20 4398      		cbi 0x8,3
 2657 0d22 439A      		sbi 0x8,3
 294:lcd.c         **** 	write_cmd(MEMORY_WRITE);
 2658               		.stabn	68,0,294,.LM178-.LFBB9
 2659               	.LM178:
 2660 0d24 4498      		cbi 0x8,4
 2661 0d26 2CE2      		ldi r18,lo8(44)
 2662 0d28 25B9      		out 0x5,r18
 2663 0d2a 4398      		cbi 0x8,3
 2664 0d2c 439A      		sbi 0x8,3
 2665 0d2e 449A      		sbi 0x8,4
 2666               	.L70:
 295:lcd.c         **** 	for(x=r.left; x<=r.right; x++)
 2667               		.stabn	68,0,295,.LM179-.LFBB9
 2668               	.LM179:
 2669 0d30 6817      		cp r22,r24
 2670 0d32 7907      		cpc r23,r25
 2671 0d34 00F4      		brsh .L73
 2672               	/* epilogue start */
 296:lcd.c         **** 		for(y=r.top; y<=r.bottom; y++)
 297:lcd.c         **** 			write_data16(col);
 298:lcd.c         **** }
 2673               		.stabn	68,0,298,.LM180-.LFBB9
GAS LISTING /tmp/ccgw1eT1.s 			page 54


 2674               	.LM180:
 2675 0d36 2896      		adiw r28,8
 2676 0d38 0FB6      		in __tmp_reg__,__SREG__
 2677 0d3a F894      		cli
 2678 0d3c DEBF      		out __SP_H__,r29
 2679 0d3e 0FBE      		out __SREG__,__tmp_reg__
 2680 0d40 CDBF      		out __SP_L__,r28
 2681 0d42 DF91      		pop r29
 2682 0d44 CF91      		pop r28
 2683 0d46 1F91      		pop r17
 2684 0d48 0F91      		pop r16
 2685 0d4a 0895      		ret
 2686               	.L71:
 297:lcd.c         **** }
 2687               		.stabn	68,0,297,.LM181-.LFBB9
 2688               	.LM181:
 2689 0d4c 15B9      		out 0x5,r17
 2690 0d4e 4398      		cbi 0x8,3
 2691 0d50 439A      		sbi 0x8,3
 2692 0d52 05B9      		out 0x5,r16
 2693 0d54 4398      		cbi 0x8,3
 2694 0d56 439A      		sbi 0x8,3
 296:lcd.c         **** 		for(y=r.top; y<=r.bottom; y++)
 2695               		.stabn	68,0,296,.LM182-.LFBB9
 2696               	.LM182:
 2697 0d58 2F5F      		subi r18,-1
 2698 0d5a 3F4F      		sbci r19,-1
 2699               	.L72:
 296:lcd.c         **** 		for(y=r.top; y<=r.bottom; y++)
 2700               		.stabn	68,0,296,.LM183-.LFBB9
 2701               	.LM183:
 2702 0d5c E217      		cp r30,r18
 2703 0d5e F307      		cpc r31,r19
 2704 0d60 00F4      		brsh .L71
 295:lcd.c         **** 	for(x=r.left; x<=r.right; x++)
 2705               		.stabn	68,0,295,.LM184-.LFBB9
 2706               	.LM184:
 2707 0d62 0196      		adiw r24,1
 2708 0d64 00C0      		rjmp .L70
 2709               	.L73:
 296:lcd.c         **** 		for(y=r.top; y<=r.bottom; y++)
 2710               		.stabn	68,0,296,.LM185-.LFBB9
 2711               	.LM185:
 2712 0d66 9A01      		movw r18,r20
 2713 0d68 00C0      		rjmp .L72
 2714               		.size	fill_rectangle, .-fill_rectangle
 2715               		.stabs	"x:r(0,4)",64,0,287,24
 2716               		.stabs	"y:r(0,4)",64,0,287,18
 2717               		.stabn	192,0,0,.LFBB9-.LFBB9
 2718               		.stabn	224,0,0,.Lscope9-.LFBB9
 2719               	.Lscope9:
 2720               		.stabs	"",36,0,0,.Lscope9-.LFBB9
 2721               		.section	.rodata
 2722               	.LC0:
 2723 0000 1800      		.word	24
 2724 0002 1C00      		.word	28
 2725 0004 1200      		.word	18
GAS LISTING /tmp/ccgw1eT1.s 			page 55


 2726 0006 1600      		.word	22
 2727               		.text
 2728               		.stabs	"LC1_green:F(0,1)",36,0,300,LC1_green
 2729               	.global	LC1_green
 2730               		.type	LC1_green, @function
 2731               	LC1_green:
 299:lcd.c         **** 
 300:lcd.c         **** void LC1_green(void)
 301:lcd.c         **** {
 2732               		.stabn	68,0,301,.LM186-.LFBB10
 2733               	.LM186:
 2734               	.LFBB10:
 2735 0d6a 0F93      		push r16
 2736 0d6c 1F93      		push r17
 2737 0d6e CF93      		push r28
 2738 0d70 DF93      		push r29
 2739 0d72 CDB7      		in r28,__SP_L__
 2740 0d74 DEB7      		in r29,__SP_H__
 2741 0d76 2897      		sbiw r28,8
 2742 0d78 0FB6      		in __tmp_reg__,__SREG__
 2743 0d7a F894      		cli
 2744 0d7c DEBF      		out __SP_H__,r29
 2745 0d7e 0FBE      		out __SREG__,__tmp_reg__
 2746 0d80 CDBF      		out __SP_L__,r28
 2747               	/* prologue: function */
 2748               	/* frame size = 8 */
 2749               	/* stack size = 12 */
 2750               	.L__stack_usage = 12
 302:lcd.c         **** 	rectangle LC1 = {24,28,18,22};
 2751               		.stabn	68,0,302,.LM187-.LFBB10
 2752               	.LM187:
 2753 0d82 88E0      		ldi r24,lo8(8)
 2754 0d84 E0E0      		ldi r30,lo8(.LC0)
 2755 0d86 F0E0      		ldi r31,hi8(.LC0)
 2756 0d88 DE01      		movw r26,r28
 2757 0d8a 1196      		adiw r26,1
 2758               		0:
 2759 0d8c 0190      		ld r0,Z+
 2760 0d8e 0D92      		st X+,r0
 2761 0d90 8A95      		dec r24
 2762 0d92 01F4      		brne 0b
 303:lcd.c         **** 	fill_rectangle(LC1,GREEN);
 2763               		.stabn	68,0,303,.LM188-.LFBB10
 2764               	.LM188:
 2765 0d94 00EE      		ldi r16,lo8(-32)
 2766 0d96 17E0      		ldi r17,lo8(7)
 2767 0d98 2981      		ldd r18,Y+1
 2768 0d9a 3A81      		ldd r19,Y+2
 2769 0d9c 4B81      		ldd r20,Y+3
 2770 0d9e 5C81      		ldd r21,Y+4
 2771 0da0 6D81      		ldd r22,Y+5
 2772 0da2 7E81      		ldd r23,Y+6
 2773 0da4 8F81      		ldd r24,Y+7
 2774 0da6 9885      		ldd r25,Y+8
 2775 0da8 0E94 0000 		call fill_rectangle
 2776               	/* epilogue start */
 304:lcd.c         **** }
GAS LISTING /tmp/ccgw1eT1.s 			page 56


 2777               		.stabn	68,0,304,.LM189-.LFBB10
 2778               	.LM189:
 2779 0dac 2896      		adiw r28,8
 2780 0dae 0FB6      		in __tmp_reg__,__SREG__
 2781 0db0 F894      		cli
 2782 0db2 DEBF      		out __SP_H__,r29
 2783 0db4 0FBE      		out __SREG__,__tmp_reg__
 2784 0db6 CDBF      		out __SP_L__,r28
 2785 0db8 DF91      		pop r29
 2786 0dba CF91      		pop r28
 2787 0dbc 1F91      		pop r17
 2788 0dbe 0F91      		pop r16
 2789 0dc0 0895      		ret
 2790               		.size	LC1_green, .-LC1_green
 2791               		.stabs	"LC1:(0,12)",128,0,302,1
 2792               		.stabs	"rectangle:t(0,12)",128,0,34,0
 2793               		.stabn	192,0,0,.LFBB10-.LFBB10
 2794               		.stabn	224,0,0,.Lscope10-.LFBB10
 2795               	.Lscope10:
 2796               		.stabs	"",36,0,0,.Lscope10-.LFBB10
 2797               		.stabs	"LC1_red:F(0,1)",36,0,306,LC1_red
 2798               	.global	LC1_red
 2799               		.type	LC1_red, @function
 2800               	LC1_red:
 305:lcd.c         **** 
 306:lcd.c         **** void LC1_red(void)
 307:lcd.c         **** {
 2801               		.stabn	68,0,307,.LM190-.LFBB11
 2802               	.LM190:
 2803               	.LFBB11:
 2804 0dc2 0F93      		push r16
 2805 0dc4 1F93      		push r17
 2806 0dc6 CF93      		push r28
 2807 0dc8 DF93      		push r29
 2808 0dca CDB7      		in r28,__SP_L__
 2809 0dcc DEB7      		in r29,__SP_H__
 2810 0dce 2897      		sbiw r28,8
 2811 0dd0 0FB6      		in __tmp_reg__,__SREG__
 2812 0dd2 F894      		cli
 2813 0dd4 DEBF      		out __SP_H__,r29
 2814 0dd6 0FBE      		out __SREG__,__tmp_reg__
 2815 0dd8 CDBF      		out __SP_L__,r28
 2816               	/* prologue: function */
 2817               	/* frame size = 8 */
 2818               	/* stack size = 12 */
 2819               	.L__stack_usage = 12
 308:lcd.c         **** 	rectangle LC1 = {24,28,18,22};
 2820               		.stabn	68,0,308,.LM191-.LFBB11
 2821               	.LM191:
 2822 0dda 88E0      		ldi r24,lo8(8)
 2823 0ddc E0E0      		ldi r30,lo8(.LC0)
 2824 0dde F0E0      		ldi r31,hi8(.LC0)
 2825 0de0 DE01      		movw r26,r28
 2826 0de2 1196      		adiw r26,1
 2827               		0:
 2828 0de4 0190      		ld r0,Z+
 2829 0de6 0D92      		st X+,r0
GAS LISTING /tmp/ccgw1eT1.s 			page 57


 2830 0de8 8A95      		dec r24
 2831 0dea 01F4      		brne 0b
 309:lcd.c         **** 	fill_rectangle(LC1,RED);
 2832               		.stabn	68,0,309,.LM192-.LFBB11
 2833               	.LM192:
 2834 0dec 00E0      		ldi r16,0
 2835 0dee 18EF      		ldi r17,lo8(-8)
 2836 0df0 2981      		ldd r18,Y+1
 2837 0df2 3A81      		ldd r19,Y+2
 2838 0df4 4B81      		ldd r20,Y+3
 2839 0df6 5C81      		ldd r21,Y+4
 2840 0df8 6D81      		ldd r22,Y+5
 2841 0dfa 7E81      		ldd r23,Y+6
 2842 0dfc 8F81      		ldd r24,Y+7
 2843 0dfe 9885      		ldd r25,Y+8
 2844 0e00 0E94 0000 		call fill_rectangle
 2845               	/* epilogue start */
 310:lcd.c         **** }
 2846               		.stabn	68,0,310,.LM193-.LFBB11
 2847               	.LM193:
 2848 0e04 2896      		adiw r28,8
 2849 0e06 0FB6      		in __tmp_reg__,__SREG__
 2850 0e08 F894      		cli
 2851 0e0a DEBF      		out __SP_H__,r29
 2852 0e0c 0FBE      		out __SREG__,__tmp_reg__
 2853 0e0e CDBF      		out __SP_L__,r28
 2854 0e10 DF91      		pop r29
 2855 0e12 CF91      		pop r28
 2856 0e14 1F91      		pop r17
 2857 0e16 0F91      		pop r16
 2858 0e18 0895      		ret
 2859               		.size	LC1_red, .-LC1_red
 2860               		.stabs	"LC1:(0,12)",128,0,308,1
 2861               		.stabn	192,0,0,.LFBB11-.LFBB11
 2862               		.stabn	224,0,0,.Lscope11-.LFBB11
 2863               	.Lscope11:
 2864               		.stabs	"",36,0,0,.Lscope11-.LFBB11
 2865               		.section	.rodata
 2866               	.LC1:
 2867 0008 1800      		.word	24
 2868 000a 1C00      		.word	28
 2869 000c 3200      		.word	50
 2870 000e 3600      		.word	54
 2871               		.text
 2872               		.stabs	"LC2_green:F(0,1)",36,0,312,LC2_green
 2873               	.global	LC2_green
 2874               		.type	LC2_green, @function
 2875               	LC2_green:
 311:lcd.c         **** 
 312:lcd.c         **** void LC2_green(void)
 313:lcd.c         **** {
 2876               		.stabn	68,0,313,.LM194-.LFBB12
 2877               	.LM194:
 2878               	.LFBB12:
 2879 0e1a 0F93      		push r16
 2880 0e1c 1F93      		push r17
 2881 0e1e CF93      		push r28
GAS LISTING /tmp/ccgw1eT1.s 			page 58


 2882 0e20 DF93      		push r29
 2883 0e22 CDB7      		in r28,__SP_L__
 2884 0e24 DEB7      		in r29,__SP_H__
 2885 0e26 2897      		sbiw r28,8
 2886 0e28 0FB6      		in __tmp_reg__,__SREG__
 2887 0e2a F894      		cli
 2888 0e2c DEBF      		out __SP_H__,r29
 2889 0e2e 0FBE      		out __SREG__,__tmp_reg__
 2890 0e30 CDBF      		out __SP_L__,r28
 2891               	/* prologue: function */
 2892               	/* frame size = 8 */
 2893               	/* stack size = 12 */
 2894               	.L__stack_usage = 12
 314:lcd.c         **** 	rectangle LC2 = {24,28,50,54};
 2895               		.stabn	68,0,314,.LM195-.LFBB12
 2896               	.LM195:
 2897 0e32 88E0      		ldi r24,lo8(8)
 2898 0e34 E0E0      		ldi r30,lo8(.LC1)
 2899 0e36 F0E0      		ldi r31,hi8(.LC1)
 2900 0e38 DE01      		movw r26,r28
 2901 0e3a 1196      		adiw r26,1
 2902               		0:
 2903 0e3c 0190      		ld r0,Z+
 2904 0e3e 0D92      		st X+,r0
 2905 0e40 8A95      		dec r24
 2906 0e42 01F4      		brne 0b
 315:lcd.c         **** 	fill_rectangle(LC2,GREEN);
 2907               		.stabn	68,0,315,.LM196-.LFBB12
 2908               	.LM196:
 2909 0e44 00EE      		ldi r16,lo8(-32)
 2910 0e46 17E0      		ldi r17,lo8(7)
 2911 0e48 2981      		ldd r18,Y+1
 2912 0e4a 3A81      		ldd r19,Y+2
 2913 0e4c 4B81      		ldd r20,Y+3
 2914 0e4e 5C81      		ldd r21,Y+4
 2915 0e50 6D81      		ldd r22,Y+5
 2916 0e52 7E81      		ldd r23,Y+6
 2917 0e54 8F81      		ldd r24,Y+7
 2918 0e56 9885      		ldd r25,Y+8
 2919 0e58 0E94 0000 		call fill_rectangle
 2920               	/* epilogue start */
 316:lcd.c         **** }
 2921               		.stabn	68,0,316,.LM197-.LFBB12
 2922               	.LM197:
 2923 0e5c 2896      		adiw r28,8
 2924 0e5e 0FB6      		in __tmp_reg__,__SREG__
 2925 0e60 F894      		cli
 2926 0e62 DEBF      		out __SP_H__,r29
 2927 0e64 0FBE      		out __SREG__,__tmp_reg__
 2928 0e66 CDBF      		out __SP_L__,r28
 2929 0e68 DF91      		pop r29
 2930 0e6a CF91      		pop r28
 2931 0e6c 1F91      		pop r17
 2932 0e6e 0F91      		pop r16
 2933 0e70 0895      		ret
 2934               		.size	LC2_green, .-LC2_green
 2935               		.stabs	"LC2:(0,12)",128,0,314,1
GAS LISTING /tmp/ccgw1eT1.s 			page 59


 2936               		.stabn	192,0,0,.LFBB12-.LFBB12
 2937               		.stabn	224,0,0,.Lscope12-.LFBB12
 2938               	.Lscope12:
 2939               		.stabs	"",36,0,0,.Lscope12-.LFBB12
 2940               		.stabs	"LC2_red:F(0,1)",36,0,318,LC2_red
 2941               	.global	LC2_red
 2942               		.type	LC2_red, @function
 2943               	LC2_red:
 317:lcd.c         **** 
 318:lcd.c         **** void LC2_red(void)
 319:lcd.c         **** {
 2944               		.stabn	68,0,319,.LM198-.LFBB13
 2945               	.LM198:
 2946               	.LFBB13:
 2947 0e72 0F93      		push r16
 2948 0e74 1F93      		push r17
 2949 0e76 CF93      		push r28
 2950 0e78 DF93      		push r29
 2951 0e7a CDB7      		in r28,__SP_L__
 2952 0e7c DEB7      		in r29,__SP_H__
 2953 0e7e 2897      		sbiw r28,8
 2954 0e80 0FB6      		in __tmp_reg__,__SREG__
 2955 0e82 F894      		cli
 2956 0e84 DEBF      		out __SP_H__,r29
 2957 0e86 0FBE      		out __SREG__,__tmp_reg__
 2958 0e88 CDBF      		out __SP_L__,r28
 2959               	/* prologue: function */
 2960               	/* frame size = 8 */
 2961               	/* stack size = 12 */
 2962               	.L__stack_usage = 12
 320:lcd.c         **** 	rectangle LC2 = {24,28,50,54};
 2963               		.stabn	68,0,320,.LM199-.LFBB13
 2964               	.LM199:
 2965 0e8a 88E0      		ldi r24,lo8(8)
 2966 0e8c E0E0      		ldi r30,lo8(.LC1)
 2967 0e8e F0E0      		ldi r31,hi8(.LC1)
 2968 0e90 DE01      		movw r26,r28
 2969 0e92 1196      		adiw r26,1
 2970               		0:
 2971 0e94 0190      		ld r0,Z+
 2972 0e96 0D92      		st X+,r0
 2973 0e98 8A95      		dec r24
 2974 0e9a 01F4      		brne 0b
 321:lcd.c         **** 	fill_rectangle(LC2,RED);
 2975               		.stabn	68,0,321,.LM200-.LFBB13
 2976               	.LM200:
 2977 0e9c 00E0      		ldi r16,0
 2978 0e9e 18EF      		ldi r17,lo8(-8)
 2979 0ea0 2981      		ldd r18,Y+1
 2980 0ea2 3A81      		ldd r19,Y+2
 2981 0ea4 4B81      		ldd r20,Y+3
 2982 0ea6 5C81      		ldd r21,Y+4
 2983 0ea8 6D81      		ldd r22,Y+5
 2984 0eaa 7E81      		ldd r23,Y+6
 2985 0eac 8F81      		ldd r24,Y+7
 2986 0eae 9885      		ldd r25,Y+8
 2987 0eb0 0E94 0000 		call fill_rectangle
GAS LISTING /tmp/ccgw1eT1.s 			page 60


 2988               	/* epilogue start */
 322:lcd.c         **** }
 2989               		.stabn	68,0,322,.LM201-.LFBB13
 2990               	.LM201:
 2991 0eb4 2896      		adiw r28,8
 2992 0eb6 0FB6      		in __tmp_reg__,__SREG__
 2993 0eb8 F894      		cli
 2994 0eba DEBF      		out __SP_H__,r29
 2995 0ebc 0FBE      		out __SREG__,__tmp_reg__
 2996 0ebe CDBF      		out __SP_L__,r28
 2997 0ec0 DF91      		pop r29
 2998 0ec2 CF91      		pop r28
 2999 0ec4 1F91      		pop r17
 3000 0ec6 0F91      		pop r16
 3001 0ec8 0895      		ret
 3002               		.size	LC2_red, .-LC2_red
 3003               		.stabs	"LC2:(0,12)",128,0,320,1
 3004               		.stabn	192,0,0,.LFBB13-.LFBB13
 3005               		.stabn	224,0,0,.Lscope13-.LFBB13
 3006               	.Lscope13:
 3007               		.stabs	"",36,0,0,.Lscope13-.LFBB13
 3008               		.section	.rodata
 3009               	.LC2:
 3010 0010 1800      		.word	24
 3011 0012 1C00      		.word	28
 3012 0014 5000      		.word	80
 3013 0016 5400      		.word	84
 3014               		.text
 3015               		.stabs	"LC3_green:F(0,1)",36,0,324,LC3_green
 3016               	.global	LC3_green
 3017               		.type	LC3_green, @function
 3018               	LC3_green:
 323:lcd.c         **** 
 324:lcd.c         **** void LC3_green(void)
 325:lcd.c         **** {
 3019               		.stabn	68,0,325,.LM202-.LFBB14
 3020               	.LM202:
 3021               	.LFBB14:
 3022 0eca 0F93      		push r16
 3023 0ecc 1F93      		push r17
 3024 0ece CF93      		push r28
 3025 0ed0 DF93      		push r29
 3026 0ed2 CDB7      		in r28,__SP_L__
 3027 0ed4 DEB7      		in r29,__SP_H__
 3028 0ed6 2897      		sbiw r28,8
 3029 0ed8 0FB6      		in __tmp_reg__,__SREG__
 3030 0eda F894      		cli
 3031 0edc DEBF      		out __SP_H__,r29
 3032 0ede 0FBE      		out __SREG__,__tmp_reg__
 3033 0ee0 CDBF      		out __SP_L__,r28
 3034               	/* prologue: function */
 3035               	/* frame size = 8 */
 3036               	/* stack size = 12 */
 3037               	.L__stack_usage = 12
 326:lcd.c         **** 	rectangle LC3 = {24,28,80,84};
 3038               		.stabn	68,0,326,.LM203-.LFBB14
 3039               	.LM203:
GAS LISTING /tmp/ccgw1eT1.s 			page 61


 3040 0ee2 88E0      		ldi r24,lo8(8)
 3041 0ee4 E0E0      		ldi r30,lo8(.LC2)
 3042 0ee6 F0E0      		ldi r31,hi8(.LC2)
 3043 0ee8 DE01      		movw r26,r28
 3044 0eea 1196      		adiw r26,1
 3045               		0:
 3046 0eec 0190      		ld r0,Z+
 3047 0eee 0D92      		st X+,r0
 3048 0ef0 8A95      		dec r24
 3049 0ef2 01F4      		brne 0b
 327:lcd.c         **** 	fill_rectangle(LC3,GREEN);
 3050               		.stabn	68,0,327,.LM204-.LFBB14
 3051               	.LM204:
 3052 0ef4 00EE      		ldi r16,lo8(-32)
 3053 0ef6 17E0      		ldi r17,lo8(7)
 3054 0ef8 2981      		ldd r18,Y+1
 3055 0efa 3A81      		ldd r19,Y+2
 3056 0efc 4B81      		ldd r20,Y+3
 3057 0efe 5C81      		ldd r21,Y+4
 3058 0f00 6D81      		ldd r22,Y+5
 3059 0f02 7E81      		ldd r23,Y+6
 3060 0f04 8F81      		ldd r24,Y+7
 3061 0f06 9885      		ldd r25,Y+8
 3062 0f08 0E94 0000 		call fill_rectangle
 3063               	/* epilogue start */
 328:lcd.c         **** }
 3064               		.stabn	68,0,328,.LM205-.LFBB14
 3065               	.LM205:
 3066 0f0c 2896      		adiw r28,8
 3067 0f0e 0FB6      		in __tmp_reg__,__SREG__
 3068 0f10 F894      		cli
 3069 0f12 DEBF      		out __SP_H__,r29
 3070 0f14 0FBE      		out __SREG__,__tmp_reg__
 3071 0f16 CDBF      		out __SP_L__,r28
 3072 0f18 DF91      		pop r29
 3073 0f1a CF91      		pop r28
 3074 0f1c 1F91      		pop r17
 3075 0f1e 0F91      		pop r16
 3076 0f20 0895      		ret
 3077               		.size	LC3_green, .-LC3_green
 3078               		.stabs	"LC3:(0,12)",128,0,326,1
 3079               		.stabn	192,0,0,.LFBB14-.LFBB14
 3080               		.stabn	224,0,0,.Lscope14-.LFBB14
 3081               	.Lscope14:
 3082               		.stabs	"",36,0,0,.Lscope14-.LFBB14
 3083               		.stabs	"LC3_red:F(0,1)",36,0,330,LC3_red
 3084               	.global	LC3_red
 3085               		.type	LC3_red, @function
 3086               	LC3_red:
 329:lcd.c         **** 
 330:lcd.c         **** void LC3_red(void)
 331:lcd.c         **** {
 3087               		.stabn	68,0,331,.LM206-.LFBB15
 3088               	.LM206:
 3089               	.LFBB15:
 3090 0f22 0F93      		push r16
 3091 0f24 1F93      		push r17
GAS LISTING /tmp/ccgw1eT1.s 			page 62


 3092 0f26 CF93      		push r28
 3093 0f28 DF93      		push r29
 3094 0f2a CDB7      		in r28,__SP_L__
 3095 0f2c DEB7      		in r29,__SP_H__
 3096 0f2e 2897      		sbiw r28,8
 3097 0f30 0FB6      		in __tmp_reg__,__SREG__
 3098 0f32 F894      		cli
 3099 0f34 DEBF      		out __SP_H__,r29
 3100 0f36 0FBE      		out __SREG__,__tmp_reg__
 3101 0f38 CDBF      		out __SP_L__,r28
 3102               	/* prologue: function */
 3103               	/* frame size = 8 */
 3104               	/* stack size = 12 */
 3105               	.L__stack_usage = 12
 332:lcd.c         **** 	rectangle LC3 = {24,28,80,84};
 3106               		.stabn	68,0,332,.LM207-.LFBB15
 3107               	.LM207:
 3108 0f3a 88E0      		ldi r24,lo8(8)
 3109 0f3c E0E0      		ldi r30,lo8(.LC2)
 3110 0f3e F0E0      		ldi r31,hi8(.LC2)
 3111 0f40 DE01      		movw r26,r28
 3112 0f42 1196      		adiw r26,1
 3113               		0:
 3114 0f44 0190      		ld r0,Z+
 3115 0f46 0D92      		st X+,r0
 3116 0f48 8A95      		dec r24
 3117 0f4a 01F4      		brne 0b
 333:lcd.c         **** 	fill_rectangle(LC3,RED);
 3118               		.stabn	68,0,333,.LM208-.LFBB15
 3119               	.LM208:
 3120 0f4c 00E0      		ldi r16,0
 3121 0f4e 18EF      		ldi r17,lo8(-8)
 3122 0f50 2981      		ldd r18,Y+1
 3123 0f52 3A81      		ldd r19,Y+2
 3124 0f54 4B81      		ldd r20,Y+3
 3125 0f56 5C81      		ldd r21,Y+4
 3126 0f58 6D81      		ldd r22,Y+5
 3127 0f5a 7E81      		ldd r23,Y+6
 3128 0f5c 8F81      		ldd r24,Y+7
 3129 0f5e 9885      		ldd r25,Y+8
 3130 0f60 0E94 0000 		call fill_rectangle
 3131               	/* epilogue start */
 334:lcd.c         **** }
 3132               		.stabn	68,0,334,.LM209-.LFBB15
 3133               	.LM209:
 3134 0f64 2896      		adiw r28,8
 3135 0f66 0FB6      		in __tmp_reg__,__SREG__
 3136 0f68 F894      		cli
 3137 0f6a DEBF      		out __SP_H__,r29
 3138 0f6c 0FBE      		out __SREG__,__tmp_reg__
 3139 0f6e CDBF      		out __SP_L__,r28
 3140 0f70 DF91      		pop r29
 3141 0f72 CF91      		pop r28
 3142 0f74 1F91      		pop r17
 3143 0f76 0F91      		pop r16
 3144 0f78 0895      		ret
 3145               		.size	LC3_red, .-LC3_red
GAS LISTING /tmp/ccgw1eT1.s 			page 63


 3146               		.stabs	"LC3:(0,12)",128,0,332,1
 3147               		.stabn	192,0,0,.LFBB15-.LFBB15
 3148               		.stabn	224,0,0,.Lscope15-.LFBB15
 3149               	.Lscope15:
 3150               		.stabs	"",36,0,0,.Lscope15-.LFBB15
 3151               		.section	.rodata
 3152               	.LC3:
 3153 0018 D400      		.word	212
 3154 001a D800      		.word	216
 3155 001c 1200      		.word	18
 3156 001e 1600      		.word	22
 3157               		.text
 3158               		.stabs	"LS1_green:F(0,1)",36,0,337,LS1_green
 3159               	.global	LS1_green
 3160               		.type	LS1_green, @function
 3161               	LS1_green:
 335:lcd.c         **** 
 336:lcd.c         **** 
 337:lcd.c         **** void LS1_green(void)
 338:lcd.c         **** {
 3162               		.stabn	68,0,338,.LM210-.LFBB16
 3163               	.LM210:
 3164               	.LFBB16:
 3165 0f7a 0F93      		push r16
 3166 0f7c 1F93      		push r17
 3167 0f7e CF93      		push r28
 3168 0f80 DF93      		push r29
 3169 0f82 CDB7      		in r28,__SP_L__
 3170 0f84 DEB7      		in r29,__SP_H__
 3171 0f86 2897      		sbiw r28,8
 3172 0f88 0FB6      		in __tmp_reg__,__SREG__
 3173 0f8a F894      		cli
 3174 0f8c DEBF      		out __SP_H__,r29
 3175 0f8e 0FBE      		out __SREG__,__tmp_reg__
 3176 0f90 CDBF      		out __SP_L__,r28
 3177               	/* prologue: function */
 3178               	/* frame size = 8 */
 3179               	/* stack size = 12 */
 3180               	.L__stack_usage = 12
 339:lcd.c         **** 	rectangle LC1 = {212,216,18,22};
 3181               		.stabn	68,0,339,.LM211-.LFBB16
 3182               	.LM211:
 3183 0f92 88E0      		ldi r24,lo8(8)
 3184 0f94 E0E0      		ldi r30,lo8(.LC3)
 3185 0f96 F0E0      		ldi r31,hi8(.LC3)
 3186 0f98 DE01      		movw r26,r28
 3187 0f9a 1196      		adiw r26,1
 3188               		0:
 3189 0f9c 0190      		ld r0,Z+
 3190 0f9e 0D92      		st X+,r0
 3191 0fa0 8A95      		dec r24
 3192 0fa2 01F4      		brne 0b
 340:lcd.c         **** 	fill_rectangle(LC1,GREEN);
 3193               		.stabn	68,0,340,.LM212-.LFBB16
 3194               	.LM212:
 3195 0fa4 00EE      		ldi r16,lo8(-32)
 3196 0fa6 17E0      		ldi r17,lo8(7)
GAS LISTING /tmp/ccgw1eT1.s 			page 64


 3197 0fa8 2981      		ldd r18,Y+1
 3198 0faa 3A81      		ldd r19,Y+2
 3199 0fac 4B81      		ldd r20,Y+3
 3200 0fae 5C81      		ldd r21,Y+4
 3201 0fb0 6D81      		ldd r22,Y+5
 3202 0fb2 7E81      		ldd r23,Y+6
 3203 0fb4 8F81      		ldd r24,Y+7
 3204 0fb6 9885      		ldd r25,Y+8
 3205 0fb8 0E94 0000 		call fill_rectangle
 3206               	/* epilogue start */
 341:lcd.c         **** }
 3207               		.stabn	68,0,341,.LM213-.LFBB16
 3208               	.LM213:
 3209 0fbc 2896      		adiw r28,8
 3210 0fbe 0FB6      		in __tmp_reg__,__SREG__
 3211 0fc0 F894      		cli
 3212 0fc2 DEBF      		out __SP_H__,r29
 3213 0fc4 0FBE      		out __SREG__,__tmp_reg__
 3214 0fc6 CDBF      		out __SP_L__,r28
 3215 0fc8 DF91      		pop r29
 3216 0fca CF91      		pop r28
 3217 0fcc 1F91      		pop r17
 3218 0fce 0F91      		pop r16
 3219 0fd0 0895      		ret
 3220               		.size	LS1_green, .-LS1_green
 3221               		.stabs	"LC1:(0,12)",128,0,339,1
 3222               		.stabn	192,0,0,.LFBB16-.LFBB16
 3223               		.stabn	224,0,0,.Lscope16-.LFBB16
 3224               	.Lscope16:
 3225               		.stabs	"",36,0,0,.Lscope16-.LFBB16
 3226               		.stabs	"LS1_red:F(0,1)",36,0,343,LS1_red
 3227               	.global	LS1_red
 3228               		.type	LS1_red, @function
 3229               	LS1_red:
 342:lcd.c         **** 
 343:lcd.c         **** void LS1_red(void)
 344:lcd.c         **** {
 3230               		.stabn	68,0,344,.LM214-.LFBB17
 3231               	.LM214:
 3232               	.LFBB17:
 3233 0fd2 0F93      		push r16
 3234 0fd4 1F93      		push r17
 3235 0fd6 CF93      		push r28
 3236 0fd8 DF93      		push r29
 3237 0fda CDB7      		in r28,__SP_L__
 3238 0fdc DEB7      		in r29,__SP_H__
 3239 0fde 2897      		sbiw r28,8
 3240 0fe0 0FB6      		in __tmp_reg__,__SREG__
 3241 0fe2 F894      		cli
 3242 0fe4 DEBF      		out __SP_H__,r29
 3243 0fe6 0FBE      		out __SREG__,__tmp_reg__
 3244 0fe8 CDBF      		out __SP_L__,r28
 3245               	/* prologue: function */
 3246               	/* frame size = 8 */
 3247               	/* stack size = 12 */
 3248               	.L__stack_usage = 12
 345:lcd.c         **** 	rectangle LC1 = {212,216,18,22};
GAS LISTING /tmp/ccgw1eT1.s 			page 65


 3249               		.stabn	68,0,345,.LM215-.LFBB17
 3250               	.LM215:
 3251 0fea 88E0      		ldi r24,lo8(8)
 3252 0fec E0E0      		ldi r30,lo8(.LC3)
 3253 0fee F0E0      		ldi r31,hi8(.LC3)
 3254 0ff0 DE01      		movw r26,r28
 3255 0ff2 1196      		adiw r26,1
 3256               		0:
 3257 0ff4 0190      		ld r0,Z+
 3258 0ff6 0D92      		st X+,r0
 3259 0ff8 8A95      		dec r24
 3260 0ffa 01F4      		brne 0b
 346:lcd.c         **** 	fill_rectangle(LC1,RED);
 3261               		.stabn	68,0,346,.LM216-.LFBB17
 3262               	.LM216:
 3263 0ffc 00E0      		ldi r16,0
 3264 0ffe 18EF      		ldi r17,lo8(-8)
 3265 1000 2981      		ldd r18,Y+1
 3266 1002 3A81      		ldd r19,Y+2
 3267 1004 4B81      		ldd r20,Y+3
 3268 1006 5C81      		ldd r21,Y+4
 3269 1008 6D81      		ldd r22,Y+5
 3270 100a 7E81      		ldd r23,Y+6
 3271 100c 8F81      		ldd r24,Y+7
 3272 100e 9885      		ldd r25,Y+8
 3273 1010 0E94 0000 		call fill_rectangle
 3274               	/* epilogue start */
 347:lcd.c         **** }
 3275               		.stabn	68,0,347,.LM217-.LFBB17
 3276               	.LM217:
 3277 1014 2896      		adiw r28,8
 3278 1016 0FB6      		in __tmp_reg__,__SREG__
 3279 1018 F894      		cli
 3280 101a DEBF      		out __SP_H__,r29
 3281 101c 0FBE      		out __SREG__,__tmp_reg__
 3282 101e CDBF      		out __SP_L__,r28
 3283 1020 DF91      		pop r29
 3284 1022 CF91      		pop r28
 3285 1024 1F91      		pop r17
 3286 1026 0F91      		pop r16
 3287 1028 0895      		ret
 3288               		.size	LS1_red, .-LS1_red
 3289               		.stabs	"LC1:(0,12)",128,0,345,1
 3290               		.stabn	192,0,0,.LFBB17-.LFBB17
 3291               		.stabn	224,0,0,.Lscope17-.LFBB17
 3292               	.Lscope17:
 3293               		.stabs	"",36,0,0,.Lscope17-.LFBB17
 3294               		.section	.rodata
 3295               	.LC4:
 3296 0020 D400      		.word	212
 3297 0022 D800      		.word	216
 3298 0024 3200      		.word	50
 3299 0026 3600      		.word	54
 3300               		.text
 3301               		.stabs	"LS2_green:F(0,1)",36,0,349,LS2_green
 3302               	.global	LS2_green
 3303               		.type	LS2_green, @function
GAS LISTING /tmp/ccgw1eT1.s 			page 66


 3304               	LS2_green:
 348:lcd.c         **** 
 349:lcd.c         **** void LS2_green(void)
 350:lcd.c         **** {
 3305               		.stabn	68,0,350,.LM218-.LFBB18
 3306               	.LM218:
 3307               	.LFBB18:
 3308 102a 0F93      		push r16
 3309 102c 1F93      		push r17
 3310 102e CF93      		push r28
 3311 1030 DF93      		push r29
 3312 1032 CDB7      		in r28,__SP_L__
 3313 1034 DEB7      		in r29,__SP_H__
 3314 1036 2897      		sbiw r28,8
 3315 1038 0FB6      		in __tmp_reg__,__SREG__
 3316 103a F894      		cli
 3317 103c DEBF      		out __SP_H__,r29
 3318 103e 0FBE      		out __SREG__,__tmp_reg__
 3319 1040 CDBF      		out __SP_L__,r28
 3320               	/* prologue: function */
 3321               	/* frame size = 8 */
 3322               	/* stack size = 12 */
 3323               	.L__stack_usage = 12
 351:lcd.c         **** 	rectangle LC2 = {212,216,50,54};
 3324               		.stabn	68,0,351,.LM219-.LFBB18
 3325               	.LM219:
 3326 1042 88E0      		ldi r24,lo8(8)
 3327 1044 E0E0      		ldi r30,lo8(.LC4)
 3328 1046 F0E0      		ldi r31,hi8(.LC4)
 3329 1048 DE01      		movw r26,r28
 3330 104a 1196      		adiw r26,1
 3331               		0:
 3332 104c 0190      		ld r0,Z+
 3333 104e 0D92      		st X+,r0
 3334 1050 8A95      		dec r24
 3335 1052 01F4      		brne 0b
 352:lcd.c         **** 	fill_rectangle(LC2,GREEN);
 3336               		.stabn	68,0,352,.LM220-.LFBB18
 3337               	.LM220:
 3338 1054 00EE      		ldi r16,lo8(-32)
 3339 1056 17E0      		ldi r17,lo8(7)
 3340 1058 2981      		ldd r18,Y+1
 3341 105a 3A81      		ldd r19,Y+2
 3342 105c 4B81      		ldd r20,Y+3
 3343 105e 5C81      		ldd r21,Y+4
 3344 1060 6D81      		ldd r22,Y+5
 3345 1062 7E81      		ldd r23,Y+6
 3346 1064 8F81      		ldd r24,Y+7
 3347 1066 9885      		ldd r25,Y+8
 3348 1068 0E94 0000 		call fill_rectangle
 3349               	/* epilogue start */
 353:lcd.c         **** }
 3350               		.stabn	68,0,353,.LM221-.LFBB18
 3351               	.LM221:
 3352 106c 2896      		adiw r28,8
 3353 106e 0FB6      		in __tmp_reg__,__SREG__
 3354 1070 F894      		cli
GAS LISTING /tmp/ccgw1eT1.s 			page 67


 3355 1072 DEBF      		out __SP_H__,r29
 3356 1074 0FBE      		out __SREG__,__tmp_reg__
 3357 1076 CDBF      		out __SP_L__,r28
 3358 1078 DF91      		pop r29
 3359 107a CF91      		pop r28
 3360 107c 1F91      		pop r17
 3361 107e 0F91      		pop r16
 3362 1080 0895      		ret
 3363               		.size	LS2_green, .-LS2_green
 3364               		.stabs	"LC2:(0,12)",128,0,351,1
 3365               		.stabn	192,0,0,.LFBB18-.LFBB18
 3366               		.stabn	224,0,0,.Lscope18-.LFBB18
 3367               	.Lscope18:
 3368               		.stabs	"",36,0,0,.Lscope18-.LFBB18
 3369               		.stabs	"LS2_red:F(0,1)",36,0,355,LS2_red
 3370               	.global	LS2_red
 3371               		.type	LS2_red, @function
 3372               	LS2_red:
 354:lcd.c         **** 
 355:lcd.c         **** void LS2_red(void)
 356:lcd.c         **** {
 3373               		.stabn	68,0,356,.LM222-.LFBB19
 3374               	.LM222:
 3375               	.LFBB19:
 3376 1082 0F93      		push r16
 3377 1084 1F93      		push r17
 3378 1086 CF93      		push r28
 3379 1088 DF93      		push r29
 3380 108a CDB7      		in r28,__SP_L__
 3381 108c DEB7      		in r29,__SP_H__
 3382 108e 2897      		sbiw r28,8
 3383 1090 0FB6      		in __tmp_reg__,__SREG__
 3384 1092 F894      		cli
 3385 1094 DEBF      		out __SP_H__,r29
 3386 1096 0FBE      		out __SREG__,__tmp_reg__
 3387 1098 CDBF      		out __SP_L__,r28
 3388               	/* prologue: function */
 3389               	/* frame size = 8 */
 3390               	/* stack size = 12 */
 3391               	.L__stack_usage = 12
 357:lcd.c         **** 	rectangle LC2 = {212,216,50,54};
 3392               		.stabn	68,0,357,.LM223-.LFBB19
 3393               	.LM223:
 3394 109a 88E0      		ldi r24,lo8(8)
 3395 109c E0E0      		ldi r30,lo8(.LC4)
 3396 109e F0E0      		ldi r31,hi8(.LC4)
 3397 10a0 DE01      		movw r26,r28
 3398 10a2 1196      		adiw r26,1
 3399               		0:
 3400 10a4 0190      		ld r0,Z+
 3401 10a6 0D92      		st X+,r0
 3402 10a8 8A95      		dec r24
 3403 10aa 01F4      		brne 0b
 358:lcd.c         **** 	fill_rectangle(LC2,RED);
 3404               		.stabn	68,0,358,.LM224-.LFBB19
 3405               	.LM224:
 3406 10ac 00E0      		ldi r16,0
GAS LISTING /tmp/ccgw1eT1.s 			page 68


 3407 10ae 18EF      		ldi r17,lo8(-8)
 3408 10b0 2981      		ldd r18,Y+1
 3409 10b2 3A81      		ldd r19,Y+2
 3410 10b4 4B81      		ldd r20,Y+3
 3411 10b6 5C81      		ldd r21,Y+4
 3412 10b8 6D81      		ldd r22,Y+5
 3413 10ba 7E81      		ldd r23,Y+6
 3414 10bc 8F81      		ldd r24,Y+7
 3415 10be 9885      		ldd r25,Y+8
 3416 10c0 0E94 0000 		call fill_rectangle
 3417               	/* epilogue start */
 359:lcd.c         **** }
 3418               		.stabn	68,0,359,.LM225-.LFBB19
 3419               	.LM225:
 3420 10c4 2896      		adiw r28,8
 3421 10c6 0FB6      		in __tmp_reg__,__SREG__
 3422 10c8 F894      		cli
 3423 10ca DEBF      		out __SP_H__,r29
 3424 10cc 0FBE      		out __SREG__,__tmp_reg__
 3425 10ce CDBF      		out __SP_L__,r28
 3426 10d0 DF91      		pop r29
 3427 10d2 CF91      		pop r28
 3428 10d4 1F91      		pop r17
 3429 10d6 0F91      		pop r16
 3430 10d8 0895      		ret
 3431               		.size	LS2_red, .-LS2_red
 3432               		.stabs	"LC2:(0,12)",128,0,357,1
 3433               		.stabn	192,0,0,.LFBB19-.LFBB19
 3434               		.stabn	224,0,0,.Lscope19-.LFBB19
 3435               	.Lscope19:
 3436               		.stabs	"",36,0,0,.Lscope19-.LFBB19
 3437               		.section	.rodata
 3438               	.LC5:
 3439 0028 D400      		.word	212
 3440 002a D800      		.word	216
 3441 002c 5000      		.word	80
 3442 002e 5400      		.word	84
 3443               		.text
 3444               		.stabs	"LS3_green:F(0,1)",36,0,361,LS3_green
 3445               	.global	LS3_green
 3446               		.type	LS3_green, @function
 3447               	LS3_green:
 360:lcd.c         **** 
 361:lcd.c         **** void LS3_green(void)
 362:lcd.c         **** {
 3448               		.stabn	68,0,362,.LM226-.LFBB20
 3449               	.LM226:
 3450               	.LFBB20:
 3451 10da 0F93      		push r16
 3452 10dc 1F93      		push r17
 3453 10de CF93      		push r28
 3454 10e0 DF93      		push r29
 3455 10e2 CDB7      		in r28,__SP_L__
 3456 10e4 DEB7      		in r29,__SP_H__
 3457 10e6 2897      		sbiw r28,8
 3458 10e8 0FB6      		in __tmp_reg__,__SREG__
 3459 10ea F894      		cli
GAS LISTING /tmp/ccgw1eT1.s 			page 69


 3460 10ec DEBF      		out __SP_H__,r29
 3461 10ee 0FBE      		out __SREG__,__tmp_reg__
 3462 10f0 CDBF      		out __SP_L__,r28
 3463               	/* prologue: function */
 3464               	/* frame size = 8 */
 3465               	/* stack size = 12 */
 3466               	.L__stack_usage = 12
 363:lcd.c         **** 	rectangle LC3 = {212,216,80,84};
 3467               		.stabn	68,0,363,.LM227-.LFBB20
 3468               	.LM227:
 3469 10f2 88E0      		ldi r24,lo8(8)
 3470 10f4 E0E0      		ldi r30,lo8(.LC5)
 3471 10f6 F0E0      		ldi r31,hi8(.LC5)
 3472 10f8 DE01      		movw r26,r28
 3473 10fa 1196      		adiw r26,1
 3474               		0:
 3475 10fc 0190      		ld r0,Z+
 3476 10fe 0D92      		st X+,r0
 3477 1100 8A95      		dec r24
 3478 1102 01F4      		brne 0b
 364:lcd.c         **** 	fill_rectangle(LC3,GREEN);
 3479               		.stabn	68,0,364,.LM228-.LFBB20
 3480               	.LM228:
 3481 1104 00EE      		ldi r16,lo8(-32)
 3482 1106 17E0      		ldi r17,lo8(7)
 3483 1108 2981      		ldd r18,Y+1
 3484 110a 3A81      		ldd r19,Y+2
 3485 110c 4B81      		ldd r20,Y+3
 3486 110e 5C81      		ldd r21,Y+4
 3487 1110 6D81      		ldd r22,Y+5
 3488 1112 7E81      		ldd r23,Y+6
 3489 1114 8F81      		ldd r24,Y+7
 3490 1116 9885      		ldd r25,Y+8
 3491 1118 0E94 0000 		call fill_rectangle
 3492               	/* epilogue start */
 365:lcd.c         **** }
 3493               		.stabn	68,0,365,.LM229-.LFBB20
 3494               	.LM229:
 3495 111c 2896      		adiw r28,8
 3496 111e 0FB6      		in __tmp_reg__,__SREG__
 3497 1120 F894      		cli
 3498 1122 DEBF      		out __SP_H__,r29
 3499 1124 0FBE      		out __SREG__,__tmp_reg__
 3500 1126 CDBF      		out __SP_L__,r28
 3501 1128 DF91      		pop r29
 3502 112a CF91      		pop r28
 3503 112c 1F91      		pop r17
 3504 112e 0F91      		pop r16
 3505 1130 0895      		ret
 3506               		.size	LS3_green, .-LS3_green
 3507               		.stabs	"LC3:(0,12)",128,0,363,1
 3508               		.stabn	192,0,0,.LFBB20-.LFBB20
 3509               		.stabn	224,0,0,.Lscope20-.LFBB20
 3510               	.Lscope20:
 3511               		.stabs	"",36,0,0,.Lscope20-.LFBB20
 3512               		.stabs	"LS3_red:F(0,1)",36,0,367,LS3_red
 3513               	.global	LS3_red
GAS LISTING /tmp/ccgw1eT1.s 			page 70


 3514               		.type	LS3_red, @function
 3515               	LS3_red:
 366:lcd.c         **** 
 367:lcd.c         **** void LS3_red(void)
 368:lcd.c         **** {
 3516               		.stabn	68,0,368,.LM230-.LFBB21
 3517               	.LM230:
 3518               	.LFBB21:
 3519 1132 0F93      		push r16
 3520 1134 1F93      		push r17
 3521 1136 CF93      		push r28
 3522 1138 DF93      		push r29
 3523 113a CDB7      		in r28,__SP_L__
 3524 113c DEB7      		in r29,__SP_H__
 3525 113e 2897      		sbiw r28,8
 3526 1140 0FB6      		in __tmp_reg__,__SREG__
 3527 1142 F894      		cli
 3528 1144 DEBF      		out __SP_H__,r29
 3529 1146 0FBE      		out __SREG__,__tmp_reg__
 3530 1148 CDBF      		out __SP_L__,r28
 3531               	/* prologue: function */
 3532               	/* frame size = 8 */
 3533               	/* stack size = 12 */
 3534               	.L__stack_usage = 12
 369:lcd.c         **** 	rectangle LC3 = {212,216,80,84};
 3535               		.stabn	68,0,369,.LM231-.LFBB21
 3536               	.LM231:
 3537 114a 88E0      		ldi r24,lo8(8)
 3538 114c E0E0      		ldi r30,lo8(.LC5)
 3539 114e F0E0      		ldi r31,hi8(.LC5)
 3540 1150 DE01      		movw r26,r28
 3541 1152 1196      		adiw r26,1
 3542               		0:
 3543 1154 0190      		ld r0,Z+
 3544 1156 0D92      		st X+,r0
 3545 1158 8A95      		dec r24
 3546 115a 01F4      		brne 0b
 370:lcd.c         **** 	fill_rectangle(LC3,RED);
 3547               		.stabn	68,0,370,.LM232-.LFBB21
 3548               	.LM232:
 3549 115c 00E0      		ldi r16,0
 3550 115e 18EF      		ldi r17,lo8(-8)
 3551 1160 2981      		ldd r18,Y+1
 3552 1162 3A81      		ldd r19,Y+2
 3553 1164 4B81      		ldd r20,Y+3
 3554 1166 5C81      		ldd r21,Y+4
 3555 1168 6D81      		ldd r22,Y+5
 3556 116a 7E81      		ldd r23,Y+6
 3557 116c 8F81      		ldd r24,Y+7
 3558 116e 9885      		ldd r25,Y+8
 3559 1170 0E94 0000 		call fill_rectangle
 3560               	/* epilogue start */
 371:lcd.c         **** }
 3561               		.stabn	68,0,371,.LM233-.LFBB21
 3562               	.LM233:
 3563 1174 2896      		adiw r28,8
 3564 1176 0FB6      		in __tmp_reg__,__SREG__
GAS LISTING /tmp/ccgw1eT1.s 			page 71


 3565 1178 F894      		cli
 3566 117a DEBF      		out __SP_H__,r29
 3567 117c 0FBE      		out __SREG__,__tmp_reg__
 3568 117e CDBF      		out __SP_L__,r28
 3569 1180 DF91      		pop r29
 3570 1182 CF91      		pop r28
 3571 1184 1F91      		pop r17
 3572 1186 0F91      		pop r16
 3573 1188 0895      		ret
 3574               		.size	LS3_red, .-LS3_red
 3575               		.stabs	"LC3:(0,12)",128,0,369,1
 3576               		.stabn	192,0,0,.LFBB21-.LFBB21
 3577               		.stabn	224,0,0,.Lscope21-.LFBB21
 3578               	.Lscope21:
 3579               		.stabs	"",36,0,0,.Lscope21-.LFBB21
 3580               		.section	.rodata
 3581               	.LC6:
 3582 0030 5A00      		.word	90
 3583 0032 5B00      		.word	91
 3584 0034 AD00      		.word	173
 3585 0036 B600      		.word	182
 3586               	.LC7:
 3587 0038 5B00      		.word	91
 3588 003a 5C00      		.word	92
 3589 003c AD00      		.word	173
 3590 003e B600      		.word	182
 3591               		.text
 3592               		.stabs	"pwr_bar_wind:F(0,1)",36,0,375,pwr_bar_wind
 3593               		.stabs	"pwr:P(0,2)",64,0,375,24
 3594               	.global	pwr_bar_wind
 3595               		.type	pwr_bar_wind, @function
 3596               	pwr_bar_wind:
 372:lcd.c         **** 
 373:lcd.c         **** 
 374:lcd.c         **** 
 375:lcd.c         **** void pwr_bar_wind(uint8_t pwr)
 376:lcd.c         **** {
 3597               		.stabn	68,0,376,.LM234-.LFBB22
 3598               	.LM234:
 3599               	.LFBB22:
 3600 118a 0F93      		push r16
 3601 118c 1F93      		push r17
 3602 118e CF93      		push r28
 3603 1190 DF93      		push r29
 3604 1192 CDB7      		in r28,__SP_L__
 3605 1194 DEB7      		in r29,__SP_H__
 3606 1196 6097      		sbiw r28,16
 3607 1198 0FB6      		in __tmp_reg__,__SREG__
 3608 119a F894      		cli
 3609 119c DEBF      		out __SP_H__,r29
 3610 119e 0FBE      		out __SREG__,__tmp_reg__
 3611 11a0 CDBF      		out __SP_L__,r28
 3612               	/* prologue: function */
 3613               	/* frame size = 16 */
 3614               	/* stack size = 20 */
 3615               	.L__stack_usage = 20
 377:lcd.c         **** 
GAS LISTING /tmp/ccgw1eT1.s 			page 72


 378:lcd.c         **** 	rectangle blue = {90,91,173,182};
 3616               		.stabn	68,0,378,.LM235-.LFBB22
 3617               	.LM235:
 3618 11a2 98E0      		ldi r25,lo8(8)
 3619 11a4 E0E0      		ldi r30,lo8(.LC6)
 3620 11a6 F0E0      		ldi r31,hi8(.LC6)
 3621 11a8 DE01      		movw r26,r28
 3622 11aa 1996      		adiw r26,9
 3623               		0:
 3624 11ac 0190      		ld r0,Z+
 3625 11ae 0D92      		st X+,r0
 3626 11b0 9A95      		dec r25
 3627 11b2 01F4      		brne 0b
 379:lcd.c         **** 	rectangle white = {91,92,173,182};
 3628               		.stabn	68,0,379,.LM236-.LFBB22
 3629               	.LM236:
 3630 11b4 98E0      		ldi r25,lo8(8)
 3631 11b6 E0E0      		ldi r30,lo8(.LC7)
 3632 11b8 F0E0      		ldi r31,hi8(.LC7)
 3633 11ba DE01      		movw r26,r28
 3634 11bc 1196      		adiw r26,1
 3635               		0:
 3636 11be 0190      		ld r0,Z+
 3637 11c0 0D92      		st X+,r0
 3638 11c2 9A95      		dec r25
 3639 11c4 01F4      		brne 0b
 380:lcd.c         **** 
 381:lcd.c         **** 	if(pwr > 94)
 382:lcd.c         **** 		pwr = 94;
 383:lcd.c         **** 
 384:lcd.c         **** 	blue.right = 90 + pwr;
 3640               		.stabn	68,0,384,.LM237-.LFBB22
 3641               	.LM237:
 3642 11c6 8F35      		cpi r24,lo8(95)
 3643 11c8 00F0      		brlo .L87
 3644 11ca 8EE5      		ldi r24,lo8(94)
 3645               	.L87:
 3646 11cc 865A      		subi r24,lo8(-(90))
 3647 11ce 90E0      		ldi r25,0
 385:lcd.c         **** 
 386:lcd.c         **** 	white.left = blue.right;
 3648               		.stabn	68,0,386,.LM238-.LFBB22
 3649               	.LM238:
 3650 11d0 9A83      		std Y+2,r25
 3651 11d2 8983      		std Y+1,r24
 387:lcd.c         **** 	white.right = 184;
 3652               		.stabn	68,0,387,.LM239-.LFBB22
 3653               	.LM239:
 3654 11d4 28EB      		ldi r18,lo8(-72)
 3655 11d6 30E0      		ldi r19,0
 3656 11d8 3C83      		std Y+4,r19
 3657 11da 2B83      		std Y+3,r18
 388:lcd.c         **** 
 389:lcd.c         **** 	fill_rectangle(blue, 0x3E9F);
 3658               		.stabn	68,0,389,.LM240-.LFBB22
 3659               	.LM240:
 3660 11dc AC01      		movw r20,r24
GAS LISTING /tmp/ccgw1eT1.s 			page 73


 3661 11de 0FE9      		ldi r16,lo8(-97)
 3662 11e0 1EE3      		ldi r17,lo8(62)
 3663 11e2 2985      		ldd r18,Y+9
 3664 11e4 3A85      		ldd r19,Y+10
 3665 11e6 6D85      		ldd r22,Y+13
 3666 11e8 7E85      		ldd r23,Y+14
 3667 11ea 8F85      		ldd r24,Y+15
 3668 11ec 9889      		ldd r25,Y+16
 3669 11ee 0E94 0000 		call fill_rectangle
 390:lcd.c         **** 	fill_rectangle(white, WHITE);
 3670               		.stabn	68,0,390,.LM241-.LFBB22
 3671               	.LM241:
 3672 11f2 0FEF      		ldi r16,lo8(-1)
 3673 11f4 1FEF      		ldi r17,lo8(-1)
 3674 11f6 2981      		ldd r18,Y+1
 3675 11f8 3A81      		ldd r19,Y+2
 3676 11fa 4B81      		ldd r20,Y+3
 3677 11fc 5C81      		ldd r21,Y+4
 3678 11fe 6D81      		ldd r22,Y+5
 3679 1200 7E81      		ldd r23,Y+6
 3680 1202 8F81      		ldd r24,Y+7
 3681 1204 9885      		ldd r25,Y+8
 3682 1206 0E94 0000 		call fill_rectangle
 3683               	/* epilogue start */
 391:lcd.c         **** }
 3684               		.stabn	68,0,391,.LM242-.LFBB22
 3685               	.LM242:
 3686 120a 6096      		adiw r28,16
 3687 120c 0FB6      		in __tmp_reg__,__SREG__
 3688 120e F894      		cli
 3689 1210 DEBF      		out __SP_H__,r29
 3690 1212 0FBE      		out __SREG__,__tmp_reg__
 3691 1214 CDBF      		out __SP_L__,r28
 3692 1216 DF91      		pop r29
 3693 1218 CF91      		pop r28
 3694 121a 1F91      		pop r17
 3695 121c 0F91      		pop r16
 3696 121e 0895      		ret
 3697               		.size	pwr_bar_wind, .-pwr_bar_wind
 3698               		.stabs	"blue:(0,12)",128,0,378,9
 3699               		.stabs	"white:(0,12)",128,0,379,1
 3700               		.stabn	192,0,0,.LFBB22-.LFBB22
 3701               		.stabn	224,0,0,.Lscope22-.LFBB22
 3702               	.Lscope22:
 3703               		.stabs	"",36,0,0,.Lscope22-.LFBB22
 3704               		.section	.rodata
 3705               	.LC8:
 3706 0040 5A00      		.word	90
 3707 0042 5B00      		.word	91
 3708 0044 7900      		.word	121
 3709 0046 8200      		.word	130
 3710               	.LC9:
 3711 0048 5B00      		.word	91
 3712 004a 5C00      		.word	92
 3713 004c 7900      		.word	121
 3714 004e 8200      		.word	130
 3715               		.text
GAS LISTING /tmp/ccgw1eT1.s 			page 74


 3716               		.stabs	"pwr_bar_sun:F(0,1)",36,0,393,pwr_bar_sun
 3717               		.stabs	"pwr:P(0,2)",64,0,393,24
 3718               	.global	pwr_bar_sun
 3719               		.type	pwr_bar_sun, @function
 3720               	pwr_bar_sun:
 392:lcd.c         **** 
 393:lcd.c         **** void pwr_bar_sun(uint8_t pwr)
 394:lcd.c         **** {
 3721               		.stabn	68,0,394,.LM243-.LFBB23
 3722               	.LM243:
 3723               	.LFBB23:
 3724 1220 0F93      		push r16
 3725 1222 1F93      		push r17
 3726 1224 CF93      		push r28
 3727 1226 DF93      		push r29
 3728 1228 CDB7      		in r28,__SP_L__
 3729 122a DEB7      		in r29,__SP_H__
 3730 122c 6097      		sbiw r28,16
 3731 122e 0FB6      		in __tmp_reg__,__SREG__
 3732 1230 F894      		cli
 3733 1232 DEBF      		out __SP_H__,r29
 3734 1234 0FBE      		out __SREG__,__tmp_reg__
 3735 1236 CDBF      		out __SP_L__,r28
 3736               	/* prologue: function */
 3737               	/* frame size = 16 */
 3738               	/* stack size = 20 */
 3739               	.L__stack_usage = 20
 395:lcd.c         **** 
 396:lcd.c         **** 	rectangle blue = {90,91,121,130};
 3740               		.stabn	68,0,396,.LM244-.LFBB23
 3741               	.LM244:
 3742 1238 98E0      		ldi r25,lo8(8)
 3743 123a E0E0      		ldi r30,lo8(.LC8)
 3744 123c F0E0      		ldi r31,hi8(.LC8)
 3745 123e DE01      		movw r26,r28
 3746 1240 1996      		adiw r26,9
 3747               		0:
 3748 1242 0190      		ld r0,Z+
 3749 1244 0D92      		st X+,r0
 3750 1246 9A95      		dec r25
 3751 1248 01F4      		brne 0b
 397:lcd.c         **** 	rectangle white = {91,92,121,130};
 3752               		.stabn	68,0,397,.LM245-.LFBB23
 3753               	.LM245:
 3754 124a 98E0      		ldi r25,lo8(8)
 3755 124c E0E0      		ldi r30,lo8(.LC9)
 3756 124e F0E0      		ldi r31,hi8(.LC9)
 3757 1250 DE01      		movw r26,r28
 3758 1252 1196      		adiw r26,1
 3759               		0:
 3760 1254 0190      		ld r0,Z+
 3761 1256 0D92      		st X+,r0
 3762 1258 9A95      		dec r25
 3763 125a 01F4      		brne 0b
 398:lcd.c         **** 
 399:lcd.c         **** 	if(pwr > 94)
 400:lcd.c         **** 		pwr = 94;
GAS LISTING /tmp/ccgw1eT1.s 			page 75


 401:lcd.c         **** 
 402:lcd.c         **** 	blue.right = 90 + pwr ;
 3764               		.stabn	68,0,402,.LM246-.LFBB23
 3765               	.LM246:
 3766 125c 8F35      		cpi r24,lo8(95)
 3767 125e 00F0      		brlo .L89
 3768 1260 8EE5      		ldi r24,lo8(94)
 3769               	.L89:
 3770 1262 865A      		subi r24,lo8(-(90))
 3771 1264 90E0      		ldi r25,0
 403:lcd.c         **** 
 404:lcd.c         **** 	white.left = blue.right;
 3772               		.stabn	68,0,404,.LM247-.LFBB23
 3773               	.LM247:
 3774 1266 9A83      		std Y+2,r25
 3775 1268 8983      		std Y+1,r24
 405:lcd.c         **** 	white.right = 184;
 3776               		.stabn	68,0,405,.LM248-.LFBB23
 3777               	.LM248:
 3778 126a 28EB      		ldi r18,lo8(-72)
 3779 126c 30E0      		ldi r19,0
 3780 126e 3C83      		std Y+4,r19
 3781 1270 2B83      		std Y+3,r18
 406:lcd.c         **** 
 407:lcd.c         **** 	fill_rectangle(blue, 0x3E9F);
 3782               		.stabn	68,0,407,.LM249-.LFBB23
 3783               	.LM249:
 3784 1272 AC01      		movw r20,r24
 3785 1274 0FE9      		ldi r16,lo8(-97)
 3786 1276 1EE3      		ldi r17,lo8(62)
 3787 1278 2985      		ldd r18,Y+9
 3788 127a 3A85      		ldd r19,Y+10
 3789 127c 6D85      		ldd r22,Y+13
 3790 127e 7E85      		ldd r23,Y+14
 3791 1280 8F85      		ldd r24,Y+15
 3792 1282 9889      		ldd r25,Y+16
 3793 1284 0E94 0000 		call fill_rectangle
 408:lcd.c         **** 	fill_rectangle(white, WHITE);
 3794               		.stabn	68,0,408,.LM250-.LFBB23
 3795               	.LM250:
 3796 1288 0FEF      		ldi r16,lo8(-1)
 3797 128a 1FEF      		ldi r17,lo8(-1)
 3798 128c 2981      		ldd r18,Y+1
 3799 128e 3A81      		ldd r19,Y+2
 3800 1290 4B81      		ldd r20,Y+3
 3801 1292 5C81      		ldd r21,Y+4
 3802 1294 6D81      		ldd r22,Y+5
 3803 1296 7E81      		ldd r23,Y+6
 3804 1298 8F81      		ldd r24,Y+7
 3805 129a 9885      		ldd r25,Y+8
 3806 129c 0E94 0000 		call fill_rectangle
 3807               	/* epilogue start */
 409:lcd.c         **** }
 3808               		.stabn	68,0,409,.LM251-.LFBB23
 3809               	.LM251:
 3810 12a0 6096      		adiw r28,16
 3811 12a2 0FB6      		in __tmp_reg__,__SREG__
GAS LISTING /tmp/ccgw1eT1.s 			page 76


 3812 12a4 F894      		cli
 3813 12a6 DEBF      		out __SP_H__,r29
 3814 12a8 0FBE      		out __SREG__,__tmp_reg__
 3815 12aa CDBF      		out __SP_L__,r28
 3816 12ac DF91      		pop r29
 3817 12ae CF91      		pop r28
 3818 12b0 1F91      		pop r17
 3819 12b2 0F91      		pop r16
 3820 12b4 0895      		ret
 3821               		.size	pwr_bar_sun, .-pwr_bar_sun
 3822               		.stabs	"blue:(0,12)",128,0,396,9
 3823               		.stabs	"white:(0,12)",128,0,397,1
 3824               		.stabn	192,0,0,.LFBB23-.LFBB23
 3825               		.stabn	224,0,0,.Lscope23-.LFBB23
 3826               	.Lscope23:
 3827               		.stabs	"",36,0,0,.Lscope23-.LFBB23
 3828               	.global	display
 3829               		.data
 3830               		.type	display, @object
 3831               		.size	display, 14
 3832               	display:
 3833 0000 F000      		.word	240
 3834 0002 4001      		.word	320
 3835 0004 0000      		.word	0
 3836 0006 0000      		.word	0
 3837 0008 0000      		.word	0
 3838 000a E420      		.word	8420
 3839 000c 99FF      		.word	-103
 3840               		.stabs	"display:G(0,14)=(0,15)=s14width:(0,4),0,16;height:(0,4),16,16;orient:(0,11),32,16;x:(0,4),
 3841               		.stabs	"lcd:t(0,14)",128,0,29,0
 3842               		.text
 3843               		.stabs	"",100,0,0,.Letext0
 3844               	.Letext0:
 3845               		.ident	"GCC: (GNU) 11.2.0"
 3846               	.global __do_copy_data
GAS LISTING /tmp/ccgw1eT1.s 			page 77


DEFINED SYMBOLS
                            *ABS*:0000000000000000 lcd.c
     /tmp/ccgw1eT1.s:2      *ABS*:000000000000003e __SP_H__
     /tmp/ccgw1eT1.s:3      *ABS*:000000000000003d __SP_L__
     /tmp/ccgw1eT1.s:4      *ABS*:000000000000003f __SREG__
     /tmp/ccgw1eT1.s:5      *ABS*:0000000000000000 __tmp_reg__
     /tmp/ccgw1eT1.s:6      *ABS*:0000000000000001 __zero_reg__
     /tmp/ccgw1eT1.s:23     .text:0000000000000000 pwr_kw
     /tmp/ccgw1eT1.s:395    .text:00000000000001ee pwr_100
     /tmp/ccgw1eT1.s:766    .text:00000000000003dc pwr_10
     /tmp/ccgw1eT1.s:1138   .text:00000000000005ca bat_pwr
     /tmp/ccgw1eT1.s:1713   .text:00000000000008aa kamimashita
     /tmp/ccgw1eT1.s:1892   .text:000000000000098a init_graphics
     /tmp/ccgw1eT1.s:2352   .text:0000000000000b7c init_lcd
     /tmp/ccgw1eT1.s:2389   .text:0000000000000b94 set_orientation
     /tmp/ccgw1eT1.s:3832   .data:0000000000000000 display
     /tmp/ccgw1eT1.s:2574   .text:0000000000000ca4 fill_rectangle
     /tmp/ccgw1eT1.s:2731   .text:0000000000000d6a LC1_green
     /tmp/ccgw1eT1.s:2800   .text:0000000000000dc2 LC1_red
     /tmp/ccgw1eT1.s:2875   .text:0000000000000e1a LC2_green
     /tmp/ccgw1eT1.s:2943   .text:0000000000000e72 LC2_red
     /tmp/ccgw1eT1.s:3018   .text:0000000000000eca LC3_green
     /tmp/ccgw1eT1.s:3086   .text:0000000000000f22 LC3_red
     /tmp/ccgw1eT1.s:3161   .text:0000000000000f7a LS1_green
     /tmp/ccgw1eT1.s:3229   .text:0000000000000fd2 LS1_red
     /tmp/ccgw1eT1.s:3304   .text:000000000000102a LS2_green
     /tmp/ccgw1eT1.s:3372   .text:0000000000001082 LS2_red
     /tmp/ccgw1eT1.s:3447   .text:00000000000010da LS3_green
     /tmp/ccgw1eT1.s:3515   .text:0000000000001132 LS3_red
     /tmp/ccgw1eT1.s:3596   .text:000000000000118a pwr_bar_wind
     /tmp/ccgw1eT1.s:3720   .text:0000000000001220 pwr_bar_sun

UNDEFINED SYMBOLS
digit1
digit2
d3
BATCHR
BATDRN
hachikuji
bg1_1
bg1_2
init_display_controller
__do_copy_data
