GAS LISTING /tmp/ccj7iC5P.s 			page 1


   1               		.file	"lcd.c"
   2               	__SP_H__ = 0x3e
   3               	__SP_L__ = 0x3d
   4               	__SREG__ = 0x3f
   5               	__tmp_reg__ = 0
   6               	__zero_reg__ = 1
   7               		.stabs	"/home/kaicho/Southampton/sotond5/sotond5/liblcd/",100,0,2,.Ltext0
   8               		.stabs	"lcd.c",100,0,2,.Ltext0
   9               		.text
  10               	.Ltext0:
  11               		.stabs	"gcc2_compiled.",60,0,0,0
  12               		.stabs	"init_lcd:F(0,1)=(0,1)",36,0,14,init_lcd
  13               		.stabs	"uint8_t:t(0,2)=(0,3)=@s8;r(0,3);0;255;",128,0,126,0
  14               		.stabs	"void:t(0,1)",128,0,0,0
  15               		.stabs	"unsigned char:t(0,3)",128,0,0,0
  16               	.global	init_lcd
  17               		.type	init_lcd, @function
  18               	init_lcd:
   1:lcd.c         **** /*  Author: Steve Gunn
   2:lcd.c         ****  * Licence: This work is licensed under the Creative Commons Attribution License.
   3:lcd.c         ****  *           View this license at http://creativecommons.org/about/licenses/
   4:lcd.c         ****  */
   5:lcd.c         **** 
   6:lcd.c         **** #include "ili934x.h"
   7:lcd.c         **** #include "graphics.h"
   8:lcd.c         **** #include "fonts.h"
   9:lcd.c         **** #include "lcd.h"
  10:lcd.c         **** #include <stdbool.h>
  11:lcd.c         **** 
  12:lcd.c         **** lcd display = {LCDWIDTH, LCDHEIGHT, North, 0, 0, 0x20E4, 0xFF99};
  13:lcd.c         **** 
  14:lcd.c         **** void init_lcd()
  15:lcd.c         **** {
  19               		.stabn	68,0,15,.LM0-.LFBB1
  20               	.LM0:
  21               	.LFBB1:
  22               	/* prologue: function */
  23               	/* frame size = 0 */
  24               	/* stack size = 0 */
  25               	.L__stack_usage = 0
  16:lcd.c         **** 	/* Disable JTAG in software, so that it does not interfere with Port C  */
  17:lcd.c         **** 	/* It will be re-enabled after a power cycle if the JTAGEN fuse is set. */
  18:lcd.c         **** 	MCUCR |= (1<<JTD);
  26               		.stabn	68,0,18,.LM1-.LFBB1
  27               	.LM1:
  28 0000 85B7      		in r24,0x35
  29 0002 8068      		ori r24,lo8(-128)
  30 0004 85BF      		out 0x35,r24
  19:lcd.c         **** 	MCUCR |= (1<<JTD);
  31               		.stabn	68,0,19,.LM2-.LFBB1
  32               	.LM2:
  33 0006 85B7      		in r24,0x35
  34 0008 8068      		ori r24,lo8(-128)
  35 000a 85BF      		out 0x35,r24
  20:lcd.c         **** 
  21:lcd.c         **** 	/* Configure ports */
  22:lcd.c         **** 	CTRL_DDR = 0x7F;
GAS LISTING /tmp/ccj7iC5P.s 			page 2


  36               		.stabn	68,0,22,.LM3-.LFBB1
  37               	.LM3:
  38 000c 8FE7      		ldi r24,lo8(127)
  39 000e 87B9      		out 0x7,r24
  23:lcd.c         **** 	// PIN 7 on the control port is an input.
  24:lcd.c         **** 	DATA_DDR = 0xFF;
  40               		.stabn	68,0,24,.LM4-.LFBB1
  41               	.LM4:
  42 0010 8FEF      		ldi r24,lo8(-1)
  43 0012 84B9      		out 0x4,r24
  25:lcd.c         **** 
  26:lcd.c         **** 	init_display_controller();
  44               		.stabn	68,0,26,.LM5-.LFBB1
  45               	.LM5:
  46 0014 0C94 0000 		jmp init_display_controller
  47               		.size	init_lcd, .-init_lcd
  48               	.Lscope1:
  49               		.stabs	"",36,0,0,.Lscope1-.LFBB1
  50               		.stabs	"set_orientation:F(0,1)",36,0,29,set_orientation
  51               		.stabs	" :T(0,4)=eNorth:0,West:1,South:2,East:3,;",128,0,0,0
  52               		.stabs	"o:P(0,5)=(0,4)",64,0,29,18
  53               	.global	set_orientation
  54               		.type	set_orientation, @function
  55               	set_orientation:
  27:lcd.c         **** }
  28:lcd.c         **** 
  29:lcd.c         **** void set_orientation(orientation o)
  30:lcd.c         **** {
  56               		.stabn	68,0,30,.LM6-.LFBB2
  57               	.LM6:
  58               	.LFBB2:
  59               	/* prologue: function */
  60               	/* frame size = 0 */
  61               	/* stack size = 0 */
  62               	.L__stack_usage = 0
  63 0018 9C01      		movw r18,r24
  31:lcd.c         **** 	display.orient = o;
  64               		.stabn	68,0,31,.LM7-.LFBB2
  65               	.LM7:
  66 001a 9093 0000 		sts display+4+1,r25
  67 001e 8093 0000 		sts display+4,r24
  32:lcd.c         **** 	write_cmd(MEMORY_ACCESS_CONTROL);
  68               		.stabn	68,0,32,.LM8-.LFBB2
  69               	.LM8:
  70 0022 4498      		cbi 0x8,4
  71 0024 86E3      		ldi r24,lo8(54)
  72 0026 85B9      		out 0x5,r24
  73 0028 4398      		cbi 0x8,3
  74 002a 439A      		sbi 0x8,3
  75 002c 449A      		sbi 0x8,4
  33:lcd.c         **** 	if (o==North) {
  76               		.stabn	68,0,33,.LM9-.LFBB2
  77               	.LM9:
  78 002e 2115      		cp r18,__zero_reg__
  79 0030 3105      		cpc r19,__zero_reg__
  80 0032 01F0      		breq .+2
  81 0034 00C0      		rjmp .L3
GAS LISTING /tmp/ccj7iC5P.s 			page 3


  34:lcd.c         **** 		display.width = LCDWIDTH;
  82               		.stabn	68,0,34,.LM10-.LFBB2
  83               	.LM10:
  84 0036 80EF      		ldi r24,lo8(-16)
  85 0038 90E0      		ldi r25,0
  86 003a 9093 0000 		sts display+1,r25
  87 003e 8093 0000 		sts display,r24
  35:lcd.c         **** 		display.height = LCDHEIGHT;
  88               		.stabn	68,0,35,.LM11-.LFBB2
  89               	.LM11:
  90 0042 80E4      		ldi r24,lo8(64)
  91 0044 91E0      		ldi r25,lo8(1)
  92 0046 9093 0000 		sts display+2+1,r25
  93 004a 8093 0000 		sts display+2,r24
  36:lcd.c         **** 		write_data(0x48);
  94               		.stabn	68,0,36,.LM12-.LFBB2
  95               	.LM12:
  96 004e 88E4      		ldi r24,lo8(72)
  97               	.L7:
  37:lcd.c         **** 	}
  38:lcd.c         **** 	else if (o==West) {
  39:lcd.c         **** 		display.width = LCDHEIGHT;
  40:lcd.c         **** 		display.height = LCDWIDTH;
  41:lcd.c         **** 		write_data(0xE8);
  42:lcd.c         **** 	}
  43:lcd.c         **** 	else if (o==South) {
  44:lcd.c         **** 		display.width = LCDWIDTH;
  45:lcd.c         **** 		display.height = LCDHEIGHT;
  46:lcd.c         **** 		write_data(0x88);
  47:lcd.c         **** 	}
  48:lcd.c         **** 	else if (o==East) {
  49:lcd.c         **** 		display.width = LCDHEIGHT;
  50:lcd.c         **** 		display.height = LCDWIDTH;
  51:lcd.c         **** 		write_data(0x28);
  98               		.stabn	68,0,51,.LM13-.LFBB2
  99               	.LM13:
 100 0050 85B9      		out 0x5,r24
 101 0052 4398      		cbi 0x8,3
 102 0054 439A      		sbi 0x8,3
 103               	.L4:
  52:lcd.c         **** 	}
  53:lcd.c         **** 	write_cmd(COLUMN_ADDRESS_SET);
 104               		.stabn	68,0,53,.LM14-.LFBB2
 105               	.LM14:
 106 0056 4498      		cbi 0x8,4
 107 0058 8AE2      		ldi r24,lo8(42)
 108 005a 85B9      		out 0x5,r24
 109 005c 4398      		cbi 0x8,3
 110 005e 439A      		sbi 0x8,3
 111 0060 449A      		sbi 0x8,4
  54:lcd.c         **** 	write_data16(0);
 112               		.stabn	68,0,54,.LM15-.LFBB2
 113               	.LM15:
 114 0062 15B8      		out 0x5,__zero_reg__
 115 0064 4398      		cbi 0x8,3
 116 0066 439A      		sbi 0x8,3
 117 0068 15B8      		out 0x5,__zero_reg__
GAS LISTING /tmp/ccj7iC5P.s 			page 4


 118 006a 4398      		cbi 0x8,3
 119 006c 439A      		sbi 0x8,3
  55:lcd.c         **** 	write_data16(display.width-1);
 120               		.stabn	68,0,55,.LM16-.LFBB2
 121               	.LM16:
 122 006e 8091 0000 		lds r24,display
 123 0072 9091 0000 		lds r25,display+1
 124 0076 0197      		sbiw r24,1
 125 0078 95B9      		out 0x5,r25
 126 007a 4398      		cbi 0x8,3
 127 007c 439A      		sbi 0x8,3
 128 007e 8091 0000 		lds r24,display
 129 0082 8150      		subi r24,lo8(-(-1))
 130 0084 85B9      		out 0x5,r24
 131 0086 4398      		cbi 0x8,3
 132 0088 439A      		sbi 0x8,3
  56:lcd.c         **** 	write_cmd(PAGE_ADDRESS_SET);
 133               		.stabn	68,0,56,.LM17-.LFBB2
 134               	.LM17:
 135 008a 4498      		cbi 0x8,4
 136 008c 8BE2      		ldi r24,lo8(43)
 137 008e 85B9      		out 0x5,r24
 138 0090 4398      		cbi 0x8,3
 139 0092 439A      		sbi 0x8,3
 140 0094 449A      		sbi 0x8,4
  57:lcd.c         **** 	write_data16(0);
 141               		.stabn	68,0,57,.LM18-.LFBB2
 142               	.LM18:
 143 0096 15B8      		out 0x5,__zero_reg__
 144 0098 4398      		cbi 0x8,3
 145 009a 439A      		sbi 0x8,3
 146 009c 15B8      		out 0x5,__zero_reg__
 147 009e 4398      		cbi 0x8,3
 148 00a0 439A      		sbi 0x8,3
  58:lcd.c         **** 	write_data16(display.height-1);
 149               		.stabn	68,0,58,.LM19-.LFBB2
 150               	.LM19:
 151 00a2 8091 0000 		lds r24,display+2
 152 00a6 9091 0000 		lds r25,display+2+1
 153 00aa 0197      		sbiw r24,1
 154 00ac 95B9      		out 0x5,r25
 155 00ae 4398      		cbi 0x8,3
 156 00b0 439A      		sbi 0x8,3
 157 00b2 8091 0000 		lds r24,display+2
 158 00b6 8150      		subi r24,lo8(-(-1))
 159 00b8 85B9      		out 0x5,r24
 160 00ba 4398      		cbi 0x8,3
 161 00bc 439A      		sbi 0x8,3
 162               	/* epilogue start */
  59:lcd.c         **** }
 163               		.stabn	68,0,59,.LM20-.LFBB2
 164               	.LM20:
 165 00be 0895      		ret
 166               	.L3:
  38:lcd.c         **** 		display.width = LCDHEIGHT;
 167               		.stabn	68,0,38,.LM21-.LFBB2
 168               	.LM21:
GAS LISTING /tmp/ccj7iC5P.s 			page 5


 169 00c0 2130      		cpi r18,1
 170 00c2 3105      		cpc r19,__zero_reg__
 171 00c4 01F4      		brne .L5
  39:lcd.c         **** 		display.height = LCDWIDTH;
 172               		.stabn	68,0,39,.LM22-.LFBB2
 173               	.LM22:
 174 00c6 80E4      		ldi r24,lo8(64)
 175 00c8 91E0      		ldi r25,lo8(1)
 176 00ca 9093 0000 		sts display+1,r25
 177 00ce 8093 0000 		sts display,r24
  40:lcd.c         **** 		write_data(0xE8);
 178               		.stabn	68,0,40,.LM23-.LFBB2
 179               	.LM23:
 180 00d2 80EF      		ldi r24,lo8(-16)
 181 00d4 90E0      		ldi r25,0
 182 00d6 9093 0000 		sts display+2+1,r25
 183 00da 8093 0000 		sts display+2,r24
  41:lcd.c         **** 	}
 184               		.stabn	68,0,41,.LM24-.LFBB2
 185               	.LM24:
 186 00de 88EE      		ldi r24,lo8(-24)
 187 00e0 00C0      		rjmp .L7
 188               	.L5:
  43:lcd.c         **** 		display.width = LCDWIDTH;
 189               		.stabn	68,0,43,.LM25-.LFBB2
 190               	.LM25:
 191 00e2 2230      		cpi r18,2
 192 00e4 3105      		cpc r19,__zero_reg__
 193 00e6 01F4      		brne .L6
  44:lcd.c         **** 		display.height = LCDHEIGHT;
 194               		.stabn	68,0,44,.LM26-.LFBB2
 195               	.LM26:
 196 00e8 80EF      		ldi r24,lo8(-16)
 197 00ea 90E0      		ldi r25,0
 198 00ec 9093 0000 		sts display+1,r25
 199 00f0 8093 0000 		sts display,r24
  45:lcd.c         **** 		write_data(0x88);
 200               		.stabn	68,0,45,.LM27-.LFBB2
 201               	.LM27:
 202 00f4 80E4      		ldi r24,lo8(64)
 203 00f6 91E0      		ldi r25,lo8(1)
 204 00f8 9093 0000 		sts display+2+1,r25
 205 00fc 8093 0000 		sts display+2,r24
  46:lcd.c         **** 	}
 206               		.stabn	68,0,46,.LM28-.LFBB2
 207               	.LM28:
 208 0100 88E8      		ldi r24,lo8(-120)
 209 0102 00C0      		rjmp .L7
 210               	.L6:
  48:lcd.c         **** 		display.width = LCDHEIGHT;
 211               		.stabn	68,0,48,.LM29-.LFBB2
 212               	.LM29:
 213 0104 2330      		cpi r18,3
 214 0106 3105      		cpc r19,__zero_reg__
 215 0108 01F0      		breq .+2
 216 010a 00C0      		rjmp .L4
  49:lcd.c         **** 		display.height = LCDWIDTH;
GAS LISTING /tmp/ccj7iC5P.s 			page 6


 217               		.stabn	68,0,49,.LM30-.LFBB2
 218               	.LM30:
 219 010c 80E4      		ldi r24,lo8(64)
 220 010e 91E0      		ldi r25,lo8(1)
 221 0110 9093 0000 		sts display+1,r25
 222 0114 8093 0000 		sts display,r24
  50:lcd.c         **** 		write_data(0x28);
 223               		.stabn	68,0,50,.LM31-.LFBB2
 224               	.LM31:
 225 0118 80EF      		ldi r24,lo8(-16)
 226 011a 90E0      		ldi r25,0
 227 011c 9093 0000 		sts display+2+1,r25
 228 0120 8093 0000 		sts display+2,r24
  51:lcd.c         **** 	}
 229               		.stabn	68,0,51,.LM32-.LFBB2
 230               	.LM32:
 231 0124 88E2      		ldi r24,lo8(40)
 232 0126 00C0      		rjmp .L7
 233               		.size	set_orientation, .-set_orientation
 234               	.Lscope2:
 235               		.stabs	"",36,0,0,.Lscope2-.LFBB2
 236               		.stabs	"init_graphics:F(0,1)",36,0,61,init_graphics
 237               		.stabs	"uint16_t:t(0,6)=(0,7)=r(0,7);0;0177777;",128,0,128,0
 238               		.stabs	"unsigned int:t(0,7)",128,0,0,0
 239               	.global	init_graphics
 240               		.type	init_graphics, @function
 241               	init_graphics:
  60:lcd.c         **** 
  61:lcd.c         **** void init_graphics()
  62:lcd.c         **** {
 242               		.stabn	68,0,62,.LM33-.LFBB3
 243               	.LM33:
 244               	.LFBB3:
 245               	/* prologue: function */
 246               	/* frame size = 0 */
 247               	/* stack size = 0 */
 248               	.L__stack_usage = 0
  63:lcd.c         **** 	uint16_t x, y;
  64:lcd.c         **** 	write_cmd(COLUMN_ADDRESS_SET);
 249               		.stabn	68,0,64,.LM34-.LFBB3
 250               	.LM34:
 251 0128 4498      		cbi 0x8,4
 252 012a 8AE2      		ldi r24,lo8(42)
 253 012c 85B9      		out 0x5,r24
 254 012e 4398      		cbi 0x8,3
 255 0130 439A      		sbi 0x8,3
 256 0132 449A      		sbi 0x8,4
  65:lcd.c         **** 	write_data16(0);
 257               		.stabn	68,0,65,.LM35-.LFBB3
 258               	.LM35:
 259 0134 15B8      		out 0x5,__zero_reg__
 260 0136 4398      		cbi 0x8,3
 261 0138 439A      		sbi 0x8,3
 262 013a 15B8      		out 0x5,__zero_reg__
 263 013c 4398      		cbi 0x8,3
 264 013e 439A      		sbi 0x8,3
  66:lcd.c         **** 	write_data16(240);
GAS LISTING /tmp/ccj7iC5P.s 			page 7


 265               		.stabn	68,0,66,.LM36-.LFBB3
 266               	.LM36:
 267 0140 15B8      		out 0x5,__zero_reg__
 268 0142 4398      		cbi 0x8,3
 269 0144 439A      		sbi 0x8,3
 270 0146 80EF      		ldi r24,lo8(-16)
 271 0148 85B9      		out 0x5,r24
 272 014a 4398      		cbi 0x8,3
 273 014c 439A      		sbi 0x8,3
  67:lcd.c         **** 	write_cmd(PAGE_ADDRESS_SET);
 274               		.stabn	68,0,67,.LM37-.LFBB3
 275               	.LM37:
 276 014e 4498      		cbi 0x8,4
 277 0150 8BE2      		ldi r24,lo8(43)
 278 0152 85B9      		out 0x5,r24
 279 0154 4398      		cbi 0x8,3
 280 0156 439A      		sbi 0x8,3
 281 0158 449A      		sbi 0x8,4
  68:lcd.c         **** 	write_data16(0);
 282               		.stabn	68,0,68,.LM38-.LFBB3
 283               	.LM38:
 284 015a 15B8      		out 0x5,__zero_reg__
 285 015c 4398      		cbi 0x8,3
 286 015e 439A      		sbi 0x8,3
 287 0160 15B8      		out 0x5,__zero_reg__
 288 0162 4398      		cbi 0x8,3
 289 0164 439A      		sbi 0x8,3
  69:lcd.c         **** 	write_data16(160);
 290               		.stabn	68,0,69,.LM39-.LFBB3
 291               	.LM39:
 292 0166 15B8      		out 0x5,__zero_reg__
 293 0168 4398      		cbi 0x8,3
 294 016a 439A      		sbi 0x8,3
 295 016c 80EA      		ldi r24,lo8(-96)
 296 016e 85B9      		out 0x5,r24
 297 0170 4398      		cbi 0x8,3
 298 0172 439A      		sbi 0x8,3
  70:lcd.c         **** 	write_cmd(MEMORY_WRITE);
 299               		.stabn	68,0,70,.LM40-.LFBB3
 300               	.LM40:
 301 0174 4498      		cbi 0x8,4
 302 0176 8CE2      		ldi r24,lo8(44)
 303 0178 85B9      		out 0x5,r24
 304 017a 4398      		cbi 0x8,3
 305 017c 439A      		sbi 0x8,3
 306 017e 449A      		sbi 0x8,4
 307 0180 20E0      		ldi r18,lo8(bg1_1)
 308 0182 30E0      		ldi r19,hi8(bg1_1)
 309 0184 70E0      		ldi r23,0
 310 0186 60E0      		ldi r22,0
 311               	.L9:
  62:lcd.c         **** 	uint16_t x, y;
 312               		.stabn	68,0,62,.LM41-.LFBB3
 313               	.LM41:
 314 0188 C901      		movw r24,r18
  71:lcd.c         **** 	for(y = 0; y <= 79; y++){
  72:lcd.c         **** 		for(x = 0; x <= 119; x++){
GAS LISTING /tmp/ccj7iC5P.s 			page 8


 315               		.stabn	68,0,72,.LM42-.LFBB3
 316               	.LM42:
 317 018a 50E0      		ldi r21,0
 318 018c 40E0      		ldi r20,0
 319               	.L10:
 320               	.LBB2:
  73:lcd.c         **** 			write_data16(pgm_read_word(&bg1_1[x+y*120]));
 321               		.stabn	68,0,73,.LM43-.LFBB3
 322               	.LM43:
 323 018e FC01      		movw r30,r24
 324               	/* #APP */
 325               	 ;  73 "lcd.c" 1
 326 0190 A591      		lpm r26, Z+
 327 0192 B491      		lpm r27, Z
 328               		
 329               	 ;  0 "" 2
 330               	/* #NOAPP */
 331               	.LBE2:
 332 0194 B5B9      		out 0x5,r27
 333 0196 4398      		cbi 0x8,3
 334 0198 439A      		sbi 0x8,3
 335               	.LBB3:
 336 019a FC01      		movw r30,r24
 337               	/* #APP */
 338               	 ;  73 "lcd.c" 1
 339 019c A591      		lpm r26, Z+
 340 019e B491      		lpm r27, Z
 341               		
 342               	 ;  0 "" 2
 343               	/* #NOAPP */
 344               	.LBE3:
 345 01a0 A5B9      		out 0x5,r26
 346 01a2 4398      		cbi 0x8,3
 347 01a4 439A      		sbi 0x8,3
 348               	.LBB4:
  74:lcd.c         **** 			write_data16(pgm_read_word(&bg1_1[x+y*120]));
 349               		.stabn	68,0,74,.LM44-.LFBB3
 350               	.LM44:
 351 01a6 FC01      		movw r30,r24
 352               	/* #APP */
 353               	 ;  74 "lcd.c" 1
 354 01a8 A591      		lpm r26, Z+
 355 01aa B491      		lpm r27, Z
 356               		
 357               	 ;  0 "" 2
 358               	/* #NOAPP */
 359               	.LBE4:
 360 01ac B5B9      		out 0x5,r27
 361 01ae 4398      		cbi 0x8,3
 362 01b0 439A      		sbi 0x8,3
 363               	.LBB5:
 364 01b2 FC01      		movw r30,r24
 365               	/* #APP */
 366               	 ;  74 "lcd.c" 1
 367 01b4 A591      		lpm r26, Z+
 368 01b6 B491      		lpm r27, Z
 369               		
GAS LISTING /tmp/ccj7iC5P.s 			page 9


 370               	 ;  0 "" 2
 371               	/* #NOAPP */
 372               	.LBE5:
 373 01b8 A5B9      		out 0x5,r26
 374 01ba 4398      		cbi 0x8,3
 375 01bc 439A      		sbi 0x8,3
  72:lcd.c         **** 			write_data16(pgm_read_word(&bg1_1[x+y*120]));
 376               		.stabn	68,0,72,.LM45-.LFBB3
 377               	.LM45:
 378 01be 4F5F      		subi r20,-1
 379 01c0 5F4F      		sbci r21,-1
  72:lcd.c         **** 			write_data16(pgm_read_word(&bg1_1[x+y*120]));
 380               		.stabn	68,0,72,.LM46-.LFBB3
 381               	.LM46:
 382 01c2 0296      		adiw r24,2
 383 01c4 4837      		cpi r20,120
 384 01c6 5105      		cpc r21,__zero_reg__
 385 01c8 01F4      		brne .L10
 386 01ca C901      		movw r24,r18
  75:lcd.c         **** 		}
  76:lcd.c         **** 		for(x = 0; x <= 119; x++){
 387               		.stabn	68,0,76,.LM47-.LFBB3
 388               	.LM47:
 389 01cc 50E0      		ldi r21,0
 390 01ce 40E0      		ldi r20,0
 391               	.L11:
 392               	.LBB6:
  77:lcd.c         **** 			write_data16(pgm_read_word(&bg1_1[x+y*120]));
 393               		.stabn	68,0,77,.LM48-.LFBB3
 394               	.LM48:
 395 01d0 FC01      		movw r30,r24
 396               	/* #APP */
 397               	 ;  77 "lcd.c" 1
 398 01d2 A591      		lpm r26, Z+
 399 01d4 B491      		lpm r27, Z
 400               		
 401               	 ;  0 "" 2
 402               	/* #NOAPP */
 403               	.LBE6:
 404 01d6 B5B9      		out 0x5,r27
 405 01d8 4398      		cbi 0x8,3
 406 01da 439A      		sbi 0x8,3
 407               	.LBB7:
 408 01dc FC01      		movw r30,r24
 409               	/* #APP */
 410               	 ;  77 "lcd.c" 1
 411 01de A591      		lpm r26, Z+
 412 01e0 B491      		lpm r27, Z
 413               		
 414               	 ;  0 "" 2
 415               	/* #NOAPP */
 416               	.LBE7:
 417 01e2 A5B9      		out 0x5,r26
 418 01e4 4398      		cbi 0x8,3
 419 01e6 439A      		sbi 0x8,3
 420               	.LBB8:
  78:lcd.c         **** 			write_data16(pgm_read_word(&bg1_1[x+y*120]));
GAS LISTING /tmp/ccj7iC5P.s 			page 10


 421               		.stabn	68,0,78,.LM49-.LFBB3
 422               	.LM49:
 423 01e8 FC01      		movw r30,r24
 424               	/* #APP */
 425               	 ;  78 "lcd.c" 1
 426 01ea A591      		lpm r26, Z+
 427 01ec B491      		lpm r27, Z
 428               		
 429               	 ;  0 "" 2
 430               	/* #NOAPP */
 431               	.LBE8:
 432 01ee B5B9      		out 0x5,r27
 433 01f0 4398      		cbi 0x8,3
 434 01f2 439A      		sbi 0x8,3
 435               	.LBB9:
 436 01f4 FC01      		movw r30,r24
 437               	/* #APP */
 438               	 ;  78 "lcd.c" 1
 439 01f6 A591      		lpm r26, Z+
 440 01f8 B491      		lpm r27, Z
 441               		
 442               	 ;  0 "" 2
 443               	/* #NOAPP */
 444               	.LBE9:
 445 01fa A5B9      		out 0x5,r26
 446 01fc 4398      		cbi 0x8,3
 447 01fe 439A      		sbi 0x8,3
  76:lcd.c         **** 			write_data16(pgm_read_word(&bg1_1[x+y*120]));
 448               		.stabn	68,0,76,.LM50-.LFBB3
 449               	.LM50:
 450 0200 4F5F      		subi r20,-1
 451 0202 5F4F      		sbci r21,-1
  76:lcd.c         **** 			write_data16(pgm_read_word(&bg1_1[x+y*120]));
 452               		.stabn	68,0,76,.LM51-.LFBB3
 453               	.LM51:
 454 0204 0296      		adiw r24,2
 455 0206 4837      		cpi r20,120
 456 0208 5105      		cpc r21,__zero_reg__
 457 020a 01F4      		brne .L11
  71:lcd.c         **** 		for(x = 0; x <= 119; x++){
 458               		.stabn	68,0,71,.LM52-.LFBB3
 459               	.LM52:
 460 020c 2051      		subi r18,16
 461 020e 3F4F      		sbci r19,-1
 462 0210 6858      		subi r22,-120
 463 0212 7F4F      		sbci r23,-1
 464 0214 6038      		cpi r22,-128
 465 0216 85E2      		ldi r24,37
 466 0218 7807      		cpc r23,r24
 467 021a 01F0      		breq .+2
 468 021c 00C0      		rjmp .L9
  79:lcd.c         **** 		}
  80:lcd.c         **** 	}
  81:lcd.c         **** 	write_cmd(COLUMN_ADDRESS_SET);
 469               		.stabn	68,0,81,.LM53-.LFBB3
 470               	.LM53:
 471 021e 4498      		cbi 0x8,4
GAS LISTING /tmp/ccj7iC5P.s 			page 11


 472 0220 8AE2      		ldi r24,lo8(42)
 473 0222 85B9      		out 0x5,r24
 474 0224 4398      		cbi 0x8,3
 475 0226 439A      		sbi 0x8,3
 476 0228 449A      		sbi 0x8,4
  82:lcd.c         **** 	write_data16(0);
 477               		.stabn	68,0,82,.LM54-.LFBB3
 478               	.LM54:
 479 022a 15B8      		out 0x5,__zero_reg__
 480 022c 4398      		cbi 0x8,3
 481 022e 439A      		sbi 0x8,3
 482 0230 15B8      		out 0x5,__zero_reg__
 483 0232 4398      		cbi 0x8,3
 484 0234 439A      		sbi 0x8,3
  83:lcd.c         **** 	write_data16(240);
 485               		.stabn	68,0,83,.LM55-.LFBB3
 486               	.LM55:
 487 0236 15B8      		out 0x5,__zero_reg__
 488 0238 4398      		cbi 0x8,3
 489 023a 439A      		sbi 0x8,3
 490 023c 80EF      		ldi r24,lo8(-16)
 491 023e 85B9      		out 0x5,r24
 492 0240 4398      		cbi 0x8,3
 493 0242 439A      		sbi 0x8,3
  84:lcd.c         **** 	write_cmd(PAGE_ADDRESS_SET);
 494               		.stabn	68,0,84,.LM56-.LFBB3
 495               	.LM56:
 496 0244 4498      		cbi 0x8,4
 497 0246 8BE2      		ldi r24,lo8(43)
 498 0248 85B9      		out 0x5,r24
 499 024a 4398      		cbi 0x8,3
 500 024c 439A      		sbi 0x8,3
 501 024e 449A      		sbi 0x8,4
  85:lcd.c         **** 	write_data16(160);
 502               		.stabn	68,0,85,.LM57-.LFBB3
 503               	.LM57:
 504 0250 15B8      		out 0x5,__zero_reg__
 505 0252 4398      		cbi 0x8,3
 506 0254 439A      		sbi 0x8,3
 507 0256 80EA      		ldi r24,lo8(-96)
 508 0258 85B9      		out 0x5,r24
 509 025a 4398      		cbi 0x8,3
 510 025c 439A      		sbi 0x8,3
  86:lcd.c         **** 	write_data16(320);
 511               		.stabn	68,0,86,.LM58-.LFBB3
 512               	.LM58:
 513 025e 81E0      		ldi r24,lo8(1)
 514 0260 85B9      		out 0x5,r24
 515 0262 4398      		cbi 0x8,3
 516 0264 439A      		sbi 0x8,3
 517 0266 80E4      		ldi r24,lo8(64)
 518 0268 85B9      		out 0x5,r24
 519 026a 4398      		cbi 0x8,3
 520 026c 439A      		sbi 0x8,3
  87:lcd.c         **** 	write_cmd(MEMORY_WRITE);
 521               		.stabn	68,0,87,.LM59-.LFBB3
 522               	.LM59:
GAS LISTING /tmp/ccj7iC5P.s 			page 12


 523 026e 4498      		cbi 0x8,4
 524 0270 8CE2      		ldi r24,lo8(44)
 525 0272 85B9      		out 0x5,r24
 526 0274 4398      		cbi 0x8,3
 527 0276 439A      		sbi 0x8,3
 528 0278 449A      		sbi 0x8,4
 529 027a 20E0      		ldi r18,lo8(bg1_2)
 530 027c 30E0      		ldi r19,hi8(bg1_2)
 531 027e 70E0      		ldi r23,0
 532 0280 60E0      		ldi r22,0
 533               	.L13:
  70:lcd.c         **** 	for(y = 0; y <= 79; y++){
 534               		.stabn	68,0,70,.LM60-.LFBB3
 535               	.LM60:
 536 0282 C901      		movw r24,r18
  88:lcd.c         **** 	for(y = 0; y <= 79; y++){
  89:lcd.c         **** 		for(x = 0; x <= 119; x++){
 537               		.stabn	68,0,89,.LM61-.LFBB3
 538               	.LM61:
 539 0284 50E0      		ldi r21,0
 540 0286 40E0      		ldi r20,0
 541               	.L14:
 542               	.LBB10:
  90:lcd.c         **** 			write_data16(pgm_read_word(&bg1_2[x+y*120]));
 543               		.stabn	68,0,90,.LM62-.LFBB3
 544               	.LM62:
 545 0288 FC01      		movw r30,r24
 546               	/* #APP */
 547               	 ;  90 "lcd.c" 1
 548 028a A591      		lpm r26, Z+
 549 028c B491      		lpm r27, Z
 550               		
 551               	 ;  0 "" 2
 552               	/* #NOAPP */
 553               	.LBE10:
 554 028e B5B9      		out 0x5,r27
 555 0290 4398      		cbi 0x8,3
 556 0292 439A      		sbi 0x8,3
 557               	.LBB11:
 558 0294 FC01      		movw r30,r24
 559               	/* #APP */
 560               	 ;  90 "lcd.c" 1
 561 0296 A591      		lpm r26, Z+
 562 0298 B491      		lpm r27, Z
 563               		
 564               	 ;  0 "" 2
 565               	/* #NOAPP */
 566               	.LBE11:
 567 029a A5B9      		out 0x5,r26
 568 029c 4398      		cbi 0x8,3
 569 029e 439A      		sbi 0x8,3
 570               	.LBB12:
  91:lcd.c         **** 			write_data16(pgm_read_word(&bg1_2[x+y*120]));
 571               		.stabn	68,0,91,.LM63-.LFBB3
 572               	.LM63:
 573 02a0 FC01      		movw r30,r24
 574               	/* #APP */
GAS LISTING /tmp/ccj7iC5P.s 			page 13


 575               	 ;  91 "lcd.c" 1
 576 02a2 A591      		lpm r26, Z+
 577 02a4 B491      		lpm r27, Z
 578               		
 579               	 ;  0 "" 2
 580               	/* #NOAPP */
 581               	.LBE12:
 582 02a6 B5B9      		out 0x5,r27
 583 02a8 4398      		cbi 0x8,3
 584 02aa 439A      		sbi 0x8,3
 585               	.LBB13:
 586 02ac FC01      		movw r30,r24
 587               	/* #APP */
 588               	 ;  91 "lcd.c" 1
 589 02ae A591      		lpm r26, Z+
 590 02b0 B491      		lpm r27, Z
 591               		
 592               	 ;  0 "" 2
 593               	/* #NOAPP */
 594               	.LBE13:
 595 02b2 A5B9      		out 0x5,r26
 596 02b4 4398      		cbi 0x8,3
 597 02b6 439A      		sbi 0x8,3
  89:lcd.c         **** 			write_data16(pgm_read_word(&bg1_2[x+y*120]));
 598               		.stabn	68,0,89,.LM64-.LFBB3
 599               	.LM64:
 600 02b8 4F5F      		subi r20,-1
 601 02ba 5F4F      		sbci r21,-1
  89:lcd.c         **** 			write_data16(pgm_read_word(&bg1_2[x+y*120]));
 602               		.stabn	68,0,89,.LM65-.LFBB3
 603               	.LM65:
 604 02bc 0296      		adiw r24,2
 605 02be 4837      		cpi r20,120
 606 02c0 5105      		cpc r21,__zero_reg__
 607 02c2 01F4      		brne .L14
 608 02c4 C901      		movw r24,r18
  92:lcd.c         **** 		}
  93:lcd.c         **** 		for(x = 0; x <= 119; x++){
 609               		.stabn	68,0,93,.LM66-.LFBB3
 610               	.LM66:
 611 02c6 50E0      		ldi r21,0
 612 02c8 40E0      		ldi r20,0
 613               	.L15:
 614               	.LBB14:
  94:lcd.c         **** 			write_data16(pgm_read_word(&bg1_2[x+y*120]));
 615               		.stabn	68,0,94,.LM67-.LFBB3
 616               	.LM67:
 617 02ca FC01      		movw r30,r24
 618               	/* #APP */
 619               	 ;  94 "lcd.c" 1
 620 02cc A591      		lpm r26, Z+
 621 02ce B491      		lpm r27, Z
 622               		
 623               	 ;  0 "" 2
 624               	/* #NOAPP */
 625               	.LBE14:
 626 02d0 B5B9      		out 0x5,r27
GAS LISTING /tmp/ccj7iC5P.s 			page 14


 627 02d2 4398      		cbi 0x8,3
 628 02d4 439A      		sbi 0x8,3
 629               	.LBB15:
 630 02d6 FC01      		movw r30,r24
 631               	/* #APP */
 632               	 ;  94 "lcd.c" 1
 633 02d8 A591      		lpm r26, Z+
 634 02da B491      		lpm r27, Z
 635               		
 636               	 ;  0 "" 2
 637               	/* #NOAPP */
 638               	.LBE15:
 639 02dc A5B9      		out 0x5,r26
 640 02de 4398      		cbi 0x8,3
 641 02e0 439A      		sbi 0x8,3
 642               	.LBB16:
  95:lcd.c         **** 			write_data16(pgm_read_word(&bg1_2[x+y*120]));
 643               		.stabn	68,0,95,.LM68-.LFBB3
 644               	.LM68:
 645 02e2 FC01      		movw r30,r24
 646               	/* #APP */
 647               	 ;  95 "lcd.c" 1
 648 02e4 A591      		lpm r26, Z+
 649 02e6 B491      		lpm r27, Z
 650               		
 651               	 ;  0 "" 2
 652               	/* #NOAPP */
 653               	.LBE16:
 654 02e8 B5B9      		out 0x5,r27
 655 02ea 4398      		cbi 0x8,3
 656 02ec 439A      		sbi 0x8,3
 657               	.LBB17:
 658 02ee FC01      		movw r30,r24
 659               	/* #APP */
 660               	 ;  95 "lcd.c" 1
 661 02f0 A591      		lpm r26, Z+
 662 02f2 B491      		lpm r27, Z
 663               		
 664               	 ;  0 "" 2
 665               	/* #NOAPP */
 666               	.LBE17:
 667 02f4 A5B9      		out 0x5,r26
 668 02f6 4398      		cbi 0x8,3
 669 02f8 439A      		sbi 0x8,3
  93:lcd.c         **** 			write_data16(pgm_read_word(&bg1_2[x+y*120]));
 670               		.stabn	68,0,93,.LM69-.LFBB3
 671               	.LM69:
 672 02fa 4F5F      		subi r20,-1
 673 02fc 5F4F      		sbci r21,-1
  93:lcd.c         **** 			write_data16(pgm_read_word(&bg1_2[x+y*120]));
 674               		.stabn	68,0,93,.LM70-.LFBB3
 675               	.LM70:
 676 02fe 0296      		adiw r24,2
 677 0300 4837      		cpi r20,120
 678 0302 5105      		cpc r21,__zero_reg__
 679 0304 01F4      		brne .L15
  88:lcd.c         **** 		for(x = 0; x <= 119; x++){
GAS LISTING /tmp/ccj7iC5P.s 			page 15


 680               		.stabn	68,0,88,.LM71-.LFBB3
 681               	.LM71:
 682 0306 2051      		subi r18,16
 683 0308 3F4F      		sbci r19,-1
 684 030a 6858      		subi r22,-120
 685 030c 7F4F      		sbci r23,-1
 686 030e 6038      		cpi r22,-128
 687 0310 85E2      		ldi r24,37
 688 0312 7807      		cpc r23,r24
 689 0314 01F0      		breq .+2
 690 0316 00C0      		rjmp .L13
 691               	/* epilogue start */
  96:lcd.c         **** 		}
  97:lcd.c         **** 	}
  98:lcd.c         **** }
 692               		.stabn	68,0,98,.LM72-.LFBB3
 693               	.LM72:
 694 0318 0895      		ret
 695               		.size	init_graphics, .-init_graphics
 696               	.Lscope3:
 697               		.stabs	"",36,0,0,.Lscope3-.LFBB3
 698               		.stabs	"pwr_kw:F(0,1)",36,0,107,pwr_kw
 699               		.stabs	"digit:P(0,2)",64,0,107,24
 700               	.global	pwr_kw
 701               		.type	pwr_kw, @function
 702               	pwr_kw:
  99:lcd.c         **** 
 100:lcd.c         **** //  Three Digits, digit 1 = kW
 101:lcd.c         **** //  Digit 2 = 100s of W
 102:lcd.c         **** //  Digit 3 = 10s of W
 103:lcd.c         **** //  Digit 1 Anchor (19, 102)
 104:lcd.c         **** //  Digit 2 Anchor (55, 102)
 105:lcd.c         **** //  Digit 3 Anchor (80, 102)  (Multiply by 2 for display)
 106:lcd.c         **** //  Each Digit is 21 x 37, Digit texture is 370 tall, starting at 9.
 107:lcd.c         **** void pwr_kw(uint8_t digit){
 703               		.stabn	68,0,107,.LM73-.LFBB4
 704               	.LM73:
 705               	.LFBB4:
 706 031a CF93      		push r28
 707 031c DF93      		push r29
 708               	/* prologue: function */
 709               	/* frame size = 0 */
 710               	/* stack size = 2 */
 711               	.L__stack_usage = 2
 108:lcd.c         **** 	if(digit >= 3)
 712               		.stabn	68,0,108,.LM74-.LFBB4
 713               	.LM74:
 714 031e 8330      		cpi r24,lo8(3)
 715 0320 00F0      		brlo .L22
 109:lcd.c         **** 		digit = 0;
 716               		.stabn	68,0,109,.LM75-.LFBB4
 717               	.LM75:
 718 0322 80E0      		ldi r24,0
 719               	.L22:
 110:lcd.c         **** 	uint16_t x, y;
 111:lcd.c         **** 	write_cmd(COLUMN_ADDRESS_SET);
 720               		.stabn	68,0,111,.LM76-.LFBB4
GAS LISTING /tmp/ccj7iC5P.s 			page 16


 721               	.LM76:
 722 0324 4498      		cbi 0x8,4
 723 0326 9AE2      		ldi r25,lo8(42)
 724 0328 95B9      		out 0x5,r25
 725 032a 4398      		cbi 0x8,3
 726 032c 439A      		sbi 0x8,3
 727 032e 449A      		sbi 0x8,4
 112:lcd.c         **** 	write_data16(38);
 728               		.stabn	68,0,112,.LM77-.LFBB4
 729               	.LM77:
 730 0330 15B8      		out 0x5,__zero_reg__
 731 0332 4398      		cbi 0x8,3
 732 0334 439A      		sbi 0x8,3
 733 0336 96E2      		ldi r25,lo8(38)
 734 0338 95B9      		out 0x5,r25
 735 033a 4398      		cbi 0x8,3
 736 033c 439A      		sbi 0x8,3
 113:lcd.c         **** 	write_data16(79);
 737               		.stabn	68,0,113,.LM78-.LFBB4
 738               	.LM78:
 739 033e 15B8      		out 0x5,__zero_reg__
 740 0340 4398      		cbi 0x8,3
 741 0342 439A      		sbi 0x8,3
 742 0344 9FE4      		ldi r25,lo8(79)
 743 0346 95B9      		out 0x5,r25
 744 0348 4398      		cbi 0x8,3
 745 034a 439A      		sbi 0x8,3
 114:lcd.c         **** 	write_cmd(PAGE_ADDRESS_SET);
 746               		.stabn	68,0,114,.LM79-.LFBB4
 747               	.LM79:
 748 034c 4498      		cbi 0x8,4
 749 034e 9BE2      		ldi r25,lo8(43)
 750 0350 95B9      		out 0x5,r25
 751 0352 4398      		cbi 0x8,3
 752 0354 439A      		sbi 0x8,3
 753 0356 449A      		sbi 0x8,4
 115:lcd.c         **** 	write_data16(204);
 754               		.stabn	68,0,115,.LM80-.LFBB4
 755               	.LM80:
 756 0358 15B8      		out 0x5,__zero_reg__
 757 035a 4398      		cbi 0x8,3
 758 035c 439A      		sbi 0x8,3
 759 035e 9CEC      		ldi r25,lo8(-52)
 760 0360 95B9      		out 0x5,r25
 761 0362 4398      		cbi 0x8,3
 762 0364 439A      		sbi 0x8,3
 116:lcd.c         **** 	write_data16(277);
 763               		.stabn	68,0,116,.LM81-.LFBB4
 764               	.LM81:
 765 0366 91E0      		ldi r25,lo8(1)
 766 0368 95B9      		out 0x5,r25
 767 036a 4398      		cbi 0x8,3
 768 036c 439A      		sbi 0x8,3
 769 036e 95E1      		ldi r25,lo8(21)
 770 0370 95B9      		out 0x5,r25
 771 0372 4398      		cbi 0x8,3
 772 0374 439A      		sbi 0x8,3
GAS LISTING /tmp/ccj7iC5P.s 			page 17


 117:lcd.c         **** 	write_cmd(MEMORY_WRITE);
 773               		.stabn	68,0,117,.LM82-.LFBB4
 774               	.LM82:
 775 0376 4498      		cbi 0x8,4
 776 0378 9CE2      		ldi r25,lo8(44)
 777 037a 95B9      		out 0x5,r25
 778 037c 4398      		cbi 0x8,3
 779 037e 439A      		sbi 0x8,3
 780 0380 449A      		sbi 0x8,4
 781               	.LBB18:
 118:lcd.c         **** 	for(y = 0; y <= 36; y++){
 119:lcd.c         **** 		for(x = 0; x <= 20; x++){
 120:lcd.c         **** 			write_data16(pgm_read_word(&digit1[(2-digit)*777+x+y*21]));
 782               		.stabn	68,0,120,.LM83-.LFBB4
 783               	.LM83:
 784 0382 22E0      		ldi r18,lo8(2)
 785 0384 30E0      		ldi r19,0
 786 0386 A901      		movw r20,r18
 787 0388 481B      		sub r20,r24
 788 038a 5109      		sbc r21,__zero_reg__
 789 038c CA01      		movw r24,r20
 790 038e 29E0      		ldi r18,lo8(9)
 791 0390 33E0      		ldi r19,lo8(3)
 792 0392 829F      		mul r24,r18
 793 0394 A001      		movw r20,r0
 794 0396 839F      		mul r24,r19
 795 0398 500D      		add r21,r0
 796 039a 929F      		mul r25,r18
 797 039c 500D      		add r21,r0
 798 039e 1124      		clr r1
 799 03a0 9A01      		movw r18,r20
 800 03a2 220F      		lsl r18
 801 03a4 331F      		rol r19
 802 03a6 2050      		subi r18,lo8(-(digit1))
 803 03a8 3040      		sbci r19,hi8(-(digit1))
 804 03aa DA01      		movw r26,r20
 805 03ac A75F      		subi r26,-9
 806 03ae BC4F      		sbci r27,-4
 807               	.L23:
 808               	.LBE18:
 109:lcd.c         **** 	uint16_t x, y;
 809               		.stabn	68,0,109,.LM84-.LFBB4
 810               	.LM84:
 811 03b0 C901      		movw r24,r18
 119:lcd.c         **** 			write_data16(pgm_read_word(&digit1[(2-digit)*777+x+y*21]));
 812               		.stabn	68,0,119,.LM85-.LFBB4
 813               	.LM85:
 814 03b2 70E0      		ldi r23,0
 815 03b4 60E0      		ldi r22,0
 816               	.L24:
 817               	.LBB19:
 818               		.stabn	68,0,120,.LM86-.LFBB4
 819               	.LM86:
 820 03b6 FC01      		movw r30,r24
 821               	/* #APP */
 822               	 ;  120 "lcd.c" 1
 823 03b8 C591      		lpm r28, Z+
GAS LISTING /tmp/ccj7iC5P.s 			page 18


 824 03ba D491      		lpm r29, Z
 825               		
 826               	 ;  0 "" 2
 827               	/* #NOAPP */
 828               	.LBE19:
 829 03bc D5B9      		out 0x5,r29
 830 03be 4398      		cbi 0x8,3
 831 03c0 439A      		sbi 0x8,3
 832               	.LBB20:
 833 03c2 FC01      		movw r30,r24
 834               	/* #APP */
 835               	 ;  120 "lcd.c" 1
 836 03c4 C591      		lpm r28, Z+
 837 03c6 D491      		lpm r29, Z
 838               		
 839               	 ;  0 "" 2
 840               	/* #NOAPP */
 841               	.LBE20:
 842 03c8 C5B9      		out 0x5,r28
 843 03ca 4398      		cbi 0x8,3
 844 03cc 439A      		sbi 0x8,3
 845               	.LBB21:
 121:lcd.c         **** 			write_data16(pgm_read_word(&digit1[(2-digit)*777+x+y*21]));
 846               		.stabn	68,0,121,.LM87-.LFBB4
 847               	.LM87:
 848 03ce FC01      		movw r30,r24
 849               	/* #APP */
 850               	 ;  121 "lcd.c" 1
 851 03d0 C591      		lpm r28, Z+
 852 03d2 D491      		lpm r29, Z
 853               		
 854               	 ;  0 "" 2
 855               	/* #NOAPP */
 856               	.LBE21:
 857 03d4 D5B9      		out 0x5,r29
 858 03d6 4398      		cbi 0x8,3
 859 03d8 439A      		sbi 0x8,3
 860               	.LBB22:
 861 03da FC01      		movw r30,r24
 862               	/* #APP */
 863               	 ;  121 "lcd.c" 1
 864 03dc C591      		lpm r28, Z+
 865 03de D491      		lpm r29, Z
 866               		
 867               	 ;  0 "" 2
 868               	/* #NOAPP */
 869               	.LBE22:
 870 03e0 C5B9      		out 0x5,r28
 871 03e2 4398      		cbi 0x8,3
 872 03e4 439A      		sbi 0x8,3
 119:lcd.c         **** 			write_data16(pgm_read_word(&digit1[(2-digit)*777+x+y*21]));
 873               		.stabn	68,0,119,.LM88-.LFBB4
 874               	.LM88:
 875 03e6 6F5F      		subi r22,-1
 876 03e8 7F4F      		sbci r23,-1
 119:lcd.c         **** 			write_data16(pgm_read_word(&digit1[(2-digit)*777+x+y*21]));
 877               		.stabn	68,0,119,.LM89-.LFBB4
GAS LISTING /tmp/ccj7iC5P.s 			page 19


 878               	.LM89:
 879 03ea 0296      		adiw r24,2
 880 03ec 6531      		cpi r22,21
 881 03ee 7105      		cpc r23,__zero_reg__
 882 03f0 01F4      		brne .L24
 883 03f2 C901      		movw r24,r18
 122:lcd.c         **** 		}
 123:lcd.c         **** 		for(x = 0; x <= 20; x++){
 884               		.stabn	68,0,123,.LM90-.LFBB4
 885               	.LM90:
 886 03f4 70E0      		ldi r23,0
 887 03f6 60E0      		ldi r22,0
 888               	.L25:
 889               	.LBB23:
 124:lcd.c         **** 			write_data16(pgm_read_word(&digit1[(2-digit)*777+x+y*21]));
 890               		.stabn	68,0,124,.LM91-.LFBB4
 891               	.LM91:
 892 03f8 FC01      		movw r30,r24
 893               	/* #APP */
 894               	 ;  124 "lcd.c" 1
 895 03fa C591      		lpm r28, Z+
 896 03fc D491      		lpm r29, Z
 897               		
 898               	 ;  0 "" 2
 899               	/* #NOAPP */
 900               	.LBE23:
 901 03fe D5B9      		out 0x5,r29
 902 0400 4398      		cbi 0x8,3
 903 0402 439A      		sbi 0x8,3
 904               	.LBB24:
 905 0404 FC01      		movw r30,r24
 906               	/* #APP */
 907               	 ;  124 "lcd.c" 1
 908 0406 C591      		lpm r28, Z+
 909 0408 D491      		lpm r29, Z
 910               		
 911               	 ;  0 "" 2
 912               	/* #NOAPP */
 913               	.LBE24:
 914 040a C5B9      		out 0x5,r28
 915 040c 4398      		cbi 0x8,3
 916 040e 439A      		sbi 0x8,3
 917               	.LBB25:
 125:lcd.c         **** 			write_data16(pgm_read_word(&digit1[(2-digit)*777+x+y*21]));
 918               		.stabn	68,0,125,.LM92-.LFBB4
 919               	.LM92:
 920 0410 FC01      		movw r30,r24
 921               	/* #APP */
 922               	 ;  125 "lcd.c" 1
 923 0412 C591      		lpm r28, Z+
 924 0414 D491      		lpm r29, Z
 925               		
 926               	 ;  0 "" 2
 927               	/* #NOAPP */
 928               	.LBE25:
 929 0416 D5B9      		out 0x5,r29
 930 0418 4398      		cbi 0x8,3
GAS LISTING /tmp/ccj7iC5P.s 			page 20


 931 041a 439A      		sbi 0x8,3
 932               	.LBB26:
 933 041c FC01      		movw r30,r24
 934               	/* #APP */
 935               	 ;  125 "lcd.c" 1
 936 041e C591      		lpm r28, Z+
 937 0420 D491      		lpm r29, Z
 938               		
 939               	 ;  0 "" 2
 940               	/* #NOAPP */
 941               	.LBE26:
 942 0422 C5B9      		out 0x5,r28
 943 0424 4398      		cbi 0x8,3
 944 0426 439A      		sbi 0x8,3
 123:lcd.c         **** 			write_data16(pgm_read_word(&digit1[(2-digit)*777+x+y*21]));
 945               		.stabn	68,0,123,.LM93-.LFBB4
 946               	.LM93:
 947 0428 6F5F      		subi r22,-1
 948 042a 7F4F      		sbci r23,-1
 123:lcd.c         **** 			write_data16(pgm_read_word(&digit1[(2-digit)*777+x+y*21]));
 949               		.stabn	68,0,123,.LM94-.LFBB4
 950               	.LM94:
 951 042c 0296      		adiw r24,2
 952 042e 6531      		cpi r22,21
 953 0430 7105      		cpc r23,__zero_reg__
 954 0432 01F4      		brne .L25
 118:lcd.c         **** 		for(x = 0; x <= 20; x++){
 955               		.stabn	68,0,118,.LM95-.LFBB4
 956               	.LM95:
 957 0434 265D      		subi r18,-42
 958 0436 3F4F      		sbci r19,-1
 959 0438 4B5E      		subi r20,-21
 960 043a 5F4F      		sbci r21,-1
 961 043c 4A17      		cp r20,r26
 962 043e 5B07      		cpc r21,r27
 963 0440 01F0      		breq .+2
 964 0442 00C0      		rjmp .L23
 965               	/* epilogue start */
 126:lcd.c         **** 		}
 127:lcd.c         **** 	}
 128:lcd.c         **** }
 966               		.stabn	68,0,128,.LM96-.LFBB4
 967               	.LM96:
 968 0444 DF91      		pop r29
 969 0446 CF91      		pop r28
 970 0448 0895      		ret
 971               		.size	pwr_kw, .-pwr_kw
 972               	.Lscope4:
 973               		.stabs	"",36,0,0,.Lscope4-.LFBB4
 974               		.stabs	"fill_rectangle:F(0,1)",36,0,130,fill_rectangle
 975               		.stabs	"r:p(0,8)=(0,9)=s8left:(0,6),0,16;right:(0,6),16,16;top:(0,6),32,16;bottom:(0,6),48,16;;",1
 976               	.global	fill_rectangle
 977               		.type	fill_rectangle, @function
 978               	fill_rectangle:
 129:lcd.c         **** 
 130:lcd.c         **** void fill_rectangle(rectangle r, uint16_t col)
 131:lcd.c         **** {
GAS LISTING /tmp/ccj7iC5P.s 			page 21


 979               		.stabn	68,0,131,.LM97-.LFBB5
 980               	.LM97:
 981               	.LFBB5:
 982 044a 0F93      		push r16
 983 044c 1F93      		push r17
 984 044e CF93      		push r28
 985 0450 DF93      		push r29
 986 0452 CDB7      		in r28,__SP_L__
 987 0454 DEB7      		in r29,__SP_H__
 988 0456 2897      		sbiw r28,8
 989 0458 0FB6      		in __tmp_reg__,__SREG__
 990 045a F894      		cli
 991 045c DEBF      		out __SP_H__,r29
 992 045e 0FBE      		out __SREG__,__tmp_reg__
 993 0460 CDBF      		out __SP_L__,r28
 994               	/* prologue: function */
 995               	/* frame size = 8 */
 996               	/* stack size = 12 */
 997               	.L__stack_usage = 12
 998 0462 2983      		std Y+1,r18
 999 0464 3A83      		std Y+2,r19
 1000 0466 4B83      		std Y+3,r20
 1001 0468 5C83      		std Y+4,r21
 1002 046a 462F      		mov r20,r22
 1003 046c 6D83      		std Y+5,r22
 1004 046e 572F      		mov r21,r23
 1005 0470 7E83      		std Y+6,r23
 1006 0472 8F83      		std Y+7,r24
 1007 0474 9887      		std Y+8,r25
 1008 0476 8981      		ldd r24,Y+1
 1009 0478 9A81      		ldd r25,Y+2
 1010 047a 6B81      		ldd r22,Y+3
 1011 047c 7C81      		ldd r23,Y+4
 1012 047e EF81      		ldd r30,Y+7
 1013 0480 F885      		ldd r31,Y+8
 132:lcd.c         **** 	uint16_t x, y;
 133:lcd.c         **** 	write_cmd(COLUMN_ADDRESS_SET);
 1014               		.stabn	68,0,133,.LM98-.LFBB5
 1015               	.LM98:
 1016 0482 4498      		cbi 0x8,4
 1017 0484 2AE2      		ldi r18,lo8(42)
 1018 0486 25B9      		out 0x5,r18
 1019 0488 4398      		cbi 0x8,3
 1020 048a 439A      		sbi 0x8,3
 1021 048c 449A      		sbi 0x8,4
 134:lcd.c         **** 	write_data16(r.left);
 1022               		.stabn	68,0,134,.LM99-.LFBB5
 1023               	.LM99:
 1024 048e 95B9      		out 0x5,r25
 1025 0490 4398      		cbi 0x8,3
 1026 0492 439A      		sbi 0x8,3
 1027 0494 85B9      		out 0x5,r24
 1028 0496 4398      		cbi 0x8,3
 1029 0498 439A      		sbi 0x8,3
 135:lcd.c         **** 	write_data16(r.right);
 1030               		.stabn	68,0,135,.LM100-.LFBB5
 1031               	.LM100:
GAS LISTING /tmp/ccj7iC5P.s 			page 22


 1032 049a 75B9      		out 0x5,r23
 1033 049c 4398      		cbi 0x8,3
 1034 049e 439A      		sbi 0x8,3
 1035 04a0 65B9      		out 0x5,r22
 1036 04a2 4398      		cbi 0x8,3
 1037 04a4 439A      		sbi 0x8,3
 136:lcd.c         **** 	write_cmd(PAGE_ADDRESS_SET);
 1038               		.stabn	68,0,136,.LM101-.LFBB5
 1039               	.LM101:
 1040 04a6 4498      		cbi 0x8,4
 1041 04a8 2BE2      		ldi r18,lo8(43)
 1042 04aa 25B9      		out 0x5,r18
 1043 04ac 4398      		cbi 0x8,3
 1044 04ae 439A      		sbi 0x8,3
 1045 04b0 449A      		sbi 0x8,4
 137:lcd.c         **** 	write_data16(r.top);
 1046               		.stabn	68,0,137,.LM102-.LFBB5
 1047               	.LM102:
 1048 04b2 55B9      		out 0x5,r21
 1049 04b4 4398      		cbi 0x8,3
 1050 04b6 439A      		sbi 0x8,3
 1051 04b8 45B9      		out 0x5,r20
 1052 04ba 4398      		cbi 0x8,3
 1053 04bc 439A      		sbi 0x8,3
 138:lcd.c         **** 	write_data16(r.bottom);
 1054               		.stabn	68,0,138,.LM103-.LFBB5
 1055               	.LM103:
 1056 04be F5B9      		out 0x5,r31
 1057 04c0 4398      		cbi 0x8,3
 1058 04c2 439A      		sbi 0x8,3
 1059 04c4 E5B9      		out 0x5,r30
 1060 04c6 4398      		cbi 0x8,3
 1061 04c8 439A      		sbi 0x8,3
 139:lcd.c         **** 	write_cmd(MEMORY_WRITE);
 1062               		.stabn	68,0,139,.LM104-.LFBB5
 1063               	.LM104:
 1064 04ca 4498      		cbi 0x8,4
 1065 04cc 2CE2      		ldi r18,lo8(44)
 1066 04ce 25B9      		out 0x5,r18
 1067 04d0 4398      		cbi 0x8,3
 1068 04d2 439A      		sbi 0x8,3
 1069 04d4 449A      		sbi 0x8,4
 1070               	.L30:
 140:lcd.c         **** 	for(x=r.left; x<=r.right; x++)
 1071               		.stabn	68,0,140,.LM105-.LFBB5
 1072               	.LM105:
 1073 04d6 6817      		cp r22,r24
 1074 04d8 7907      		cpc r23,r25
 1075 04da 00F4      		brsh .L33
 1076               	/* epilogue start */
 141:lcd.c         **** 		for(y=r.top; y<=r.bottom; y++)
 142:lcd.c         **** 			write_data16(col);
 143:lcd.c         **** }
 1077               		.stabn	68,0,143,.LM106-.LFBB5
 1078               	.LM106:
 1079 04dc 2896      		adiw r28,8
 1080 04de 0FB6      		in __tmp_reg__,__SREG__
GAS LISTING /tmp/ccj7iC5P.s 			page 23


 1081 04e0 F894      		cli
 1082 04e2 DEBF      		out __SP_H__,r29
 1083 04e4 0FBE      		out __SREG__,__tmp_reg__
 1084 04e6 CDBF      		out __SP_L__,r28
 1085 04e8 DF91      		pop r29
 1086 04ea CF91      		pop r28
 1087 04ec 1F91      		pop r17
 1088 04ee 0F91      		pop r16
 1089 04f0 0895      		ret
 1090               	.L31:
 142:lcd.c         **** }
 1091               		.stabn	68,0,142,.LM107-.LFBB5
 1092               	.LM107:
 1093 04f2 15B9      		out 0x5,r17
 1094 04f4 4398      		cbi 0x8,3
 1095 04f6 439A      		sbi 0x8,3
 1096 04f8 05B9      		out 0x5,r16
 1097 04fa 4398      		cbi 0x8,3
 1098 04fc 439A      		sbi 0x8,3
 141:lcd.c         **** 		for(y=r.top; y<=r.bottom; y++)
 1099               		.stabn	68,0,141,.LM108-.LFBB5
 1100               	.LM108:
 1101 04fe 2F5F      		subi r18,-1
 1102 0500 3F4F      		sbci r19,-1
 1103               	.L32:
 141:lcd.c         **** 		for(y=r.top; y<=r.bottom; y++)
 1104               		.stabn	68,0,141,.LM109-.LFBB5
 1105               	.LM109:
 1106 0502 E217      		cp r30,r18
 1107 0504 F307      		cpc r31,r19
 1108 0506 00F4      		brsh .L31
 140:lcd.c         **** 	for(x=r.left; x<=r.right; x++)
 1109               		.stabn	68,0,140,.LM110-.LFBB5
 1110               	.LM110:
 1111 0508 0196      		adiw r24,1
 1112 050a 00C0      		rjmp .L30
 1113               	.L33:
 141:lcd.c         **** 		for(y=r.top; y<=r.bottom; y++)
 1114               		.stabn	68,0,141,.LM111-.LFBB5
 1115               	.LM111:
 1116 050c 9A01      		movw r18,r20
 1117 050e 00C0      		rjmp .L32
 1118               		.size	fill_rectangle, .-fill_rectangle
 1119               		.stabs	"x:r(0,6)",64,0,132,24
 1120               		.stabs	"y:r(0,6)",64,0,132,18
 1121               		.stabn	192,0,0,.LFBB5-.LFBB5
 1122               		.stabn	224,0,0,.Lscope5-.LFBB5
 1123               	.Lscope5:
 1124               		.stabs	"",36,0,0,.Lscope5-.LFBB5
 1125               		.section	.rodata
 1126               	.LC0:
 1127 0000 1800      		.word	24
 1128 0002 1C00      		.word	28
 1129 0004 1200      		.word	18
 1130 0006 1600      		.word	22
 1131               		.text
 1132               		.stabs	"LC1_green:F(0,1)",36,0,145,LC1_green
GAS LISTING /tmp/ccj7iC5P.s 			page 24


 1133               	.global	LC1_green
 1134               		.type	LC1_green, @function
 1135               	LC1_green:
 144:lcd.c         **** 
 145:lcd.c         **** void LC1_green(void)
 146:lcd.c         **** {
 1136               		.stabn	68,0,146,.LM112-.LFBB6
 1137               	.LM112:
 1138               	.LFBB6:
 1139 0510 0F93      		push r16
 1140 0512 1F93      		push r17
 1141 0514 CF93      		push r28
 1142 0516 DF93      		push r29
 1143 0518 CDB7      		in r28,__SP_L__
 1144 051a DEB7      		in r29,__SP_H__
 1145 051c 2897      		sbiw r28,8
 1146 051e 0FB6      		in __tmp_reg__,__SREG__
 1147 0520 F894      		cli
 1148 0522 DEBF      		out __SP_H__,r29
 1149 0524 0FBE      		out __SREG__,__tmp_reg__
 1150 0526 CDBF      		out __SP_L__,r28
 1151               	/* prologue: function */
 1152               	/* frame size = 8 */
 1153               	/* stack size = 12 */
 1154               	.L__stack_usage = 12
 147:lcd.c         **** 	rectangle LC1 = {24,28,18,22};
 1155               		.stabn	68,0,147,.LM113-.LFBB6
 1156               	.LM113:
 1157 0528 88E0      		ldi r24,lo8(8)
 1158 052a E0E0      		ldi r30,lo8(.LC0)
 1159 052c F0E0      		ldi r31,hi8(.LC0)
 1160 052e DE01      		movw r26,r28
 1161 0530 1196      		adiw r26,1
 1162               		0:
 1163 0532 0190      		ld r0,Z+
 1164 0534 0D92      		st X+,r0
 1165 0536 8A95      		dec r24
 1166 0538 01F4      		brne 0b
 148:lcd.c         **** 	fill_rectangle(LC1,GREEN);
 1167               		.stabn	68,0,148,.LM114-.LFBB6
 1168               	.LM114:
 1169 053a 00EE      		ldi r16,lo8(-32)
 1170 053c 17E0      		ldi r17,lo8(7)
 1171 053e 2981      		ldd r18,Y+1
 1172 0540 3A81      		ldd r19,Y+2
 1173 0542 4B81      		ldd r20,Y+3
 1174 0544 5C81      		ldd r21,Y+4
 1175 0546 6D81      		ldd r22,Y+5
 1176 0548 7E81      		ldd r23,Y+6
 1177 054a 8F81      		ldd r24,Y+7
 1178 054c 9885      		ldd r25,Y+8
 1179 054e 0E94 0000 		call fill_rectangle
 1180               	/* epilogue start */
 149:lcd.c         **** }
 1181               		.stabn	68,0,149,.LM115-.LFBB6
 1182               	.LM115:
 1183 0552 2896      		adiw r28,8
GAS LISTING /tmp/ccj7iC5P.s 			page 25


 1184 0554 0FB6      		in __tmp_reg__,__SREG__
 1185 0556 F894      		cli
 1186 0558 DEBF      		out __SP_H__,r29
 1187 055a 0FBE      		out __SREG__,__tmp_reg__
 1188 055c CDBF      		out __SP_L__,r28
 1189 055e DF91      		pop r29
 1190 0560 CF91      		pop r28
 1191 0562 1F91      		pop r17
 1192 0564 0F91      		pop r16
 1193 0566 0895      		ret
 1194               		.size	LC1_green, .-LC1_green
 1195               		.stabs	"LC1:(0,8)",128,0,147,1
 1196               		.stabs	"rectangle:t(0,8)",128,0,34,0
 1197               		.stabn	192,0,0,.LFBB6-.LFBB6
 1198               		.stabn	224,0,0,.Lscope6-.LFBB6
 1199               	.Lscope6:
 1200               		.stabs	"",36,0,0,.Lscope6-.LFBB6
 1201               		.stabs	"LC1_red:F(0,1)",36,0,151,LC1_red
 1202               	.global	LC1_red
 1203               		.type	LC1_red, @function
 1204               	LC1_red:
 150:lcd.c         **** 
 151:lcd.c         **** void LC1_red(void)
 152:lcd.c         **** {
 1205               		.stabn	68,0,152,.LM116-.LFBB7
 1206               	.LM116:
 1207               	.LFBB7:
 1208 0568 0F93      		push r16
 1209 056a 1F93      		push r17
 1210 056c CF93      		push r28
 1211 056e DF93      		push r29
 1212 0570 CDB7      		in r28,__SP_L__
 1213 0572 DEB7      		in r29,__SP_H__
 1214 0574 2897      		sbiw r28,8
 1215 0576 0FB6      		in __tmp_reg__,__SREG__
 1216 0578 F894      		cli
 1217 057a DEBF      		out __SP_H__,r29
 1218 057c 0FBE      		out __SREG__,__tmp_reg__
 1219 057e CDBF      		out __SP_L__,r28
 1220               	/* prologue: function */
 1221               	/* frame size = 8 */
 1222               	/* stack size = 12 */
 1223               	.L__stack_usage = 12
 153:lcd.c         **** 	rectangle LC1 = {24,28,18,22};
 1224               		.stabn	68,0,153,.LM117-.LFBB7
 1225               	.LM117:
 1226 0580 88E0      		ldi r24,lo8(8)
 1227 0582 E0E0      		ldi r30,lo8(.LC0)
 1228 0584 F0E0      		ldi r31,hi8(.LC0)
 1229 0586 DE01      		movw r26,r28
 1230 0588 1196      		adiw r26,1
 1231               		0:
 1232 058a 0190      		ld r0,Z+
 1233 058c 0D92      		st X+,r0
 1234 058e 8A95      		dec r24
 1235 0590 01F4      		brne 0b
 154:lcd.c         **** 	fill_rectangle(LC1,RED);
GAS LISTING /tmp/ccj7iC5P.s 			page 26


 1236               		.stabn	68,0,154,.LM118-.LFBB7
 1237               	.LM118:
 1238 0592 00E0      		ldi r16,0
 1239 0594 18EF      		ldi r17,lo8(-8)
 1240 0596 2981      		ldd r18,Y+1
 1241 0598 3A81      		ldd r19,Y+2
 1242 059a 4B81      		ldd r20,Y+3
 1243 059c 5C81      		ldd r21,Y+4
 1244 059e 6D81      		ldd r22,Y+5
 1245 05a0 7E81      		ldd r23,Y+6
 1246 05a2 8F81      		ldd r24,Y+7
 1247 05a4 9885      		ldd r25,Y+8
 1248 05a6 0E94 0000 		call fill_rectangle
 1249               	/* epilogue start */
 155:lcd.c         **** }
 1250               		.stabn	68,0,155,.LM119-.LFBB7
 1251               	.LM119:
 1252 05aa 2896      		adiw r28,8
 1253 05ac 0FB6      		in __tmp_reg__,__SREG__
 1254 05ae F894      		cli
 1255 05b0 DEBF      		out __SP_H__,r29
 1256 05b2 0FBE      		out __SREG__,__tmp_reg__
 1257 05b4 CDBF      		out __SP_L__,r28
 1258 05b6 DF91      		pop r29
 1259 05b8 CF91      		pop r28
 1260 05ba 1F91      		pop r17
 1261 05bc 0F91      		pop r16
 1262 05be 0895      		ret
 1263               		.size	LC1_red, .-LC1_red
 1264               		.stabs	"LC1:(0,8)",128,0,153,1
 1265               		.stabn	192,0,0,.LFBB7-.LFBB7
 1266               		.stabn	224,0,0,.Lscope7-.LFBB7
 1267               	.Lscope7:
 1268               		.stabs	"",36,0,0,.Lscope7-.LFBB7
 1269               		.section	.rodata
 1270               	.LC1:
 1271 0008 1800      		.word	24
 1272 000a 1C00      		.word	28
 1273 000c 3200      		.word	50
 1274 000e 3600      		.word	54
 1275               		.text
 1276               		.stabs	"LC2_green:F(0,1)",36,0,157,LC2_green
 1277               	.global	LC2_green
 1278               		.type	LC2_green, @function
 1279               	LC2_green:
 156:lcd.c         **** 
 157:lcd.c         **** void LC2_green(void)
 158:lcd.c         **** {
 1280               		.stabn	68,0,158,.LM120-.LFBB8
 1281               	.LM120:
 1282               	.LFBB8:
 1283 05c0 0F93      		push r16
 1284 05c2 1F93      		push r17
 1285 05c4 CF93      		push r28
 1286 05c6 DF93      		push r29
 1287 05c8 CDB7      		in r28,__SP_L__
 1288 05ca DEB7      		in r29,__SP_H__
GAS LISTING /tmp/ccj7iC5P.s 			page 27


 1289 05cc 2897      		sbiw r28,8
 1290 05ce 0FB6      		in __tmp_reg__,__SREG__
 1291 05d0 F894      		cli
 1292 05d2 DEBF      		out __SP_H__,r29
 1293 05d4 0FBE      		out __SREG__,__tmp_reg__
 1294 05d6 CDBF      		out __SP_L__,r28
 1295               	/* prologue: function */
 1296               	/* frame size = 8 */
 1297               	/* stack size = 12 */
 1298               	.L__stack_usage = 12
 159:lcd.c         **** 	rectangle LC2 = {24,28,50,54};
 1299               		.stabn	68,0,159,.LM121-.LFBB8
 1300               	.LM121:
 1301 05d8 88E0      		ldi r24,lo8(8)
 1302 05da E0E0      		ldi r30,lo8(.LC1)
 1303 05dc F0E0      		ldi r31,hi8(.LC1)
 1304 05de DE01      		movw r26,r28
 1305 05e0 1196      		adiw r26,1
 1306               		0:
 1307 05e2 0190      		ld r0,Z+
 1308 05e4 0D92      		st X+,r0
 1309 05e6 8A95      		dec r24
 1310 05e8 01F4      		brne 0b
 160:lcd.c         **** 	fill_rectangle(LC2,GREEN);
 1311               		.stabn	68,0,160,.LM122-.LFBB8
 1312               	.LM122:
 1313 05ea 00EE      		ldi r16,lo8(-32)
 1314 05ec 17E0      		ldi r17,lo8(7)
 1315 05ee 2981      		ldd r18,Y+1
 1316 05f0 3A81      		ldd r19,Y+2
 1317 05f2 4B81      		ldd r20,Y+3
 1318 05f4 5C81      		ldd r21,Y+4
 1319 05f6 6D81      		ldd r22,Y+5
 1320 05f8 7E81      		ldd r23,Y+6
 1321 05fa 8F81      		ldd r24,Y+7
 1322 05fc 9885      		ldd r25,Y+8
 1323 05fe 0E94 0000 		call fill_rectangle
 1324               	/* epilogue start */
 161:lcd.c         **** }
 1325               		.stabn	68,0,161,.LM123-.LFBB8
 1326               	.LM123:
 1327 0602 2896      		adiw r28,8
 1328 0604 0FB6      		in __tmp_reg__,__SREG__
 1329 0606 F894      		cli
 1330 0608 DEBF      		out __SP_H__,r29
 1331 060a 0FBE      		out __SREG__,__tmp_reg__
 1332 060c CDBF      		out __SP_L__,r28
 1333 060e DF91      		pop r29
 1334 0610 CF91      		pop r28
 1335 0612 1F91      		pop r17
 1336 0614 0F91      		pop r16
 1337 0616 0895      		ret
 1338               		.size	LC2_green, .-LC2_green
 1339               		.stabs	"LC2:(0,8)",128,0,159,1
 1340               		.stabn	192,0,0,.LFBB8-.LFBB8
 1341               		.stabn	224,0,0,.Lscope8-.LFBB8
 1342               	.Lscope8:
GAS LISTING /tmp/ccj7iC5P.s 			page 28


 1343               		.stabs	"",36,0,0,.Lscope8-.LFBB8
 1344               		.stabs	"LC2_red:F(0,1)",36,0,163,LC2_red
 1345               	.global	LC2_red
 1346               		.type	LC2_red, @function
 1347               	LC2_red:
 162:lcd.c         **** 
 163:lcd.c         **** void LC2_red(void)
 164:lcd.c         **** {
 1348               		.stabn	68,0,164,.LM124-.LFBB9
 1349               	.LM124:
 1350               	.LFBB9:
 1351 0618 0F93      		push r16
 1352 061a 1F93      		push r17
 1353 061c CF93      		push r28
 1354 061e DF93      		push r29
 1355 0620 CDB7      		in r28,__SP_L__
 1356 0622 DEB7      		in r29,__SP_H__
 1357 0624 2897      		sbiw r28,8
 1358 0626 0FB6      		in __tmp_reg__,__SREG__
 1359 0628 F894      		cli
 1360 062a DEBF      		out __SP_H__,r29
 1361 062c 0FBE      		out __SREG__,__tmp_reg__
 1362 062e CDBF      		out __SP_L__,r28
 1363               	/* prologue: function */
 1364               	/* frame size = 8 */
 1365               	/* stack size = 12 */
 1366               	.L__stack_usage = 12
 165:lcd.c         **** 	rectangle LC2 = {24,28,50,54};
 1367               		.stabn	68,0,165,.LM125-.LFBB9
 1368               	.LM125:
 1369 0630 88E0      		ldi r24,lo8(8)
 1370 0632 E0E0      		ldi r30,lo8(.LC1)
 1371 0634 F0E0      		ldi r31,hi8(.LC1)
 1372 0636 DE01      		movw r26,r28
 1373 0638 1196      		adiw r26,1
 1374               		0:
 1375 063a 0190      		ld r0,Z+
 1376 063c 0D92      		st X+,r0
 1377 063e 8A95      		dec r24
 1378 0640 01F4      		brne 0b
 166:lcd.c         **** 	fill_rectangle(LC2,RED);
 1379               		.stabn	68,0,166,.LM126-.LFBB9
 1380               	.LM126:
 1381 0642 00E0      		ldi r16,0
 1382 0644 18EF      		ldi r17,lo8(-8)
 1383 0646 2981      		ldd r18,Y+1
 1384 0648 3A81      		ldd r19,Y+2
 1385 064a 4B81      		ldd r20,Y+3
 1386 064c 5C81      		ldd r21,Y+4
 1387 064e 6D81      		ldd r22,Y+5
 1388 0650 7E81      		ldd r23,Y+6
 1389 0652 8F81      		ldd r24,Y+7
 1390 0654 9885      		ldd r25,Y+8
 1391 0656 0E94 0000 		call fill_rectangle
 1392               	/* epilogue start */
 167:lcd.c         **** }
 1393               		.stabn	68,0,167,.LM127-.LFBB9
GAS LISTING /tmp/ccj7iC5P.s 			page 29


 1394               	.LM127:
 1395 065a 2896      		adiw r28,8
 1396 065c 0FB6      		in __tmp_reg__,__SREG__
 1397 065e F894      		cli
 1398 0660 DEBF      		out __SP_H__,r29
 1399 0662 0FBE      		out __SREG__,__tmp_reg__
 1400 0664 CDBF      		out __SP_L__,r28
 1401 0666 DF91      		pop r29
 1402 0668 CF91      		pop r28
 1403 066a 1F91      		pop r17
 1404 066c 0F91      		pop r16
 1405 066e 0895      		ret
 1406               		.size	LC2_red, .-LC2_red
 1407               		.stabs	"LC2:(0,8)",128,0,165,1
 1408               		.stabn	192,0,0,.LFBB9-.LFBB9
 1409               		.stabn	224,0,0,.Lscope9-.LFBB9
 1410               	.Lscope9:
 1411               		.stabs	"",36,0,0,.Lscope9-.LFBB9
 1412               		.section	.rodata
 1413               	.LC2:
 1414 0010 1800      		.word	24
 1415 0012 1C00      		.word	28
 1416 0014 5000      		.word	80
 1417 0016 5400      		.word	84
 1418               		.text
 1419               		.stabs	"LC3_green:F(0,1)",36,0,169,LC3_green
 1420               	.global	LC3_green
 1421               		.type	LC3_green, @function
 1422               	LC3_green:
 168:lcd.c         **** 
 169:lcd.c         **** void LC3_green(void)
 170:lcd.c         **** {
 1423               		.stabn	68,0,170,.LM128-.LFBB10
 1424               	.LM128:
 1425               	.LFBB10:
 1426 0670 0F93      		push r16
 1427 0672 1F93      		push r17
 1428 0674 CF93      		push r28
 1429 0676 DF93      		push r29
 1430 0678 CDB7      		in r28,__SP_L__
 1431 067a DEB7      		in r29,__SP_H__
 1432 067c 2897      		sbiw r28,8
 1433 067e 0FB6      		in __tmp_reg__,__SREG__
 1434 0680 F894      		cli
 1435 0682 DEBF      		out __SP_H__,r29
 1436 0684 0FBE      		out __SREG__,__tmp_reg__
 1437 0686 CDBF      		out __SP_L__,r28
 1438               	/* prologue: function */
 1439               	/* frame size = 8 */
 1440               	/* stack size = 12 */
 1441               	.L__stack_usage = 12
 171:lcd.c         **** 	rectangle LC3 = {24,28,80,84};
 1442               		.stabn	68,0,171,.LM129-.LFBB10
 1443               	.LM129:
 1444 0688 88E0      		ldi r24,lo8(8)
 1445 068a E0E0      		ldi r30,lo8(.LC2)
 1446 068c F0E0      		ldi r31,hi8(.LC2)
GAS LISTING /tmp/ccj7iC5P.s 			page 30


 1447 068e DE01      		movw r26,r28
 1448 0690 1196      		adiw r26,1
 1449               		0:
 1450 0692 0190      		ld r0,Z+
 1451 0694 0D92      		st X+,r0
 1452 0696 8A95      		dec r24
 1453 0698 01F4      		brne 0b
 172:lcd.c         **** 	fill_rectangle(LC3,GREEN);
 1454               		.stabn	68,0,172,.LM130-.LFBB10
 1455               	.LM130:
 1456 069a 00EE      		ldi r16,lo8(-32)
 1457 069c 17E0      		ldi r17,lo8(7)
 1458 069e 2981      		ldd r18,Y+1
 1459 06a0 3A81      		ldd r19,Y+2
 1460 06a2 4B81      		ldd r20,Y+3
 1461 06a4 5C81      		ldd r21,Y+4
 1462 06a6 6D81      		ldd r22,Y+5
 1463 06a8 7E81      		ldd r23,Y+6
 1464 06aa 8F81      		ldd r24,Y+7
 1465 06ac 9885      		ldd r25,Y+8
 1466 06ae 0E94 0000 		call fill_rectangle
 1467               	/* epilogue start */
 173:lcd.c         **** }
 1468               		.stabn	68,0,173,.LM131-.LFBB10
 1469               	.LM131:
 1470 06b2 2896      		adiw r28,8
 1471 06b4 0FB6      		in __tmp_reg__,__SREG__
 1472 06b6 F894      		cli
 1473 06b8 DEBF      		out __SP_H__,r29
 1474 06ba 0FBE      		out __SREG__,__tmp_reg__
 1475 06bc CDBF      		out __SP_L__,r28
 1476 06be DF91      		pop r29
 1477 06c0 CF91      		pop r28
 1478 06c2 1F91      		pop r17
 1479 06c4 0F91      		pop r16
 1480 06c6 0895      		ret
 1481               		.size	LC3_green, .-LC3_green
 1482               		.stabs	"LC3:(0,8)",128,0,171,1
 1483               		.stabn	192,0,0,.LFBB10-.LFBB10
 1484               		.stabn	224,0,0,.Lscope10-.LFBB10
 1485               	.Lscope10:
 1486               		.stabs	"",36,0,0,.Lscope10-.LFBB10
 1487               		.stabs	"LC3_red:F(0,1)",36,0,175,LC3_red
 1488               	.global	LC3_red
 1489               		.type	LC3_red, @function
 1490               	LC3_red:
 174:lcd.c         **** 
 175:lcd.c         **** void LC3_red(void)
 176:lcd.c         **** {
 1491               		.stabn	68,0,176,.LM132-.LFBB11
 1492               	.LM132:
 1493               	.LFBB11:
 1494 06c8 0F93      		push r16
 1495 06ca 1F93      		push r17
 1496 06cc CF93      		push r28
 1497 06ce DF93      		push r29
 1498 06d0 CDB7      		in r28,__SP_L__
GAS LISTING /tmp/ccj7iC5P.s 			page 31


 1499 06d2 DEB7      		in r29,__SP_H__
 1500 06d4 2897      		sbiw r28,8
 1501 06d6 0FB6      		in __tmp_reg__,__SREG__
 1502 06d8 F894      		cli
 1503 06da DEBF      		out __SP_H__,r29
 1504 06dc 0FBE      		out __SREG__,__tmp_reg__
 1505 06de CDBF      		out __SP_L__,r28
 1506               	/* prologue: function */
 1507               	/* frame size = 8 */
 1508               	/* stack size = 12 */
 1509               	.L__stack_usage = 12
 177:lcd.c         **** 	rectangle LC3 = {24,28,80,84};
 1510               		.stabn	68,0,177,.LM133-.LFBB11
 1511               	.LM133:
 1512 06e0 88E0      		ldi r24,lo8(8)
 1513 06e2 E0E0      		ldi r30,lo8(.LC2)
 1514 06e4 F0E0      		ldi r31,hi8(.LC2)
 1515 06e6 DE01      		movw r26,r28
 1516 06e8 1196      		adiw r26,1
 1517               		0:
 1518 06ea 0190      		ld r0,Z+
 1519 06ec 0D92      		st X+,r0
 1520 06ee 8A95      		dec r24
 1521 06f0 01F4      		brne 0b
 178:lcd.c         **** 	fill_rectangle(LC3,RED);
 1522               		.stabn	68,0,178,.LM134-.LFBB11
 1523               	.LM134:
 1524 06f2 00E0      		ldi r16,0
 1525 06f4 18EF      		ldi r17,lo8(-8)
 1526 06f6 2981      		ldd r18,Y+1
 1527 06f8 3A81      		ldd r19,Y+2
 1528 06fa 4B81      		ldd r20,Y+3
 1529 06fc 5C81      		ldd r21,Y+4
 1530 06fe 6D81      		ldd r22,Y+5
 1531 0700 7E81      		ldd r23,Y+6
 1532 0702 8F81      		ldd r24,Y+7
 1533 0704 9885      		ldd r25,Y+8
 1534 0706 0E94 0000 		call fill_rectangle
 1535               	/* epilogue start */
 179:lcd.c         **** }
 1536               		.stabn	68,0,179,.LM135-.LFBB11
 1537               	.LM135:
 1538 070a 2896      		adiw r28,8
 1539 070c 0FB6      		in __tmp_reg__,__SREG__
 1540 070e F894      		cli
 1541 0710 DEBF      		out __SP_H__,r29
 1542 0712 0FBE      		out __SREG__,__tmp_reg__
 1543 0714 CDBF      		out __SP_L__,r28
 1544 0716 DF91      		pop r29
 1545 0718 CF91      		pop r28
 1546 071a 1F91      		pop r17
 1547 071c 0F91      		pop r16
 1548 071e 0895      		ret
 1549               		.size	LC3_red, .-LC3_red
 1550               		.stabs	"LC3:(0,8)",128,0,177,1
 1551               		.stabn	192,0,0,.LFBB11-.LFBB11
 1552               		.stabn	224,0,0,.Lscope11-.LFBB11
GAS LISTING /tmp/ccj7iC5P.s 			page 32


 1553               	.Lscope11:
 1554               		.stabs	"",36,0,0,.Lscope11-.LFBB11
 1555               		.section	.rodata
 1556               	.LC3:
 1557 0018 CE00      		.word	206
 1558 001a D200      		.word	210
 1559 001c 1200      		.word	18
 1560 001e 1600      		.word	22
 1561               		.text
 1562               		.stabs	"LS1_green:F(0,1)",36,0,182,LS1_green
 1563               	.global	LS1_green
 1564               		.type	LS1_green, @function
 1565               	LS1_green:
 180:lcd.c         **** 
 181:lcd.c         **** 
 182:lcd.c         **** void LS1_green(void)
 183:lcd.c         **** {
 1566               		.stabn	68,0,183,.LM136-.LFBB12
 1567               	.LM136:
 1568               	.LFBB12:
 1569 0720 0F93      		push r16
 1570 0722 1F93      		push r17
 1571 0724 CF93      		push r28
 1572 0726 DF93      		push r29
 1573 0728 CDB7      		in r28,__SP_L__
 1574 072a DEB7      		in r29,__SP_H__
 1575 072c 2897      		sbiw r28,8
 1576 072e 0FB6      		in __tmp_reg__,__SREG__
 1577 0730 F894      		cli
 1578 0732 DEBF      		out __SP_H__,r29
 1579 0734 0FBE      		out __SREG__,__tmp_reg__
 1580 0736 CDBF      		out __SP_L__,r28
 1581               	/* prologue: function */
 1582               	/* frame size = 8 */
 1583               	/* stack size = 12 */
 1584               	.L__stack_usage = 12
 184:lcd.c         **** 	rectangle LC1 = {206,210,18,22};
 1585               		.stabn	68,0,184,.LM137-.LFBB12
 1586               	.LM137:
 1587 0738 88E0      		ldi r24,lo8(8)
 1588 073a E0E0      		ldi r30,lo8(.LC3)
 1589 073c F0E0      		ldi r31,hi8(.LC3)
 1590 073e DE01      		movw r26,r28
 1591 0740 1196      		adiw r26,1
 1592               		0:
 1593 0742 0190      		ld r0,Z+
 1594 0744 0D92      		st X+,r0
 1595 0746 8A95      		dec r24
 1596 0748 01F4      		brne 0b
 185:lcd.c         **** 	fill_rectangle(LC1,GREEN);
 1597               		.stabn	68,0,185,.LM138-.LFBB12
 1598               	.LM138:
 1599 074a 00EE      		ldi r16,lo8(-32)
 1600 074c 17E0      		ldi r17,lo8(7)
 1601 074e 2981      		ldd r18,Y+1
 1602 0750 3A81      		ldd r19,Y+2
 1603 0752 4B81      		ldd r20,Y+3
GAS LISTING /tmp/ccj7iC5P.s 			page 33


 1604 0754 5C81      		ldd r21,Y+4
 1605 0756 6D81      		ldd r22,Y+5
 1606 0758 7E81      		ldd r23,Y+6
 1607 075a 8F81      		ldd r24,Y+7
 1608 075c 9885      		ldd r25,Y+8
 1609 075e 0E94 0000 		call fill_rectangle
 1610               	/* epilogue start */
 186:lcd.c         **** }
 1611               		.stabn	68,0,186,.LM139-.LFBB12
 1612               	.LM139:
 1613 0762 2896      		adiw r28,8
 1614 0764 0FB6      		in __tmp_reg__,__SREG__
 1615 0766 F894      		cli
 1616 0768 DEBF      		out __SP_H__,r29
 1617 076a 0FBE      		out __SREG__,__tmp_reg__
 1618 076c CDBF      		out __SP_L__,r28
 1619 076e DF91      		pop r29
 1620 0770 CF91      		pop r28
 1621 0772 1F91      		pop r17
 1622 0774 0F91      		pop r16
 1623 0776 0895      		ret
 1624               		.size	LS1_green, .-LS1_green
 1625               		.stabs	"LC1:(0,8)",128,0,184,1
 1626               		.stabn	192,0,0,.LFBB12-.LFBB12
 1627               		.stabn	224,0,0,.Lscope12-.LFBB12
 1628               	.Lscope12:
 1629               		.stabs	"",36,0,0,.Lscope12-.LFBB12
 1630               		.stabs	"LS1_red:F(0,1)",36,0,188,LS1_red
 1631               	.global	LS1_red
 1632               		.type	LS1_red, @function
 1633               	LS1_red:
 187:lcd.c         **** 
 188:lcd.c         **** void LS1_red(void)
 189:lcd.c         **** {
 1634               		.stabn	68,0,189,.LM140-.LFBB13
 1635               	.LM140:
 1636               	.LFBB13:
 1637 0778 0F93      		push r16
 1638 077a 1F93      		push r17
 1639 077c CF93      		push r28
 1640 077e DF93      		push r29
 1641 0780 CDB7      		in r28,__SP_L__
 1642 0782 DEB7      		in r29,__SP_H__
 1643 0784 2897      		sbiw r28,8
 1644 0786 0FB6      		in __tmp_reg__,__SREG__
 1645 0788 F894      		cli
 1646 078a DEBF      		out __SP_H__,r29
 1647 078c 0FBE      		out __SREG__,__tmp_reg__
 1648 078e CDBF      		out __SP_L__,r28
 1649               	/* prologue: function */
 1650               	/* frame size = 8 */
 1651               	/* stack size = 12 */
 1652               	.L__stack_usage = 12
 190:lcd.c         **** 	rectangle LC1 = {206,210,18,22};
 1653               		.stabn	68,0,190,.LM141-.LFBB13
 1654               	.LM141:
 1655 0790 88E0      		ldi r24,lo8(8)
GAS LISTING /tmp/ccj7iC5P.s 			page 34


 1656 0792 E0E0      		ldi r30,lo8(.LC3)
 1657 0794 F0E0      		ldi r31,hi8(.LC3)
 1658 0796 DE01      		movw r26,r28
 1659 0798 1196      		adiw r26,1
 1660               		0:
 1661 079a 0190      		ld r0,Z+
 1662 079c 0D92      		st X+,r0
 1663 079e 8A95      		dec r24
 1664 07a0 01F4      		brne 0b
 191:lcd.c         **** 	fill_rectangle(LC1,RED);
 1665               		.stabn	68,0,191,.LM142-.LFBB13
 1666               	.LM142:
 1667 07a2 00E0      		ldi r16,0
 1668 07a4 18EF      		ldi r17,lo8(-8)
 1669 07a6 2981      		ldd r18,Y+1
 1670 07a8 3A81      		ldd r19,Y+2
 1671 07aa 4B81      		ldd r20,Y+3
 1672 07ac 5C81      		ldd r21,Y+4
 1673 07ae 6D81      		ldd r22,Y+5
 1674 07b0 7E81      		ldd r23,Y+6
 1675 07b2 8F81      		ldd r24,Y+7
 1676 07b4 9885      		ldd r25,Y+8
 1677 07b6 0E94 0000 		call fill_rectangle
 1678               	/* epilogue start */
 192:lcd.c         **** }
 1679               		.stabn	68,0,192,.LM143-.LFBB13
 1680               	.LM143:
 1681 07ba 2896      		adiw r28,8
 1682 07bc 0FB6      		in __tmp_reg__,__SREG__
 1683 07be F894      		cli
 1684 07c0 DEBF      		out __SP_H__,r29
 1685 07c2 0FBE      		out __SREG__,__tmp_reg__
 1686 07c4 CDBF      		out __SP_L__,r28
 1687 07c6 DF91      		pop r29
 1688 07c8 CF91      		pop r28
 1689 07ca 1F91      		pop r17
 1690 07cc 0F91      		pop r16
 1691 07ce 0895      		ret
 1692               		.size	LS1_red, .-LS1_red
 1693               		.stabs	"LC1:(0,8)",128,0,190,1
 1694               		.stabn	192,0,0,.LFBB13-.LFBB13
 1695               		.stabn	224,0,0,.Lscope13-.LFBB13
 1696               	.Lscope13:
 1697               		.stabs	"",36,0,0,.Lscope13-.LFBB13
 1698               		.section	.rodata
 1699               	.LC4:
 1700 0020 CE00      		.word	206
 1701 0022 D200      		.word	210
 1702 0024 3200      		.word	50
 1703 0026 3600      		.word	54
 1704               		.text
 1705               		.stabs	"LS2_green:F(0,1)",36,0,194,LS2_green
 1706               	.global	LS2_green
 1707               		.type	LS2_green, @function
 1708               	LS2_green:
 193:lcd.c         **** 
 194:lcd.c         **** void LS2_green(void)
GAS LISTING /tmp/ccj7iC5P.s 			page 35


 195:lcd.c         **** {
 1709               		.stabn	68,0,195,.LM144-.LFBB14
 1710               	.LM144:
 1711               	.LFBB14:
 1712 07d0 0F93      		push r16
 1713 07d2 1F93      		push r17
 1714 07d4 CF93      		push r28
 1715 07d6 DF93      		push r29
 1716 07d8 CDB7      		in r28,__SP_L__
 1717 07da DEB7      		in r29,__SP_H__
 1718 07dc 2897      		sbiw r28,8
 1719 07de 0FB6      		in __tmp_reg__,__SREG__
 1720 07e0 F894      		cli
 1721 07e2 DEBF      		out __SP_H__,r29
 1722 07e4 0FBE      		out __SREG__,__tmp_reg__
 1723 07e6 CDBF      		out __SP_L__,r28
 1724               	/* prologue: function */
 1725               	/* frame size = 8 */
 1726               	/* stack size = 12 */
 1727               	.L__stack_usage = 12
 196:lcd.c         **** 	rectangle LC2 = {206,210,50,54};
 1728               		.stabn	68,0,196,.LM145-.LFBB14
 1729               	.LM145:
 1730 07e8 88E0      		ldi r24,lo8(8)
 1731 07ea E0E0      		ldi r30,lo8(.LC4)
 1732 07ec F0E0      		ldi r31,hi8(.LC4)
 1733 07ee DE01      		movw r26,r28
 1734 07f0 1196      		adiw r26,1
 1735               		0:
 1736 07f2 0190      		ld r0,Z+
 1737 07f4 0D92      		st X+,r0
 1738 07f6 8A95      		dec r24
 1739 07f8 01F4      		brne 0b
 197:lcd.c         **** 	fill_rectangle(LC2,GREEN);
 1740               		.stabn	68,0,197,.LM146-.LFBB14
 1741               	.LM146:
 1742 07fa 00EE      		ldi r16,lo8(-32)
 1743 07fc 17E0      		ldi r17,lo8(7)
 1744 07fe 2981      		ldd r18,Y+1
 1745 0800 3A81      		ldd r19,Y+2
 1746 0802 4B81      		ldd r20,Y+3
 1747 0804 5C81      		ldd r21,Y+4
 1748 0806 6D81      		ldd r22,Y+5
 1749 0808 7E81      		ldd r23,Y+6
 1750 080a 8F81      		ldd r24,Y+7
 1751 080c 9885      		ldd r25,Y+8
 1752 080e 0E94 0000 		call fill_rectangle
 1753               	/* epilogue start */
 198:lcd.c         **** }
 1754               		.stabn	68,0,198,.LM147-.LFBB14
 1755               	.LM147:
 1756 0812 2896      		adiw r28,8
 1757 0814 0FB6      		in __tmp_reg__,__SREG__
 1758 0816 F894      		cli
 1759 0818 DEBF      		out __SP_H__,r29
 1760 081a 0FBE      		out __SREG__,__tmp_reg__
 1761 081c CDBF      		out __SP_L__,r28
GAS LISTING /tmp/ccj7iC5P.s 			page 36


 1762 081e DF91      		pop r29
 1763 0820 CF91      		pop r28
 1764 0822 1F91      		pop r17
 1765 0824 0F91      		pop r16
 1766 0826 0895      		ret
 1767               		.size	LS2_green, .-LS2_green
 1768               		.stabs	"LC2:(0,8)",128,0,196,1
 1769               		.stabn	192,0,0,.LFBB14-.LFBB14
 1770               		.stabn	224,0,0,.Lscope14-.LFBB14
 1771               	.Lscope14:
 1772               		.stabs	"",36,0,0,.Lscope14-.LFBB14
 1773               		.stabs	"LS2_red:F(0,1)",36,0,200,LS2_red
 1774               	.global	LS2_red
 1775               		.type	LS2_red, @function
 1776               	LS2_red:
 199:lcd.c         **** 
 200:lcd.c         **** void LS2_red(void)
 201:lcd.c         **** {
 1777               		.stabn	68,0,201,.LM148-.LFBB15
 1778               	.LM148:
 1779               	.LFBB15:
 1780 0828 0F93      		push r16
 1781 082a 1F93      		push r17
 1782 082c CF93      		push r28
 1783 082e DF93      		push r29
 1784 0830 CDB7      		in r28,__SP_L__
 1785 0832 DEB7      		in r29,__SP_H__
 1786 0834 2897      		sbiw r28,8
 1787 0836 0FB6      		in __tmp_reg__,__SREG__
 1788 0838 F894      		cli
 1789 083a DEBF      		out __SP_H__,r29
 1790 083c 0FBE      		out __SREG__,__tmp_reg__
 1791 083e CDBF      		out __SP_L__,r28
 1792               	/* prologue: function */
 1793               	/* frame size = 8 */
 1794               	/* stack size = 12 */
 1795               	.L__stack_usage = 12
 202:lcd.c         **** 	rectangle LC2 = {206,210,50,54};
 1796               		.stabn	68,0,202,.LM149-.LFBB15
 1797               	.LM149:
 1798 0840 88E0      		ldi r24,lo8(8)
 1799 0842 E0E0      		ldi r30,lo8(.LC4)
 1800 0844 F0E0      		ldi r31,hi8(.LC4)
 1801 0846 DE01      		movw r26,r28
 1802 0848 1196      		adiw r26,1
 1803               		0:
 1804 084a 0190      		ld r0,Z+
 1805 084c 0D92      		st X+,r0
 1806 084e 8A95      		dec r24
 1807 0850 01F4      		brne 0b
 203:lcd.c         **** 	fill_rectangle(LC2,RED);
 1808               		.stabn	68,0,203,.LM150-.LFBB15
 1809               	.LM150:
 1810 0852 00E0      		ldi r16,0
 1811 0854 18EF      		ldi r17,lo8(-8)
 1812 0856 2981      		ldd r18,Y+1
 1813 0858 3A81      		ldd r19,Y+2
GAS LISTING /tmp/ccj7iC5P.s 			page 37


 1814 085a 4B81      		ldd r20,Y+3
 1815 085c 5C81      		ldd r21,Y+4
 1816 085e 6D81      		ldd r22,Y+5
 1817 0860 7E81      		ldd r23,Y+6
 1818 0862 8F81      		ldd r24,Y+7
 1819 0864 9885      		ldd r25,Y+8
 1820 0866 0E94 0000 		call fill_rectangle
 1821               	/* epilogue start */
 204:lcd.c         **** }
 1822               		.stabn	68,0,204,.LM151-.LFBB15
 1823               	.LM151:
 1824 086a 2896      		adiw r28,8
 1825 086c 0FB6      		in __tmp_reg__,__SREG__
 1826 086e F894      		cli
 1827 0870 DEBF      		out __SP_H__,r29
 1828 0872 0FBE      		out __SREG__,__tmp_reg__
 1829 0874 CDBF      		out __SP_L__,r28
 1830 0876 DF91      		pop r29
 1831 0878 CF91      		pop r28
 1832 087a 1F91      		pop r17
 1833 087c 0F91      		pop r16
 1834 087e 0895      		ret
 1835               		.size	LS2_red, .-LS2_red
 1836               		.stabs	"LC2:(0,8)",128,0,202,1
 1837               		.stabn	192,0,0,.LFBB15-.LFBB15
 1838               		.stabn	224,0,0,.Lscope15-.LFBB15
 1839               	.Lscope15:
 1840               		.stabs	"",36,0,0,.Lscope15-.LFBB15
 1841               		.section	.rodata
 1842               	.LC5:
 1843 0028 CE00      		.word	206
 1844 002a D200      		.word	210
 1845 002c 5000      		.word	80
 1846 002e 5400      		.word	84
 1847               		.text
 1848               		.stabs	"LS3_green:F(0,1)",36,0,206,LS3_green
 1849               	.global	LS3_green
 1850               		.type	LS3_green, @function
 1851               	LS3_green:
 205:lcd.c         **** 
 206:lcd.c         **** void LS3_green(void)
 207:lcd.c         **** {
 1852               		.stabn	68,0,207,.LM152-.LFBB16
 1853               	.LM152:
 1854               	.LFBB16:
 1855 0880 0F93      		push r16
 1856 0882 1F93      		push r17
 1857 0884 CF93      		push r28
 1858 0886 DF93      		push r29
 1859 0888 CDB7      		in r28,__SP_L__
 1860 088a DEB7      		in r29,__SP_H__
 1861 088c 2897      		sbiw r28,8
 1862 088e 0FB6      		in __tmp_reg__,__SREG__
 1863 0890 F894      		cli
 1864 0892 DEBF      		out __SP_H__,r29
 1865 0894 0FBE      		out __SREG__,__tmp_reg__
 1866 0896 CDBF      		out __SP_L__,r28
GAS LISTING /tmp/ccj7iC5P.s 			page 38


 1867               	/* prologue: function */
 1868               	/* frame size = 8 */
 1869               	/* stack size = 12 */
 1870               	.L__stack_usage = 12
 208:lcd.c         **** 	rectangle LC3 = {206,210,80,84};
 1871               		.stabn	68,0,208,.LM153-.LFBB16
 1872               	.LM153:
 1873 0898 88E0      		ldi r24,lo8(8)
 1874 089a E0E0      		ldi r30,lo8(.LC5)
 1875 089c F0E0      		ldi r31,hi8(.LC5)
 1876 089e DE01      		movw r26,r28
 1877 08a0 1196      		adiw r26,1
 1878               		0:
 1879 08a2 0190      		ld r0,Z+
 1880 08a4 0D92      		st X+,r0
 1881 08a6 8A95      		dec r24
 1882 08a8 01F4      		brne 0b
 209:lcd.c         **** 	fill_rectangle(LC3,GREEN);
 1883               		.stabn	68,0,209,.LM154-.LFBB16
 1884               	.LM154:
 1885 08aa 00EE      		ldi r16,lo8(-32)
 1886 08ac 17E0      		ldi r17,lo8(7)
 1887 08ae 2981      		ldd r18,Y+1
 1888 08b0 3A81      		ldd r19,Y+2
 1889 08b2 4B81      		ldd r20,Y+3
 1890 08b4 5C81      		ldd r21,Y+4
 1891 08b6 6D81      		ldd r22,Y+5
 1892 08b8 7E81      		ldd r23,Y+6
 1893 08ba 8F81      		ldd r24,Y+7
 1894 08bc 9885      		ldd r25,Y+8
 1895 08be 0E94 0000 		call fill_rectangle
 1896               	/* epilogue start */
 210:lcd.c         **** }
 1897               		.stabn	68,0,210,.LM155-.LFBB16
 1898               	.LM155:
 1899 08c2 2896      		adiw r28,8
 1900 08c4 0FB6      		in __tmp_reg__,__SREG__
 1901 08c6 F894      		cli
 1902 08c8 DEBF      		out __SP_H__,r29
 1903 08ca 0FBE      		out __SREG__,__tmp_reg__
 1904 08cc CDBF      		out __SP_L__,r28
 1905 08ce DF91      		pop r29
 1906 08d0 CF91      		pop r28
 1907 08d2 1F91      		pop r17
 1908 08d4 0F91      		pop r16
 1909 08d6 0895      		ret
 1910               		.size	LS3_green, .-LS3_green
 1911               		.stabs	"LC3:(0,8)",128,0,208,1
 1912               		.stabn	192,0,0,.LFBB16-.LFBB16
 1913               		.stabn	224,0,0,.Lscope16-.LFBB16
 1914               	.Lscope16:
 1915               		.stabs	"",36,0,0,.Lscope16-.LFBB16
 1916               		.stabs	"LS3_red:F(0,1)",36,0,212,LS3_red
 1917               	.global	LS3_red
 1918               		.type	LS3_red, @function
 1919               	LS3_red:
 211:lcd.c         **** 
GAS LISTING /tmp/ccj7iC5P.s 			page 39


 212:lcd.c         **** void LS3_red(void)
 213:lcd.c         **** {
 1920               		.stabn	68,0,213,.LM156-.LFBB17
 1921               	.LM156:
 1922               	.LFBB17:
 1923 08d8 0F93      		push r16
 1924 08da 1F93      		push r17
 1925 08dc CF93      		push r28
 1926 08de DF93      		push r29
 1927 08e0 CDB7      		in r28,__SP_L__
 1928 08e2 DEB7      		in r29,__SP_H__
 1929 08e4 2897      		sbiw r28,8
 1930 08e6 0FB6      		in __tmp_reg__,__SREG__
 1931 08e8 F894      		cli
 1932 08ea DEBF      		out __SP_H__,r29
 1933 08ec 0FBE      		out __SREG__,__tmp_reg__
 1934 08ee CDBF      		out __SP_L__,r28
 1935               	/* prologue: function */
 1936               	/* frame size = 8 */
 1937               	/* stack size = 12 */
 1938               	.L__stack_usage = 12
 214:lcd.c         **** 	rectangle LC3 = {206,210,80,84};
 1939               		.stabn	68,0,214,.LM157-.LFBB17
 1940               	.LM157:
 1941 08f0 88E0      		ldi r24,lo8(8)
 1942 08f2 E0E0      		ldi r30,lo8(.LC5)
 1943 08f4 F0E0      		ldi r31,hi8(.LC5)
 1944 08f6 DE01      		movw r26,r28
 1945 08f8 1196      		adiw r26,1
 1946               		0:
 1947 08fa 0190      		ld r0,Z+
 1948 08fc 0D92      		st X+,r0
 1949 08fe 8A95      		dec r24
 1950 0900 01F4      		brne 0b
 215:lcd.c         **** 	fill_rectangle(LC3,RED);
 1951               		.stabn	68,0,215,.LM158-.LFBB17
 1952               	.LM158:
 1953 0902 00E0      		ldi r16,0
 1954 0904 18EF      		ldi r17,lo8(-8)
 1955 0906 2981      		ldd r18,Y+1
 1956 0908 3A81      		ldd r19,Y+2
 1957 090a 4B81      		ldd r20,Y+3
 1958 090c 5C81      		ldd r21,Y+4
 1959 090e 6D81      		ldd r22,Y+5
 1960 0910 7E81      		ldd r23,Y+6
 1961 0912 8F81      		ldd r24,Y+7
 1962 0914 9885      		ldd r25,Y+8
 1963 0916 0E94 0000 		call fill_rectangle
 1964               	/* epilogue start */
 216:lcd.c         **** }
 1965               		.stabn	68,0,216,.LM159-.LFBB17
 1966               	.LM159:
 1967 091a 2896      		adiw r28,8
 1968 091c 0FB6      		in __tmp_reg__,__SREG__
 1969 091e F894      		cli
 1970 0920 DEBF      		out __SP_H__,r29
 1971 0922 0FBE      		out __SREG__,__tmp_reg__
GAS LISTING /tmp/ccj7iC5P.s 			page 40


 1972 0924 CDBF      		out __SP_L__,r28
 1973 0926 DF91      		pop r29
 1974 0928 CF91      		pop r28
 1975 092a 1F91      		pop r17
 1976 092c 0F91      		pop r16
 1977 092e 0895      		ret
 1978               		.size	LS3_red, .-LS3_red
 1979               		.stabs	"LC3:(0,8)",128,0,214,1
 1980               		.stabn	192,0,0,.LFBB17-.LFBB17
 1981               		.stabn	224,0,0,.Lscope17-.LFBB17
 1982               	.Lscope17:
 1983               		.stabs	"",36,0,0,.Lscope17-.LFBB17
 1984               		.section	.rodata
 1985               	.LC6:
 1986 0030 5A00      		.word	90
 1987 0032 5B00      		.word	91
 1988 0034 AC00      		.word	172
 1989 0036 B400      		.word	180
 1990               	.LC7:
 1991 0038 5B00      		.word	91
 1992 003a 5C00      		.word	92
 1993 003c AC00      		.word	172
 1994 003e B400      		.word	180
 1995               		.text
 1996               		.stabs	"pwr_bar_wind:F(0,1)",36,0,220,pwr_bar_wind
 1997               		.stabs	"pwr:P(0,2)",64,0,220,24
 1998               	.global	pwr_bar_wind
 1999               		.type	pwr_bar_wind, @function
 2000               	pwr_bar_wind:
 217:lcd.c         **** 
 218:lcd.c         **** 
 219:lcd.c         **** 
 220:lcd.c         **** void pwr_bar_wind(uint8_t pwr)
 221:lcd.c         **** {
 2001               		.stabn	68,0,221,.LM160-.LFBB18
 2002               	.LM160:
 2003               	.LFBB18:
 2004 0930 0F93      		push r16
 2005 0932 1F93      		push r17
 2006 0934 CF93      		push r28
 2007 0936 DF93      		push r29
 2008 0938 CDB7      		in r28,__SP_L__
 2009 093a DEB7      		in r29,__SP_H__
 2010 093c 6097      		sbiw r28,16
 2011 093e 0FB6      		in __tmp_reg__,__SREG__
 2012 0940 F894      		cli
 2013 0942 DEBF      		out __SP_H__,r29
 2014 0944 0FBE      		out __SREG__,__tmp_reg__
 2015 0946 CDBF      		out __SP_L__,r28
 2016               	/* prologue: function */
 2017               	/* frame size = 16 */
 2018               	/* stack size = 20 */
 2019               	.L__stack_usage = 20
 222:lcd.c         **** 
 223:lcd.c         **** 	rectangle blue = {90,91,172,180};
 2020               		.stabn	68,0,223,.LM161-.LFBB18
 2021               	.LM161:
GAS LISTING /tmp/ccj7iC5P.s 			page 41


 2022 0948 98E0      		ldi r25,lo8(8)
 2023 094a E0E0      		ldi r30,lo8(.LC6)
 2024 094c F0E0      		ldi r31,hi8(.LC6)
 2025 094e DE01      		movw r26,r28
 2026 0950 1996      		adiw r26,9
 2027               		0:
 2028 0952 0190      		ld r0,Z+
 2029 0954 0D92      		st X+,r0
 2030 0956 9A95      		dec r25
 2031 0958 01F4      		brne 0b
 224:lcd.c         **** 	rectangle white = {91,92,172,180};
 2032               		.stabn	68,0,224,.LM162-.LFBB18
 2033               	.LM162:
 2034 095a 98E0      		ldi r25,lo8(8)
 2035 095c E0E0      		ldi r30,lo8(.LC7)
 2036 095e F0E0      		ldi r31,hi8(.LC7)
 2037 0960 DE01      		movw r26,r28
 2038 0962 1196      		adiw r26,1
 2039               		0:
 2040 0964 0190      		ld r0,Z+
 2041 0966 0D92      		st X+,r0
 2042 0968 9A95      		dec r25
 2043 096a 01F4      		brne 0b
 225:lcd.c         **** 
 226:lcd.c         **** 	if(pwr > 94)
 227:lcd.c         **** 		pwr = 94;
 228:lcd.c         **** 
 229:lcd.c         **** 	blue.right = 90 + pwr;
 2044               		.stabn	68,0,229,.LM163-.LFBB18
 2045               	.LM163:
 2046 096c 8F35      		cpi r24,lo8(95)
 2047 096e 00F0      		brlo .L47
 2048 0970 8EE5      		ldi r24,lo8(94)
 2049               	.L47:
 2050 0972 865A      		subi r24,lo8(-(90))
 2051 0974 90E0      		ldi r25,0
 230:lcd.c         **** 
 231:lcd.c         **** 	white.left = blue.right;
 2052               		.stabn	68,0,231,.LM164-.LFBB18
 2053               	.LM164:
 2054 0976 9A83      		std Y+2,r25
 2055 0978 8983      		std Y+1,r24
 232:lcd.c         **** 	white.right = 184;
 2056               		.stabn	68,0,232,.LM165-.LFBB18
 2057               	.LM165:
 2058 097a 28EB      		ldi r18,lo8(-72)
 2059 097c 30E0      		ldi r19,0
 2060 097e 3C83      		std Y+4,r19
 2061 0980 2B83      		std Y+3,r18
 233:lcd.c         **** 
 234:lcd.c         **** 	fill_rectangle(blue, 0x3E9F);
 2062               		.stabn	68,0,234,.LM166-.LFBB18
 2063               	.LM166:
 2064 0982 AC01      		movw r20,r24
 2065 0984 0FE9      		ldi r16,lo8(-97)
 2066 0986 1EE3      		ldi r17,lo8(62)
 2067 0988 2985      		ldd r18,Y+9
GAS LISTING /tmp/ccj7iC5P.s 			page 42


 2068 098a 3A85      		ldd r19,Y+10
 2069 098c 6D85      		ldd r22,Y+13
 2070 098e 7E85      		ldd r23,Y+14
 2071 0990 8F85      		ldd r24,Y+15
 2072 0992 9889      		ldd r25,Y+16
 2073 0994 0E94 0000 		call fill_rectangle
 235:lcd.c         **** 	fill_rectangle(white, WHITE);
 2074               		.stabn	68,0,235,.LM167-.LFBB18
 2075               	.LM167:
 2076 0998 0FEF      		ldi r16,lo8(-1)
 2077 099a 1FEF      		ldi r17,lo8(-1)
 2078 099c 2981      		ldd r18,Y+1
 2079 099e 3A81      		ldd r19,Y+2
 2080 09a0 4B81      		ldd r20,Y+3
 2081 09a2 5C81      		ldd r21,Y+4
 2082 09a4 6D81      		ldd r22,Y+5
 2083 09a6 7E81      		ldd r23,Y+6
 2084 09a8 8F81      		ldd r24,Y+7
 2085 09aa 9885      		ldd r25,Y+8
 2086 09ac 0E94 0000 		call fill_rectangle
 2087               	/* epilogue start */
 236:lcd.c         **** }
 2088               		.stabn	68,0,236,.LM168-.LFBB18
 2089               	.LM168:
 2090 09b0 6096      		adiw r28,16
 2091 09b2 0FB6      		in __tmp_reg__,__SREG__
 2092 09b4 F894      		cli
 2093 09b6 DEBF      		out __SP_H__,r29
 2094 09b8 0FBE      		out __SREG__,__tmp_reg__
 2095 09ba CDBF      		out __SP_L__,r28
 2096 09bc DF91      		pop r29
 2097 09be CF91      		pop r28
 2098 09c0 1F91      		pop r17
 2099 09c2 0F91      		pop r16
 2100 09c4 0895      		ret
 2101               		.size	pwr_bar_wind, .-pwr_bar_wind
 2102               		.stabs	"blue:(0,8)",128,0,223,9
 2103               		.stabs	"white:(0,8)",128,0,224,1
 2104               		.stabn	192,0,0,.LFBB18-.LFBB18
 2105               		.stabn	224,0,0,.Lscope18-.LFBB18
 2106               	.Lscope18:
 2107               		.stabs	"",36,0,0,.Lscope18-.LFBB18
 2108               		.section	.rodata
 2109               	.LC8:
 2110 0040 5A00      		.word	90
 2111 0042 5B00      		.word	91
 2112 0044 7800      		.word	120
 2113 0046 8000      		.word	128
 2114               	.LC9:
 2115 0048 5B00      		.word	91
 2116 004a 5C00      		.word	92
 2117 004c 7800      		.word	120
 2118 004e 8000      		.word	128
 2119               		.text
 2120               		.stabs	"pwr_bar_sun:F(0,1)",36,0,238,pwr_bar_sun
 2121               		.stabs	"pwr:P(0,2)",64,0,238,24
 2122               	.global	pwr_bar_sun
GAS LISTING /tmp/ccj7iC5P.s 			page 43


 2123               		.type	pwr_bar_sun, @function
 2124               	pwr_bar_sun:
 237:lcd.c         **** 
 238:lcd.c         **** void pwr_bar_sun(uint8_t pwr)
 239:lcd.c         **** {
 2125               		.stabn	68,0,239,.LM169-.LFBB19
 2126               	.LM169:
 2127               	.LFBB19:
 2128 09c6 0F93      		push r16
 2129 09c8 1F93      		push r17
 2130 09ca CF93      		push r28
 2131 09cc DF93      		push r29
 2132 09ce CDB7      		in r28,__SP_L__
 2133 09d0 DEB7      		in r29,__SP_H__
 2134 09d2 6097      		sbiw r28,16
 2135 09d4 0FB6      		in __tmp_reg__,__SREG__
 2136 09d6 F894      		cli
 2137 09d8 DEBF      		out __SP_H__,r29
 2138 09da 0FBE      		out __SREG__,__tmp_reg__
 2139 09dc CDBF      		out __SP_L__,r28
 2140               	/* prologue: function */
 2141               	/* frame size = 16 */
 2142               	/* stack size = 20 */
 2143               	.L__stack_usage = 20
 240:lcd.c         **** 
 241:lcd.c         **** 	rectangle blue = {90,91,120,128};
 2144               		.stabn	68,0,241,.LM170-.LFBB19
 2145               	.LM170:
 2146 09de 98E0      		ldi r25,lo8(8)
 2147 09e0 E0E0      		ldi r30,lo8(.LC8)
 2148 09e2 F0E0      		ldi r31,hi8(.LC8)
 2149 09e4 DE01      		movw r26,r28
 2150 09e6 1996      		adiw r26,9
 2151               		0:
 2152 09e8 0190      		ld r0,Z+
 2153 09ea 0D92      		st X+,r0
 2154 09ec 9A95      		dec r25
 2155 09ee 01F4      		brne 0b
 242:lcd.c         **** 	rectangle white = {91,92,120,128};
 2156               		.stabn	68,0,242,.LM171-.LFBB19
 2157               	.LM171:
 2158 09f0 98E0      		ldi r25,lo8(8)
 2159 09f2 E0E0      		ldi r30,lo8(.LC9)
 2160 09f4 F0E0      		ldi r31,hi8(.LC9)
 2161 09f6 DE01      		movw r26,r28
 2162 09f8 1196      		adiw r26,1
 2163               		0:
 2164 09fa 0190      		ld r0,Z+
 2165 09fc 0D92      		st X+,r0
 2166 09fe 9A95      		dec r25
 2167 0a00 01F4      		brne 0b
 243:lcd.c         **** 
 244:lcd.c         **** 	if(pwr > 94)
 245:lcd.c         **** 		pwr = 94;
 246:lcd.c         **** 
 247:lcd.c         **** 	blue.right = 90 + pwr ;
 2168               		.stabn	68,0,247,.LM172-.LFBB19
GAS LISTING /tmp/ccj7iC5P.s 			page 44


 2169               	.LM172:
 2170 0a02 8F35      		cpi r24,lo8(95)
 2171 0a04 00F0      		brlo .L49
 2172 0a06 8EE5      		ldi r24,lo8(94)
 2173               	.L49:
 2174 0a08 865A      		subi r24,lo8(-(90))
 2175 0a0a 90E0      		ldi r25,0
 248:lcd.c         **** 
 249:lcd.c         **** 	white.left = blue.right;
 2176               		.stabn	68,0,249,.LM173-.LFBB19
 2177               	.LM173:
 2178 0a0c 9A83      		std Y+2,r25
 2179 0a0e 8983      		std Y+1,r24
 250:lcd.c         **** 	white.right = 184;
 2180               		.stabn	68,0,250,.LM174-.LFBB19
 2181               	.LM174:
 2182 0a10 28EB      		ldi r18,lo8(-72)
 2183 0a12 30E0      		ldi r19,0
 2184 0a14 3C83      		std Y+4,r19
 2185 0a16 2B83      		std Y+3,r18
 251:lcd.c         **** 
 252:lcd.c         **** 	fill_rectangle(blue, 0x3E9F);
 2186               		.stabn	68,0,252,.LM175-.LFBB19
 2187               	.LM175:
 2188 0a18 AC01      		movw r20,r24
 2189 0a1a 0FE9      		ldi r16,lo8(-97)
 2190 0a1c 1EE3      		ldi r17,lo8(62)
 2191 0a1e 2985      		ldd r18,Y+9
 2192 0a20 3A85      		ldd r19,Y+10
 2193 0a22 6D85      		ldd r22,Y+13
 2194 0a24 7E85      		ldd r23,Y+14
 2195 0a26 8F85      		ldd r24,Y+15
 2196 0a28 9889      		ldd r25,Y+16
 2197 0a2a 0E94 0000 		call fill_rectangle
 253:lcd.c         **** 	fill_rectangle(white, WHITE);
 2198               		.stabn	68,0,253,.LM176-.LFBB19
 2199               	.LM176:
 2200 0a2e 0FEF      		ldi r16,lo8(-1)
 2201 0a30 1FEF      		ldi r17,lo8(-1)
 2202 0a32 2981      		ldd r18,Y+1
 2203 0a34 3A81      		ldd r19,Y+2
 2204 0a36 4B81      		ldd r20,Y+3
 2205 0a38 5C81      		ldd r21,Y+4
 2206 0a3a 6D81      		ldd r22,Y+5
 2207 0a3c 7E81      		ldd r23,Y+6
 2208 0a3e 8F81      		ldd r24,Y+7
 2209 0a40 9885      		ldd r25,Y+8
 2210 0a42 0E94 0000 		call fill_rectangle
 2211               	/* epilogue start */
 254:lcd.c         **** }
 2212               		.stabn	68,0,254,.LM177-.LFBB19
 2213               	.LM177:
 2214 0a46 6096      		adiw r28,16
 2215 0a48 0FB6      		in __tmp_reg__,__SREG__
 2216 0a4a F894      		cli
 2217 0a4c DEBF      		out __SP_H__,r29
 2218 0a4e 0FBE      		out __SREG__,__tmp_reg__
GAS LISTING /tmp/ccj7iC5P.s 			page 45


 2219 0a50 CDBF      		out __SP_L__,r28
 2220 0a52 DF91      		pop r29
 2221 0a54 CF91      		pop r28
 2222 0a56 1F91      		pop r17
 2223 0a58 0F91      		pop r16
 2224 0a5a 0895      		ret
 2225               		.size	pwr_bar_sun, .-pwr_bar_sun
 2226               		.stabs	"blue:(0,8)",128,0,241,9
 2227               		.stabs	"white:(0,8)",128,0,242,1
 2228               		.stabn	192,0,0,.LFBB19-.LFBB19
 2229               		.stabn	224,0,0,.Lscope19-.LFBB19
 2230               	.Lscope19:
 2231               		.stabs	"",36,0,0,.Lscope19-.LFBB19
 2232               		.stabs	"pwr_100:F(0,1)",36,0,256,pwr_100
 2233               		.stabs	"digit:P(0,2)",64,0,256,24
 2234               	.global	pwr_100
 2235               		.type	pwr_100, @function
 2236               	pwr_100:
 255:lcd.c         **** 
 256:lcd.c         **** void pwr_100(uint8_t digit){
 2237               		.stabn	68,0,256,.LM178-.LFBB20
 2238               	.LM178:
 2239               	.LFBB20:
 2240 0a5c CF93      		push r28
 2241 0a5e DF93      		push r29
 2242               	/* prologue: function */
 2243               	/* frame size = 0 */
 2244               	/* stack size = 2 */
 2245               	.L__stack_usage = 2
 257:lcd.c         **** 	if(digit >= 10)
 2246               		.stabn	68,0,257,.LM179-.LFBB20
 2247               	.LM179:
 2248 0a60 8A30      		cpi r24,lo8(10)
 2249 0a62 00F0      		brlo .L51
 258:lcd.c         **** 		digit = 0;
 2250               		.stabn	68,0,258,.LM180-.LFBB20
 2251               	.LM180:
 2252 0a64 80E0      		ldi r24,0
 2253               	.L51:
 259:lcd.c         **** 	uint16_t x, y;
 260:lcd.c         **** 	write_cmd(COLUMN_ADDRESS_SET);
 2254               		.stabn	68,0,260,.LM181-.LFBB20
 2255               	.LM181:
 2256 0a66 4498      		cbi 0x8,4
 2257 0a68 9AE2      		ldi r25,lo8(42)
 2258 0a6a 95B9      		out 0x5,r25
 2259 0a6c 4398      		cbi 0x8,3
 2260 0a6e 439A      		sbi 0x8,3
 2261 0a70 449A      		sbi 0x8,4
 261:lcd.c         **** 	write_data16(110);
 2262               		.stabn	68,0,261,.LM182-.LFBB20
 2263               	.LM182:
 2264 0a72 15B8      		out 0x5,__zero_reg__
 2265 0a74 4398      		cbi 0x8,3
 2266 0a76 439A      		sbi 0x8,3
 2267 0a78 9EE6      		ldi r25,lo8(110)
 2268 0a7a 95B9      		out 0x5,r25
GAS LISTING /tmp/ccj7iC5P.s 			page 46


 2269 0a7c 4398      		cbi 0x8,3
 2270 0a7e 439A      		sbi 0x8,3
 262:lcd.c         **** 	write_data16(151);
 2271               		.stabn	68,0,262,.LM183-.LFBB20
 2272               	.LM183:
 2273 0a80 15B8      		out 0x5,__zero_reg__
 2274 0a82 4398      		cbi 0x8,3
 2275 0a84 439A      		sbi 0x8,3
 2276 0a86 97E9      		ldi r25,lo8(-105)
 2277 0a88 95B9      		out 0x5,r25
 2278 0a8a 4398      		cbi 0x8,3
 2279 0a8c 439A      		sbi 0x8,3
 263:lcd.c         **** 	write_cmd(PAGE_ADDRESS_SET);
 2280               		.stabn	68,0,263,.LM184-.LFBB20
 2281               	.LM184:
 2282 0a8e 4498      		cbi 0x8,4
 2283 0a90 9BE2      		ldi r25,lo8(43)
 2284 0a92 95B9      		out 0x5,r25
 2285 0a94 4398      		cbi 0x8,3
 2286 0a96 439A      		sbi 0x8,3
 2287 0a98 449A      		sbi 0x8,4
 264:lcd.c         **** 	write_data16(204);
 2288               		.stabn	68,0,264,.LM185-.LFBB20
 2289               	.LM185:
 2290 0a9a 15B8      		out 0x5,__zero_reg__
 2291 0a9c 4398      		cbi 0x8,3
 2292 0a9e 439A      		sbi 0x8,3
 2293 0aa0 9CEC      		ldi r25,lo8(-52)
 2294 0aa2 95B9      		out 0x5,r25
 2295 0aa4 4398      		cbi 0x8,3
 2296 0aa6 439A      		sbi 0x8,3
 265:lcd.c         **** 	write_data16(277);
 2297               		.stabn	68,0,265,.LM186-.LFBB20
 2298               	.LM186:
 2299 0aa8 91E0      		ldi r25,lo8(1)
 2300 0aaa 95B9      		out 0x5,r25
 2301 0aac 4398      		cbi 0x8,3
 2302 0aae 439A      		sbi 0x8,3
 2303 0ab0 95E1      		ldi r25,lo8(21)
 2304 0ab2 95B9      		out 0x5,r25
 2305 0ab4 4398      		cbi 0x8,3
 2306 0ab6 439A      		sbi 0x8,3
 266:lcd.c         **** 	write_cmd(MEMORY_WRITE);
 2307               		.stabn	68,0,266,.LM187-.LFBB20
 2308               	.LM187:
 2309 0ab8 4498      		cbi 0x8,4
 2310 0aba 9CE2      		ldi r25,lo8(44)
 2311 0abc 95B9      		out 0x5,r25
 2312 0abe 4398      		cbi 0x8,3
 2313 0ac0 439A      		sbi 0x8,3
 2314 0ac2 449A      		sbi 0x8,4
 2315               	.LBB27:
 267:lcd.c         **** 	for(y = 0; y <= 36; y++){
 268:lcd.c         **** 		for(x = 0; x <= 20; x++){
 269:lcd.c         **** 			write_data16(pgm_read_word(&digit2[(9-digit)*777+x+y*21]));
 2316               		.stabn	68,0,269,.LM188-.LFBB20
 2317               	.LM188:
GAS LISTING /tmp/ccj7iC5P.s 			page 47


 2318 0ac4 29E0      		ldi r18,lo8(9)
 2319 0ac6 30E0      		ldi r19,0
 2320 0ac8 A901      		movw r20,r18
 2321 0aca 481B      		sub r20,r24
 2322 0acc 5109      		sbc r21,__zero_reg__
 2323 0ace CA01      		movw r24,r20
 2324 0ad0 29E0      		ldi r18,lo8(9)
 2325 0ad2 33E0      		ldi r19,lo8(3)
 2326 0ad4 829F      		mul r24,r18
 2327 0ad6 A001      		movw r20,r0
 2328 0ad8 839F      		mul r24,r19
 2329 0ada 500D      		add r21,r0
 2330 0adc 929F      		mul r25,r18
 2331 0ade 500D      		add r21,r0
 2332 0ae0 1124      		clr r1
 2333 0ae2 9A01      		movw r18,r20
 2334 0ae4 220F      		lsl r18
 2335 0ae6 331F      		rol r19
 2336 0ae8 2050      		subi r18,lo8(-(digit2))
 2337 0aea 3040      		sbci r19,hi8(-(digit2))
 2338 0aec DA01      		movw r26,r20
 2339 0aee A75F      		subi r26,-9
 2340 0af0 BC4F      		sbci r27,-4
 2341               	.L52:
 2342               	.LBE27:
 258:lcd.c         **** 	uint16_t x, y;
 2343               		.stabn	68,0,258,.LM189-.LFBB20
 2344               	.LM189:
 2345 0af2 C901      		movw r24,r18
 268:lcd.c         **** 			write_data16(pgm_read_word(&digit2[(9-digit)*777+x+y*21]));
 2346               		.stabn	68,0,268,.LM190-.LFBB20
 2347               	.LM190:
 2348 0af4 70E0      		ldi r23,0
 2349 0af6 60E0      		ldi r22,0
 2350               	.L53:
 2351               	.LBB28:
 2352               		.stabn	68,0,269,.LM191-.LFBB20
 2353               	.LM191:
 2354 0af8 FC01      		movw r30,r24
 2355               	/* #APP */
 2356               	 ;  269 "lcd.c" 1
 2357 0afa C591      		lpm r28, Z+
 2358 0afc D491      		lpm r29, Z
 2359               		
 2360               	 ;  0 "" 2
 2361               	/* #NOAPP */
 2362               	.LBE28:
 2363 0afe D5B9      		out 0x5,r29
 2364 0b00 4398      		cbi 0x8,3
 2365 0b02 439A      		sbi 0x8,3
 2366               	.LBB29:
 2367 0b04 FC01      		movw r30,r24
 2368               	/* #APP */
 2369               	 ;  269 "lcd.c" 1
 2370 0b06 C591      		lpm r28, Z+
 2371 0b08 D491      		lpm r29, Z
 2372               		
GAS LISTING /tmp/ccj7iC5P.s 			page 48


 2373               	 ;  0 "" 2
 2374               	/* #NOAPP */
 2375               	.LBE29:
 2376 0b0a C5B9      		out 0x5,r28
 2377 0b0c 4398      		cbi 0x8,3
 2378 0b0e 439A      		sbi 0x8,3
 2379               	.LBB30:
 270:lcd.c         **** 			write_data16(pgm_read_word(&digit2[(9-digit)*777+x+y*21]));
 2380               		.stabn	68,0,270,.LM192-.LFBB20
 2381               	.LM192:
 2382 0b10 FC01      		movw r30,r24
 2383               	/* #APP */
 2384               	 ;  270 "lcd.c" 1
 2385 0b12 C591      		lpm r28, Z+
 2386 0b14 D491      		lpm r29, Z
 2387               		
 2388               	 ;  0 "" 2
 2389               	/* #NOAPP */
 2390               	.LBE30:
 2391 0b16 D5B9      		out 0x5,r29
 2392 0b18 4398      		cbi 0x8,3
 2393 0b1a 439A      		sbi 0x8,3
 2394               	.LBB31:
 2395 0b1c FC01      		movw r30,r24
 2396               	/* #APP */
 2397               	 ;  270 "lcd.c" 1
 2398 0b1e C591      		lpm r28, Z+
 2399 0b20 D491      		lpm r29, Z
 2400               		
 2401               	 ;  0 "" 2
 2402               	/* #NOAPP */
 2403               	.LBE31:
 2404 0b22 C5B9      		out 0x5,r28
 2405 0b24 4398      		cbi 0x8,3
 2406 0b26 439A      		sbi 0x8,3
 268:lcd.c         **** 			write_data16(pgm_read_word(&digit2[(9-digit)*777+x+y*21]));
 2407               		.stabn	68,0,268,.LM193-.LFBB20
 2408               	.LM193:
 2409 0b28 6F5F      		subi r22,-1
 2410 0b2a 7F4F      		sbci r23,-1
 268:lcd.c         **** 			write_data16(pgm_read_word(&digit2[(9-digit)*777+x+y*21]));
 2411               		.stabn	68,0,268,.LM194-.LFBB20
 2412               	.LM194:
 2413 0b2c 0296      		adiw r24,2
 2414 0b2e 6531      		cpi r22,21
 2415 0b30 7105      		cpc r23,__zero_reg__
 2416 0b32 01F4      		brne .L53
 2417 0b34 C901      		movw r24,r18
 271:lcd.c         **** 		}
 272:lcd.c         **** 		for(x = 0; x <= 20; x++){
 2418               		.stabn	68,0,272,.LM195-.LFBB20
 2419               	.LM195:
 2420 0b36 70E0      		ldi r23,0
 2421 0b38 60E0      		ldi r22,0
 2422               	.L54:
 2423               	.LBB32:
 273:lcd.c         **** 			write_data16(pgm_read_word(&digit2[(9-digit)*777+x+y*21]));
GAS LISTING /tmp/ccj7iC5P.s 			page 49


 2424               		.stabn	68,0,273,.LM196-.LFBB20
 2425               	.LM196:
 2426 0b3a FC01      		movw r30,r24
 2427               	/* #APP */
 2428               	 ;  273 "lcd.c" 1
 2429 0b3c C591      		lpm r28, Z+
 2430 0b3e D491      		lpm r29, Z
 2431               		
 2432               	 ;  0 "" 2
 2433               	/* #NOAPP */
 2434               	.LBE32:
 2435 0b40 D5B9      		out 0x5,r29
 2436 0b42 4398      		cbi 0x8,3
 2437 0b44 439A      		sbi 0x8,3
 2438               	.LBB33:
 2439 0b46 FC01      		movw r30,r24
 2440               	/* #APP */
 2441               	 ;  273 "lcd.c" 1
 2442 0b48 C591      		lpm r28, Z+
 2443 0b4a D491      		lpm r29, Z
 2444               		
 2445               	 ;  0 "" 2
 2446               	/* #NOAPP */
 2447               	.LBE33:
 2448 0b4c C5B9      		out 0x5,r28
 2449 0b4e 4398      		cbi 0x8,3
 2450 0b50 439A      		sbi 0x8,3
 2451               	.LBB34:
 274:lcd.c         **** 			write_data16(pgm_read_word(&digit2[(9-digit)*777+x+y*21]));
 2452               		.stabn	68,0,274,.LM197-.LFBB20
 2453               	.LM197:
 2454 0b52 FC01      		movw r30,r24
 2455               	/* #APP */
 2456               	 ;  274 "lcd.c" 1
 2457 0b54 C591      		lpm r28, Z+
 2458 0b56 D491      		lpm r29, Z
 2459               		
 2460               	 ;  0 "" 2
 2461               	/* #NOAPP */
 2462               	.LBE34:
 2463 0b58 D5B9      		out 0x5,r29
 2464 0b5a 4398      		cbi 0x8,3
 2465 0b5c 439A      		sbi 0x8,3
 2466               	.LBB35:
 2467 0b5e FC01      		movw r30,r24
 2468               	/* #APP */
 2469               	 ;  274 "lcd.c" 1
 2470 0b60 C591      		lpm r28, Z+
 2471 0b62 D491      		lpm r29, Z
 2472               		
 2473               	 ;  0 "" 2
 2474               	/* #NOAPP */
 2475               	.LBE35:
 2476 0b64 C5B9      		out 0x5,r28
 2477 0b66 4398      		cbi 0x8,3
 2478 0b68 439A      		sbi 0x8,3
 272:lcd.c         **** 			write_data16(pgm_read_word(&digit2[(9-digit)*777+x+y*21]));
GAS LISTING /tmp/ccj7iC5P.s 			page 50


 2479               		.stabn	68,0,272,.LM198-.LFBB20
 2480               	.LM198:
 2481 0b6a 6F5F      		subi r22,-1
 2482 0b6c 7F4F      		sbci r23,-1
 272:lcd.c         **** 			write_data16(pgm_read_word(&digit2[(9-digit)*777+x+y*21]));
 2483               		.stabn	68,0,272,.LM199-.LFBB20
 2484               	.LM199:
 2485 0b6e 0296      		adiw r24,2
 2486 0b70 6531      		cpi r22,21
 2487 0b72 7105      		cpc r23,__zero_reg__
 2488 0b74 01F4      		brne .L54
 267:lcd.c         **** 		for(x = 0; x <= 20; x++){
 2489               		.stabn	68,0,267,.LM200-.LFBB20
 2490               	.LM200:
 2491 0b76 265D      		subi r18,-42
 2492 0b78 3F4F      		sbci r19,-1
 2493 0b7a 4B5E      		subi r20,-21
 2494 0b7c 5F4F      		sbci r21,-1
 2495 0b7e 4A17      		cp r20,r26
 2496 0b80 5B07      		cpc r21,r27
 2497 0b82 01F0      		breq .+2
 2498 0b84 00C0      		rjmp .L52
 2499               	/* epilogue start */
 275:lcd.c         **** 		}
 276:lcd.c         **** 	}
 277:lcd.c         **** }
 2500               		.stabn	68,0,277,.LM201-.LFBB20
 2501               	.LM201:
 2502 0b86 DF91      		pop r29
 2503 0b88 CF91      		pop r28
 2504 0b8a 0895      		ret
 2505               		.size	pwr_100, .-pwr_100
 2506               	.Lscope20:
 2507               		.stabs	"",36,0,0,.Lscope20-.LFBB20
 2508               		.stabs	"pwr_10:F(0,1)",36,0,279,pwr_10
 2509               		.stabs	"digit:P(0,2)",64,0,279,24
 2510               	.global	pwr_10
 2511               		.type	pwr_10, @function
 2512               	pwr_10:
 278:lcd.c         **** 
 279:lcd.c         **** void pwr_10(uint8_t digit){
 2513               		.stabn	68,0,279,.LM202-.LFBB21
 2514               	.LM202:
 2515               	.LFBB21:
 2516 0b8c CF93      		push r28
 2517 0b8e DF93      		push r29
 2518               	/* prologue: function */
 2519               	/* frame size = 0 */
 2520               	/* stack size = 2 */
 2521               	.L__stack_usage = 2
 280:lcd.c         **** 	if(digit >= 10)
 2522               		.stabn	68,0,280,.LM203-.LFBB21
 2523               	.LM203:
 2524 0b90 8A30      		cpi r24,lo8(10)
 2525 0b92 00F0      		brlo .L59
 281:lcd.c         **** 		digit = 0;
 2526               		.stabn	68,0,281,.LM204-.LFBB21
GAS LISTING /tmp/ccj7iC5P.s 			page 51


 2527               	.LM204:
 2528 0b94 80E0      		ldi r24,0
 2529               	.L59:
 282:lcd.c         **** 	uint16_t x, y;
 283:lcd.c         **** 	write_cmd(COLUMN_ADDRESS_SET);
 2530               		.stabn	68,0,283,.LM205-.LFBB21
 2531               	.LM205:
 2532 0b96 4498      		cbi 0x8,4
 2533 0b98 9AE2      		ldi r25,lo8(42)
 2534 0b9a 95B9      		out 0x5,r25
 2535 0b9c 4398      		cbi 0x8,3
 2536 0b9e 439A      		sbi 0x8,3
 2537 0ba0 449A      		sbi 0x8,4
 284:lcd.c         **** 	write_data16(160);
 2538               		.stabn	68,0,284,.LM206-.LFBB21
 2539               	.LM206:
 2540 0ba2 15B8      		out 0x5,__zero_reg__
 2541 0ba4 4398      		cbi 0x8,3
 2542 0ba6 439A      		sbi 0x8,3
 2543 0ba8 90EA      		ldi r25,lo8(-96)
 2544 0baa 95B9      		out 0x5,r25
 2545 0bac 4398      		cbi 0x8,3
 2546 0bae 439A      		sbi 0x8,3
 285:lcd.c         **** 	write_data16(201);
 2547               		.stabn	68,0,285,.LM207-.LFBB21
 2548               	.LM207:
 2549 0bb0 15B8      		out 0x5,__zero_reg__
 2550 0bb2 4398      		cbi 0x8,3
 2551 0bb4 439A      		sbi 0x8,3
 2552 0bb6 99EC      		ldi r25,lo8(-55)
 2553 0bb8 95B9      		out 0x5,r25
 2554 0bba 4398      		cbi 0x8,3
 2555 0bbc 439A      		sbi 0x8,3
 286:lcd.c         **** 	write_cmd(PAGE_ADDRESS_SET);
 2556               		.stabn	68,0,286,.LM208-.LFBB21
 2557               	.LM208:
 2558 0bbe 4498      		cbi 0x8,4
 2559 0bc0 9BE2      		ldi r25,lo8(43)
 2560 0bc2 95B9      		out 0x5,r25
 2561 0bc4 4398      		cbi 0x8,3
 2562 0bc6 439A      		sbi 0x8,3
 2563 0bc8 449A      		sbi 0x8,4
 287:lcd.c         **** 	write_data16(204);
 2564               		.stabn	68,0,287,.LM209-.LFBB21
 2565               	.LM209:
 2566 0bca 15B8      		out 0x5,__zero_reg__
 2567 0bcc 4398      		cbi 0x8,3
 2568 0bce 439A      		sbi 0x8,3
 2569 0bd0 9CEC      		ldi r25,lo8(-52)
 2570 0bd2 95B9      		out 0x5,r25
 2571 0bd4 4398      		cbi 0x8,3
 2572 0bd6 439A      		sbi 0x8,3
 288:lcd.c         **** 	write_data16(277);
 2573               		.stabn	68,0,288,.LM210-.LFBB21
 2574               	.LM210:
 2575 0bd8 91E0      		ldi r25,lo8(1)
 2576 0bda 95B9      		out 0x5,r25
GAS LISTING /tmp/ccj7iC5P.s 			page 52


 2577 0bdc 4398      		cbi 0x8,3
 2578 0bde 439A      		sbi 0x8,3
 2579 0be0 95E1      		ldi r25,lo8(21)
 2580 0be2 95B9      		out 0x5,r25
 2581 0be4 4398      		cbi 0x8,3
 2582 0be6 439A      		sbi 0x8,3
 289:lcd.c         **** 	write_cmd(MEMORY_WRITE);
 2583               		.stabn	68,0,289,.LM211-.LFBB21
 2584               	.LM211:
 2585 0be8 4498      		cbi 0x8,4
 2586 0bea 9CE2      		ldi r25,lo8(44)
 2587 0bec 95B9      		out 0x5,r25
 2588 0bee 4398      		cbi 0x8,3
 2589 0bf0 439A      		sbi 0x8,3
 2590 0bf2 449A      		sbi 0x8,4
 2591               	.LBB36:
 290:lcd.c         **** 	for(y = 0; y <= 36; y++){
 291:lcd.c         **** 		for(x = 0; x <= 20; x++){
 292:lcd.c         **** 			write_data16(pgm_read_word(&d3[(9-digit)*777+x+y*21]));
 2592               		.stabn	68,0,292,.LM212-.LFBB21
 2593               	.LM212:
 2594 0bf4 29E0      		ldi r18,lo8(9)
 2595 0bf6 30E0      		ldi r19,0
 2596 0bf8 A901      		movw r20,r18
 2597 0bfa 481B      		sub r20,r24
 2598 0bfc 5109      		sbc r21,__zero_reg__
 2599 0bfe CA01      		movw r24,r20
 2600 0c00 29E0      		ldi r18,lo8(9)
 2601 0c02 33E0      		ldi r19,lo8(3)
 2602 0c04 829F      		mul r24,r18
 2603 0c06 A001      		movw r20,r0
 2604 0c08 839F      		mul r24,r19
 2605 0c0a 500D      		add r21,r0
 2606 0c0c 929F      		mul r25,r18
 2607 0c0e 500D      		add r21,r0
 2608 0c10 1124      		clr r1
 2609 0c12 9A01      		movw r18,r20
 2610 0c14 220F      		lsl r18
 2611 0c16 331F      		rol r19
 2612 0c18 2050      		subi r18,lo8(-(d3))
 2613 0c1a 3040      		sbci r19,hi8(-(d3))
 2614 0c1c DA01      		movw r26,r20
 2615 0c1e A75F      		subi r26,-9
 2616 0c20 BC4F      		sbci r27,-4
 2617               	.L60:
 2618               	.LBE36:
 281:lcd.c         **** 	uint16_t x, y;
 2619               		.stabn	68,0,281,.LM213-.LFBB21
 2620               	.LM213:
 2621 0c22 C901      		movw r24,r18
 291:lcd.c         **** 			write_data16(pgm_read_word(&d3[(9-digit)*777+x+y*21]));
 2622               		.stabn	68,0,291,.LM214-.LFBB21
 2623               	.LM214:
 2624 0c24 70E0      		ldi r23,0
 2625 0c26 60E0      		ldi r22,0
 2626               	.L61:
 2627               	.LBB37:
GAS LISTING /tmp/ccj7iC5P.s 			page 53


 2628               		.stabn	68,0,292,.LM215-.LFBB21
 2629               	.LM215:
 2630 0c28 FC01      		movw r30,r24
 2631               	/* #APP */
 2632               	 ;  292 "lcd.c" 1
 2633 0c2a C591      		lpm r28, Z+
 2634 0c2c D491      		lpm r29, Z
 2635               		
 2636               	 ;  0 "" 2
 2637               	/* #NOAPP */
 2638               	.LBE37:
 2639 0c2e D5B9      		out 0x5,r29
 2640 0c30 4398      		cbi 0x8,3
 2641 0c32 439A      		sbi 0x8,3
 2642               	.LBB38:
 2643 0c34 FC01      		movw r30,r24
 2644               	/* #APP */
 2645               	 ;  292 "lcd.c" 1
 2646 0c36 C591      		lpm r28, Z+
 2647 0c38 D491      		lpm r29, Z
 2648               		
 2649               	 ;  0 "" 2
 2650               	/* #NOAPP */
 2651               	.LBE38:
 2652 0c3a C5B9      		out 0x5,r28
 2653 0c3c 4398      		cbi 0x8,3
 2654 0c3e 439A      		sbi 0x8,3
 2655               	.LBB39:
 293:lcd.c         **** 			write_data16(pgm_read_word(&d3[(9-digit)*777+x+y*21]));
 2656               		.stabn	68,0,293,.LM216-.LFBB21
 2657               	.LM216:
 2658 0c40 FC01      		movw r30,r24
 2659               	/* #APP */
 2660               	 ;  293 "lcd.c" 1
 2661 0c42 C591      		lpm r28, Z+
 2662 0c44 D491      		lpm r29, Z
 2663               		
 2664               	 ;  0 "" 2
 2665               	/* #NOAPP */
 2666               	.LBE39:
 2667 0c46 D5B9      		out 0x5,r29
 2668 0c48 4398      		cbi 0x8,3
 2669 0c4a 439A      		sbi 0x8,3
 2670               	.LBB40:
 2671 0c4c FC01      		movw r30,r24
 2672               	/* #APP */
 2673               	 ;  293 "lcd.c" 1
 2674 0c4e C591      		lpm r28, Z+
 2675 0c50 D491      		lpm r29, Z
 2676               		
 2677               	 ;  0 "" 2
 2678               	/* #NOAPP */
 2679               	.LBE40:
 2680 0c52 C5B9      		out 0x5,r28
 2681 0c54 4398      		cbi 0x8,3
 2682 0c56 439A      		sbi 0x8,3
 291:lcd.c         **** 			write_data16(pgm_read_word(&d3[(9-digit)*777+x+y*21]));
GAS LISTING /tmp/ccj7iC5P.s 			page 54


 2683               		.stabn	68,0,291,.LM217-.LFBB21
 2684               	.LM217:
 2685 0c58 6F5F      		subi r22,-1
 2686 0c5a 7F4F      		sbci r23,-1
 291:lcd.c         **** 			write_data16(pgm_read_word(&d3[(9-digit)*777+x+y*21]));
 2687               		.stabn	68,0,291,.LM218-.LFBB21
 2688               	.LM218:
 2689 0c5c 0296      		adiw r24,2
 2690 0c5e 6531      		cpi r22,21
 2691 0c60 7105      		cpc r23,__zero_reg__
 2692 0c62 01F4      		brne .L61
 2693 0c64 C901      		movw r24,r18
 294:lcd.c         **** 		}
 295:lcd.c         **** 		for(x = 0; x <= 20; x++){
 2694               		.stabn	68,0,295,.LM219-.LFBB21
 2695               	.LM219:
 2696 0c66 70E0      		ldi r23,0
 2697 0c68 60E0      		ldi r22,0
 2698               	.L62:
 2699               	.LBB41:
 296:lcd.c         **** 			write_data16(pgm_read_word(&d3[(9-digit)*777+x+y*21]));
 2700               		.stabn	68,0,296,.LM220-.LFBB21
 2701               	.LM220:
 2702 0c6a FC01      		movw r30,r24
 2703               	/* #APP */
 2704               	 ;  296 "lcd.c" 1
 2705 0c6c C591      		lpm r28, Z+
 2706 0c6e D491      		lpm r29, Z
 2707               		
 2708               	 ;  0 "" 2
 2709               	/* #NOAPP */
 2710               	.LBE41:
 2711 0c70 D5B9      		out 0x5,r29
 2712 0c72 4398      		cbi 0x8,3
 2713 0c74 439A      		sbi 0x8,3
 2714               	.LBB42:
 2715 0c76 FC01      		movw r30,r24
 2716               	/* #APP */
 2717               	 ;  296 "lcd.c" 1
 2718 0c78 C591      		lpm r28, Z+
 2719 0c7a D491      		lpm r29, Z
 2720               		
 2721               	 ;  0 "" 2
 2722               	/* #NOAPP */
 2723               	.LBE42:
 2724 0c7c C5B9      		out 0x5,r28
 2725 0c7e 4398      		cbi 0x8,3
 2726 0c80 439A      		sbi 0x8,3
 2727               	.LBB43:
 297:lcd.c         **** 			write_data16(pgm_read_word(&d3[(9-digit)*777+x+y*21]));
 2728               		.stabn	68,0,297,.LM221-.LFBB21
 2729               	.LM221:
 2730 0c82 FC01      		movw r30,r24
 2731               	/* #APP */
 2732               	 ;  297 "lcd.c" 1
 2733 0c84 C591      		lpm r28, Z+
 2734 0c86 D491      		lpm r29, Z
GAS LISTING /tmp/ccj7iC5P.s 			page 55


 2735               		
 2736               	 ;  0 "" 2
 2737               	/* #NOAPP */
 2738               	.LBE43:
 2739 0c88 D5B9      		out 0x5,r29
 2740 0c8a 4398      		cbi 0x8,3
 2741 0c8c 439A      		sbi 0x8,3
 2742               	.LBB44:
 2743 0c8e FC01      		movw r30,r24
 2744               	/* #APP */
 2745               	 ;  297 "lcd.c" 1
 2746 0c90 C591      		lpm r28, Z+
 2747 0c92 D491      		lpm r29, Z
 2748               		
 2749               	 ;  0 "" 2
 2750               	/* #NOAPP */
 2751               	.LBE44:
 2752 0c94 C5B9      		out 0x5,r28
 2753 0c96 4398      		cbi 0x8,3
 2754 0c98 439A      		sbi 0x8,3
 295:lcd.c         **** 			write_data16(pgm_read_word(&d3[(9-digit)*777+x+y*21]));
 2755               		.stabn	68,0,295,.LM222-.LFBB21
 2756               	.LM222:
 2757 0c9a 6F5F      		subi r22,-1
 2758 0c9c 7F4F      		sbci r23,-1
 295:lcd.c         **** 			write_data16(pgm_read_word(&d3[(9-digit)*777+x+y*21]));
 2759               		.stabn	68,0,295,.LM223-.LFBB21
 2760               	.LM223:
 2761 0c9e 0296      		adiw r24,2
 2762 0ca0 6531      		cpi r22,21
 2763 0ca2 7105      		cpc r23,__zero_reg__
 2764 0ca4 01F4      		brne .L62
 290:lcd.c         **** 		for(x = 0; x <= 20; x++){
 2765               		.stabn	68,0,290,.LM224-.LFBB21
 2766               	.LM224:
 2767 0ca6 265D      		subi r18,-42
 2768 0ca8 3F4F      		sbci r19,-1
 2769 0caa 4B5E      		subi r20,-21
 2770 0cac 5F4F      		sbci r21,-1
 2771 0cae 4A17      		cp r20,r26
 2772 0cb0 5B07      		cpc r21,r27
 2773 0cb2 01F0      		breq .+2
 2774 0cb4 00C0      		rjmp .L60
 2775               	/* epilogue start */
 298:lcd.c         **** 		}
 299:lcd.c         **** 	}
 300:lcd.c         **** }
 2776               		.stabn	68,0,300,.LM225-.LFBB21
 2777               	.LM225:
 2778 0cb6 DF91      		pop r29
 2779 0cb8 CF91      		pop r28
 2780 0cba 0895      		ret
 2781               		.size	pwr_10, .-pwr_10
 2782               	.Lscope21:
 2783               		.stabs	"",36,0,0,.Lscope21-.LFBB21
 2784               		.stabs	"bat_pwr:F(0,1)",36,0,302,bat_pwr
 2785               		.stabs	"state:P(0,10)=@s8;-16;",64,0,302,24
GAS LISTING /tmp/ccj7iC5P.s 			page 56


 2786               		.stabs	"_Bool:t(0,10)",128,0,0,0
 2787               	.global	bat_pwr
 2788               		.type	bat_pwr, @function
 2789               	bat_pwr:
 301:lcd.c         **** 
 302:lcd.c         **** void bat_pwr(bool state){
 2790               		.stabn	68,0,302,.LM226-.LFBB22
 2791               	.LM226:
 2792               	.LFBB22:
 2793               	/* prologue: function */
 2794               	/* frame size = 0 */
 2795               	/* stack size = 0 */
 2796               	.L__stack_usage = 0
 303:lcd.c         **** 	//  14px wide, 25px tall
 304:lcd.c         **** 	//  Anchoring to coordinate (106, 28)
 305:lcd.c         **** 	uint16_t x, y;
 306:lcd.c         **** 	write_cmd(COLUMN_ADDRESS_SET);
 2797               		.stabn	68,0,306,.LM227-.LFBB22
 2798               	.LM227:
 2799 0cbc 4498      		cbi 0x8,4
 2800 0cbe 9AE2      		ldi r25,lo8(42)
 2801 0cc0 95B9      		out 0x5,r25
 2802 0cc2 4398      		cbi 0x8,3
 2803 0cc4 439A      		sbi 0x8,3
 2804 0cc6 449A      		sbi 0x8,4
 307:lcd.c         **** 	write_data16(106);
 2805               		.stabn	68,0,307,.LM228-.LFBB22
 2806               	.LM228:
 2807 0cc8 15B8      		out 0x5,__zero_reg__
 2808 0cca 4398      		cbi 0x8,3
 2809 0ccc 439A      		sbi 0x8,3
 2810 0cce 9AE6      		ldi r25,lo8(106)
 2811 0cd0 95B9      		out 0x5,r25
 2812 0cd2 4398      		cbi 0x8,3
 2813 0cd4 439A      		sbi 0x8,3
 308:lcd.c         **** 	write_data16(133);
 2814               		.stabn	68,0,308,.LM229-.LFBB22
 2815               	.LM229:
 2816 0cd6 15B8      		out 0x5,__zero_reg__
 2817 0cd8 4398      		cbi 0x8,3
 2818 0cda 439A      		sbi 0x8,3
 2819 0cdc 95E8      		ldi r25,lo8(-123)
 2820 0cde 95B9      		out 0x5,r25
 2821 0ce0 4398      		cbi 0x8,3
 2822 0ce2 439A      		sbi 0x8,3
 309:lcd.c         **** 	write_cmd(PAGE_ADDRESS_SET);
 2823               		.stabn	68,0,309,.LM230-.LFBB22
 2824               	.LM230:
 2825 0ce4 4498      		cbi 0x8,4
 2826 0ce6 9BE2      		ldi r25,lo8(43)
 2827 0ce8 95B9      		out 0x5,r25
 2828 0cea 4398      		cbi 0x8,3
 2829 0cec 439A      		sbi 0x8,3
 2830 0cee 449A      		sbi 0x8,4
 310:lcd.c         **** 	write_data16(28);
 2831               		.stabn	68,0,310,.LM231-.LFBB22
 2832               	.LM231:
GAS LISTING /tmp/ccj7iC5P.s 			page 57


 2833 0cf0 15B8      		out 0x5,__zero_reg__
 2834 0cf2 4398      		cbi 0x8,3
 2835 0cf4 439A      		sbi 0x8,3
 2836 0cf6 9CE1      		ldi r25,lo8(28)
 2837 0cf8 95B9      		out 0x5,r25
 2838 0cfa 4398      		cbi 0x8,3
 2839 0cfc 439A      		sbi 0x8,3
 311:lcd.c         **** 	write_data16(77);
 2840               		.stabn	68,0,311,.LM232-.LFBB22
 2841               	.LM232:
 2842 0cfe 15B8      		out 0x5,__zero_reg__
 2843 0d00 4398      		cbi 0x8,3
 2844 0d02 439A      		sbi 0x8,3
 2845 0d04 9DE4      		ldi r25,lo8(77)
 2846 0d06 95B9      		out 0x5,r25
 2847 0d08 4398      		cbi 0x8,3
 2848 0d0a 439A      		sbi 0x8,3
 312:lcd.c         **** 	write_cmd(MEMORY_WRITE);
 2849               		.stabn	68,0,312,.LM233-.LFBB22
 2850               	.LM233:
 2851 0d0c 4498      		cbi 0x8,4
 2852 0d0e 9CE2      		ldi r25,lo8(44)
 2853 0d10 95B9      		out 0x5,r25
 2854 0d12 4398      		cbi 0x8,3
 2855 0d14 439A      		sbi 0x8,3
 2856 0d16 449A      		sbi 0x8,4
 2857 0d18 20E0      		ldi r18,lo8(BATDRN)
 2858 0d1a 30E0      		ldi r19,hi8(BATDRN)
 313:lcd.c         **** 	if(state){
 2859               		.stabn	68,0,313,.LM234-.LFBB22
 2860               	.LM234:
 2861 0d1c 70E0      		ldi r23,0
 2862 0d1e 60E0      		ldi r22,0
 2863 0d20 8823      		tst r24
 2864 0d22 01F4      		brne .+2
 2865 0d24 00C0      		rjmp .L68
 2866 0d26 20E0      		ldi r18,lo8(BATCHR)
 2867 0d28 30E0      		ldi r19,hi8(BATCHR)
 2868 0d2a 70E0      		ldi r23,0
 2869 0d2c 60E0      		ldi r22,0
 2870               	.L69:
 302:lcd.c         **** 	//  14px wide, 25px tall
 2871               		.stabn	68,0,302,.LM235-.LFBB22
 2872               	.LM235:
 2873 0d2e C901      		movw r24,r18
 314:lcd.c         **** 		for(y = 0; y <= 24; y++){
 315:lcd.c         **** 			for(x = 0; x <= 13; x++){
 2874               		.stabn	68,0,315,.LM236-.LFBB22
 2875               	.LM236:
 2876 0d30 50E0      		ldi r21,0
 2877 0d32 40E0      		ldi r20,0
 2878               	.L70:
 2879               	.LBB45:
 316:lcd.c         **** 				write_data16(pgm_read_word_near(&BATCHR[x+y*14]));
 2880               		.stabn	68,0,316,.LM237-.LFBB22
 2881               	.LM237:
 2882 0d34 FC01      		movw r30,r24
GAS LISTING /tmp/ccj7iC5P.s 			page 58


 2883               	/* #APP */
 2884               	 ;  316 "lcd.c" 1
 2885 0d36 A591      		lpm r26, Z+
 2886 0d38 B491      		lpm r27, Z
 2887               		
 2888               	 ;  0 "" 2
 2889               	/* #NOAPP */
 2890               	.LBE45:
 2891 0d3a B5B9      		out 0x5,r27
 2892 0d3c 4398      		cbi 0x8,3
 2893 0d3e 439A      		sbi 0x8,3
 2894               	.LBB46:
 2895 0d40 FC01      		movw r30,r24
 2896               	/* #APP */
 2897               	 ;  316 "lcd.c" 1
 2898 0d42 A591      		lpm r26, Z+
 2899 0d44 B491      		lpm r27, Z
 2900               		
 2901               	 ;  0 "" 2
 2902               	/* #NOAPP */
 2903               	.LBE46:
 2904 0d46 A5B9      		out 0x5,r26
 2905 0d48 4398      		cbi 0x8,3
 2906 0d4a 439A      		sbi 0x8,3
 2907               	.LBB47:
 317:lcd.c         **** 				write_data16(pgm_read_word_near(&BATCHR[x+y*14]));
 2908               		.stabn	68,0,317,.LM238-.LFBB22
 2909               	.LM238:
 2910 0d4c FC01      		movw r30,r24
 2911               	/* #APP */
 2912               	 ;  317 "lcd.c" 1
 2913 0d4e A591      		lpm r26, Z+
 2914 0d50 B491      		lpm r27, Z
 2915               		
 2916               	 ;  0 "" 2
 2917               	/* #NOAPP */
 2918               	.LBE47:
 2919 0d52 B5B9      		out 0x5,r27
 2920 0d54 4398      		cbi 0x8,3
 2921 0d56 439A      		sbi 0x8,3
 2922               	.LBB48:
 2923 0d58 FC01      		movw r30,r24
 2924               	/* #APP */
 2925               	 ;  317 "lcd.c" 1
 2926 0d5a A591      		lpm r26, Z+
 2927 0d5c B491      		lpm r27, Z
 2928               		
 2929               	 ;  0 "" 2
 2930               	/* #NOAPP */
 2931               	.LBE48:
 2932 0d5e A5B9      		out 0x5,r26
 2933 0d60 4398      		cbi 0x8,3
 2934 0d62 439A      		sbi 0x8,3
 315:lcd.c         **** 				write_data16(pgm_read_word_near(&BATCHR[x+y*14]));
 2935               		.stabn	68,0,315,.LM239-.LFBB22
 2936               	.LM239:
 2937 0d64 4F5F      		subi r20,-1
GAS LISTING /tmp/ccj7iC5P.s 			page 59


 2938 0d66 5F4F      		sbci r21,-1
 315:lcd.c         **** 				write_data16(pgm_read_word_near(&BATCHR[x+y*14]));
 2939               		.stabn	68,0,315,.LM240-.LFBB22
 2940               	.LM240:
 2941 0d68 0296      		adiw r24,2
 2942 0d6a 4E30      		cpi r20,14
 2943 0d6c 5105      		cpc r21,__zero_reg__
 2944 0d6e 01F4      		brne .L70
 2945 0d70 C901      		movw r24,r18
 318:lcd.c         **** 			}
 319:lcd.c         **** 			for(x = 0; x <= 13; x++){
 2946               		.stabn	68,0,319,.LM241-.LFBB22
 2947               	.LM241:
 2948 0d72 50E0      		ldi r21,0
 2949 0d74 40E0      		ldi r20,0
 2950               	.L71:
 2951               	.LBB49:
 320:lcd.c         **** 				write_data16(pgm_read_word_near(&BATCHR[x+y*14]));
 2952               		.stabn	68,0,320,.LM242-.LFBB22
 2953               	.LM242:
 2954 0d76 FC01      		movw r30,r24
 2955               	/* #APP */
 2956               	 ;  320 "lcd.c" 1
 2957 0d78 A591      		lpm r26, Z+
 2958 0d7a B491      		lpm r27, Z
 2959               		
 2960               	 ;  0 "" 2
 2961               	/* #NOAPP */
 2962               	.LBE49:
 2963 0d7c B5B9      		out 0x5,r27
 2964 0d7e 4398      		cbi 0x8,3
 2965 0d80 439A      		sbi 0x8,3
 2966               	.LBB50:
 2967 0d82 FC01      		movw r30,r24
 2968               	/* #APP */
 2969               	 ;  320 "lcd.c" 1
 2970 0d84 A591      		lpm r26, Z+
 2971 0d86 B491      		lpm r27, Z
 2972               		
 2973               	 ;  0 "" 2
 2974               	/* #NOAPP */
 2975               	.LBE50:
 2976 0d88 A5B9      		out 0x5,r26
 2977 0d8a 4398      		cbi 0x8,3
 2978 0d8c 439A      		sbi 0x8,3
 2979               	.LBB51:
 321:lcd.c         **** 				write_data16(pgm_read_word_near(&BATCHR[x+y*14]));
 2980               		.stabn	68,0,321,.LM243-.LFBB22
 2981               	.LM243:
 2982 0d8e FC01      		movw r30,r24
 2983               	/* #APP */
 2984               	 ;  321 "lcd.c" 1
 2985 0d90 A591      		lpm r26, Z+
 2986 0d92 B491      		lpm r27, Z
 2987               		
 2988               	 ;  0 "" 2
 2989               	/* #NOAPP */
GAS LISTING /tmp/ccj7iC5P.s 			page 60


 2990               	.LBE51:
 2991 0d94 B5B9      		out 0x5,r27
 2992 0d96 4398      		cbi 0x8,3
 2993 0d98 439A      		sbi 0x8,3
 2994               	.LBB52:
 2995 0d9a FC01      		movw r30,r24
 2996               	/* #APP */
 2997               	 ;  321 "lcd.c" 1
 2998 0d9c A591      		lpm r26, Z+
 2999 0d9e B491      		lpm r27, Z
 3000               		
 3001               	 ;  0 "" 2
 3002               	/* #NOAPP */
 3003               	.LBE52:
 3004 0da0 A5B9      		out 0x5,r26
 3005 0da2 4398      		cbi 0x8,3
 3006 0da4 439A      		sbi 0x8,3
 319:lcd.c         **** 				write_data16(pgm_read_word_near(&BATCHR[x+y*14]));
 3007               		.stabn	68,0,319,.LM244-.LFBB22
 3008               	.LM244:
 3009 0da6 4F5F      		subi r20,-1
 3010 0da8 5F4F      		sbci r21,-1
 319:lcd.c         **** 				write_data16(pgm_read_word_near(&BATCHR[x+y*14]));
 3011               		.stabn	68,0,319,.LM245-.LFBB22
 3012               	.LM245:
 3013 0daa 0296      		adiw r24,2
 3014 0dac 4E30      		cpi r20,14
 3015 0dae 5105      		cpc r21,__zero_reg__
 3016 0db0 01F4      		brne .L71
 314:lcd.c         **** 			for(x = 0; x <= 13; x++){
 3017               		.stabn	68,0,314,.LM246-.LFBB22
 3018               	.LM246:
 3019 0db2 245E      		subi r18,-28
 3020 0db4 3F4F      		sbci r19,-1
 3021 0db6 625F      		subi r22,-14
 3022 0db8 7F4F      		sbci r23,-1
 3023 0dba 6E35      		cpi r22,94
 3024 0dbc 81E0      		ldi r24,1
 3025 0dbe 7807      		cpc r23,r24
 3026 0dc0 01F0      		breq .+2
 3027 0dc2 00C0      		rjmp .L69
 3028               	.L66:
 3029               	/* epilogue start */
 322:lcd.c         **** 			}
 323:lcd.c         **** 		}
 324:lcd.c         **** 	}
 325:lcd.c         **** 	else {
 326:lcd.c         **** 		for(y = 0; y <= 24; y++){
 327:lcd.c         **** 			for(x = 0; x <= 13; x++){
 328:lcd.c         **** 				write_data16(pgm_read_word_near(&BATDRN[x+y*14]));
 329:lcd.c         **** 				write_data16(pgm_read_word_near(&BATDRN[x+y*14]));
 330:lcd.c         **** 			}
 331:lcd.c         **** 			for(x = 0; x <= 13; x++){
 332:lcd.c         **** 				write_data16(pgm_read_word_near(&BATDRN[x+y*14]));
 333:lcd.c         **** 				write_data16(pgm_read_word_near(&BATDRN[x+y*14]));
 334:lcd.c         **** 			}
 335:lcd.c         **** 		}
GAS LISTING /tmp/ccj7iC5P.s 			page 61


 336:lcd.c         **** 	}
 337:lcd.c         **** }
 3030               		.stabn	68,0,337,.LM247-.LFBB22
 3031               	.LM247:
 3032 0dc4 0895      		ret
 3033               	.L73:
 3034               	.LBB53:
 328:lcd.c         **** 				write_data16(pgm_read_word_near(&BATDRN[x+y*14]));
 3035               		.stabn	68,0,328,.LM248-.LFBB22
 3036               	.LM248:
 3037 0dc6 FC01      		movw r30,r24
 3038               	/* #APP */
 3039               	 ;  328 "lcd.c" 1
 3040 0dc8 A591      		lpm r26, Z+
 3041 0dca B491      		lpm r27, Z
 3042               		
 3043               	 ;  0 "" 2
 3044               	/* #NOAPP */
 3045               	.LBE53:
 3046 0dcc B5B9      		out 0x5,r27
 3047 0dce 4398      		cbi 0x8,3
 3048 0dd0 439A      		sbi 0x8,3
 3049               	.LBB54:
 3050 0dd2 FC01      		movw r30,r24
 3051               	/* #APP */
 3052               	 ;  328 "lcd.c" 1
 3053 0dd4 A591      		lpm r26, Z+
 3054 0dd6 B491      		lpm r27, Z
 3055               		
 3056               	 ;  0 "" 2
 3057               	/* #NOAPP */
 3058               	.LBE54:
 3059 0dd8 A5B9      		out 0x5,r26
 3060 0dda 4398      		cbi 0x8,3
 3061 0ddc 439A      		sbi 0x8,3
 3062               	.LBB55:
 329:lcd.c         **** 			}
 3063               		.stabn	68,0,329,.LM249-.LFBB22
 3064               	.LM249:
 3065 0dde FC01      		movw r30,r24
 3066               	/* #APP */
 3067               	 ;  329 "lcd.c" 1
 3068 0de0 A591      		lpm r26, Z+
 3069 0de2 B491      		lpm r27, Z
 3070               		
 3071               	 ;  0 "" 2
 3072               	/* #NOAPP */
 3073               	.LBE55:
 3074 0de4 B5B9      		out 0x5,r27
 3075 0de6 4398      		cbi 0x8,3
 3076 0de8 439A      		sbi 0x8,3
 3077               	.LBB56:
 3078 0dea FC01      		movw r30,r24
 3079               	/* #APP */
 3080               	 ;  329 "lcd.c" 1
 3081 0dec A591      		lpm r26, Z+
 3082 0dee B491      		lpm r27, Z
GAS LISTING /tmp/ccj7iC5P.s 			page 62


 3083               		
 3084               	 ;  0 "" 2
 3085               	/* #NOAPP */
 3086               	.LBE56:
 3087 0df0 A5B9      		out 0x5,r26
 3088 0df2 4398      		cbi 0x8,3
 3089 0df4 439A      		sbi 0x8,3
 327:lcd.c         **** 				write_data16(pgm_read_word_near(&BATDRN[x+y*14]));
 3090               		.stabn	68,0,327,.LM250-.LFBB22
 3091               	.LM250:
 3092 0df6 4F5F      		subi r20,-1
 3093 0df8 5F4F      		sbci r21,-1
 327:lcd.c         **** 				write_data16(pgm_read_word_near(&BATDRN[x+y*14]));
 3094               		.stabn	68,0,327,.LM251-.LFBB22
 3095               	.LM251:
 3096 0dfa 0296      		adiw r24,2
 3097 0dfc 4E30      		cpi r20,14
 3098 0dfe 5105      		cpc r21,__zero_reg__
 3099 0e00 01F4      		brne .L73
 3100 0e02 C901      		movw r24,r18
 331:lcd.c         **** 				write_data16(pgm_read_word_near(&BATDRN[x+y*14]));
 3101               		.stabn	68,0,331,.LM252-.LFBB22
 3102               	.LM252:
 3103 0e04 50E0      		ldi r21,0
 3104 0e06 40E0      		ldi r20,0
 3105               	.L74:
 3106               	.LBB57:
 332:lcd.c         **** 				write_data16(pgm_read_word_near(&BATDRN[x+y*14]));
 3107               		.stabn	68,0,332,.LM253-.LFBB22
 3108               	.LM253:
 3109 0e08 FC01      		movw r30,r24
 3110               	/* #APP */
 3111               	 ;  332 "lcd.c" 1
 3112 0e0a A591      		lpm r26, Z+
 3113 0e0c B491      		lpm r27, Z
 3114               		
 3115               	 ;  0 "" 2
 3116               	/* #NOAPP */
 3117               	.LBE57:
 3118 0e0e B5B9      		out 0x5,r27
 3119 0e10 4398      		cbi 0x8,3
 3120 0e12 439A      		sbi 0x8,3
 3121               	.LBB58:
 3122 0e14 FC01      		movw r30,r24
 3123               	/* #APP */
 3124               	 ;  332 "lcd.c" 1
 3125 0e16 A591      		lpm r26, Z+
 3126 0e18 B491      		lpm r27, Z
 3127               		
 3128               	 ;  0 "" 2
 3129               	/* #NOAPP */
 3130               	.LBE58:
 3131 0e1a A5B9      		out 0x5,r26
 3132 0e1c 4398      		cbi 0x8,3
 3133 0e1e 439A      		sbi 0x8,3
 3134               	.LBB59:
 333:lcd.c         **** 			}
GAS LISTING /tmp/ccj7iC5P.s 			page 63


 3135               		.stabn	68,0,333,.LM254-.LFBB22
 3136               	.LM254:
 3137 0e20 FC01      		movw r30,r24
 3138               	/* #APP */
 3139               	 ;  333 "lcd.c" 1
 3140 0e22 A591      		lpm r26, Z+
 3141 0e24 B491      		lpm r27, Z
 3142               		
 3143               	 ;  0 "" 2
 3144               	/* #NOAPP */
 3145               	.LBE59:
 3146 0e26 B5B9      		out 0x5,r27
 3147 0e28 4398      		cbi 0x8,3
 3148 0e2a 439A      		sbi 0x8,3
 3149               	.LBB60:
 3150 0e2c FC01      		movw r30,r24
 3151               	/* #APP */
 3152               	 ;  333 "lcd.c" 1
 3153 0e2e A591      		lpm r26, Z+
 3154 0e30 B491      		lpm r27, Z
 3155               		
 3156               	 ;  0 "" 2
 3157               	/* #NOAPP */
 3158               	.LBE60:
 3159 0e32 A5B9      		out 0x5,r26
 3160 0e34 4398      		cbi 0x8,3
 3161 0e36 439A      		sbi 0x8,3
 331:lcd.c         **** 				write_data16(pgm_read_word_near(&BATDRN[x+y*14]));
 3162               		.stabn	68,0,331,.LM255-.LFBB22
 3163               	.LM255:
 3164 0e38 4F5F      		subi r20,-1
 3165 0e3a 5F4F      		sbci r21,-1
 331:lcd.c         **** 				write_data16(pgm_read_word_near(&BATDRN[x+y*14]));
 3166               		.stabn	68,0,331,.LM256-.LFBB22
 3167               	.LM256:
 3168 0e3c 0296      		adiw r24,2
 3169 0e3e 4E30      		cpi r20,14
 3170 0e40 5105      		cpc r21,__zero_reg__
 3171 0e42 01F4      		brne .L74
 326:lcd.c         **** 			for(x = 0; x <= 13; x++){
 3172               		.stabn	68,0,326,.LM257-.LFBB22
 3173               	.LM257:
 3174 0e44 245E      		subi r18,-28
 3175 0e46 3F4F      		sbci r19,-1
 3176 0e48 625F      		subi r22,-14
 3177 0e4a 7F4F      		sbci r23,-1
 3178 0e4c 6E35      		cpi r22,94
 3179 0e4e 81E0      		ldi r24,1
 3180 0e50 7807      		cpc r23,r24
 3181 0e52 01F4      		brne .+2
 3182 0e54 00C0      		rjmp .L66
 3183               	.L68:
 313:lcd.c         **** 		for(y = 0; y <= 24; y++){
 3184               		.stabn	68,0,313,.LM258-.LFBB22
 3185               	.LM258:
 3186 0e56 C901      		movw r24,r18
 327:lcd.c         **** 				write_data16(pgm_read_word_near(&BATDRN[x+y*14]));
GAS LISTING /tmp/ccj7iC5P.s 			page 64


 3187               		.stabn	68,0,327,.LM259-.LFBB22
 3188               	.LM259:
 3189 0e58 50E0      		ldi r21,0
 3190 0e5a 40E0      		ldi r20,0
 3191 0e5c 00C0      		rjmp .L73
 3192               		.size	bat_pwr, .-bat_pwr
 3193               	.Lscope22:
 3194               		.stabs	"",36,0,0,.Lscope22-.LFBB22
 3195               	.global	display
 3196               		.data
 3197               		.type	display, @object
 3198               		.size	display, 14
 3199               	display:
 3200 0000 F000      		.word	240
 3201 0002 4001      		.word	320
 3202 0004 0000      		.word	0
 3203 0006 0000      		.word	0
 3204 0008 0000      		.word	0
 3205 000a E420      		.word	8420
 3206 000c 99FF      		.word	-103
 3207               		.stabs	"display:G(0,11)=(0,12)=s14width:(0,6),0,16;height:(0,6),16,16;orient:(0,5),32,16;x:(0,6),4
 3208               		.stabs	"lcd:t(0,11)",128,0,29,0
 3209               		.text
 3210               		.stabs	"",100,0,0,.Letext0
 3211               	.Letext0:
 3212               		.ident	"GCC: (GNU) 11.2.0"
 3213               	.global __do_copy_data
GAS LISTING /tmp/ccj7iC5P.s 			page 65


DEFINED SYMBOLS
                            *ABS*:0000000000000000 lcd.c
     /tmp/ccj7iC5P.s:2      *ABS*:000000000000003e __SP_H__
     /tmp/ccj7iC5P.s:3      *ABS*:000000000000003d __SP_L__
     /tmp/ccj7iC5P.s:4      *ABS*:000000000000003f __SREG__
     /tmp/ccj7iC5P.s:5      *ABS*:0000000000000000 __tmp_reg__
     /tmp/ccj7iC5P.s:6      *ABS*:0000000000000001 __zero_reg__
     /tmp/ccj7iC5P.s:18     .text:0000000000000000 init_lcd
     /tmp/ccj7iC5P.s:55     .text:0000000000000018 set_orientation
     /tmp/ccj7iC5P.s:3199   .data:0000000000000000 display
     /tmp/ccj7iC5P.s:241    .text:0000000000000128 init_graphics
     /tmp/ccj7iC5P.s:702    .text:000000000000031a pwr_kw
     /tmp/ccj7iC5P.s:978    .text:000000000000044a fill_rectangle
     /tmp/ccj7iC5P.s:1135   .text:0000000000000510 LC1_green
     /tmp/ccj7iC5P.s:1204   .text:0000000000000568 LC1_red
     /tmp/ccj7iC5P.s:1279   .text:00000000000005c0 LC2_green
     /tmp/ccj7iC5P.s:1347   .text:0000000000000618 LC2_red
     /tmp/ccj7iC5P.s:1422   .text:0000000000000670 LC3_green
     /tmp/ccj7iC5P.s:1490   .text:00000000000006c8 LC3_red
     /tmp/ccj7iC5P.s:1565   .text:0000000000000720 LS1_green
     /tmp/ccj7iC5P.s:1633   .text:0000000000000778 LS1_red
     /tmp/ccj7iC5P.s:1708   .text:00000000000007d0 LS2_green
     /tmp/ccj7iC5P.s:1776   .text:0000000000000828 LS2_red
     /tmp/ccj7iC5P.s:1851   .text:0000000000000880 LS3_green
     /tmp/ccj7iC5P.s:1919   .text:00000000000008d8 LS3_red
     /tmp/ccj7iC5P.s:2000   .text:0000000000000930 pwr_bar_wind
     /tmp/ccj7iC5P.s:2124   .text:00000000000009c6 pwr_bar_sun
     /tmp/ccj7iC5P.s:2236   .text:0000000000000a5c pwr_100
     /tmp/ccj7iC5P.s:2512   .text:0000000000000b8c pwr_10
     /tmp/ccj7iC5P.s:2789   .text:0000000000000cbc bat_pwr

UNDEFINED SYMBOLS
init_display_controller
bg1_1
bg1_2
digit1
digit2
d3
BATDRN
BATCHR
__do_copy_data
