GAS LISTING /tmp/ccxyVAn8.s 			page 1


   1               		.file	"adc.c"
   2               	__SP_H__ = 0x3e
   3               	__SP_L__ = 0x3d
   4               	__SREG__ = 0x3f
   5               	__tmp_reg__ = 0
   6               	__zero_reg__ = 1
   7               		.stabs	"/home/kaicho/Southampton/sotond5/sotond5/libadc/",100,0,2,.Ltext0
   8               		.stabs	"adc.c",100,0,2,.Ltext0
   9               		.text
  10               	.Ltext0:
  11               		.stabs	"gcc2_compiled.",60,0,0,0
  12               		.stabs	"init_timers:F(0,1)=(0,1)",36,0,14,init_timers
  13               		.stabs	"uint8_t:t(0,2)=(0,3)=@s8;r(0,3);0;255;",128,0,126,0
  14               		.stabs	"void:t(0,1)",128,0,0,0
  15               		.stabs	"unsigned char:t(0,3)",128,0,0,0
  16               	.global	init_timers
  17               		.type	init_timers, @function
  18               	init_timers:
   1:adc.c         **** #include <stdio.h>
   2:adc.c         **** #include <avr/io.h>
   3:adc.c         **** #include <util/delay.h>
   4:adc.c         **** #include <avr/interrupt.h>
   5:adc.c         **** #include <stdbool.h>
   6:adc.c         **** #include "../libio/io.h"
   7:adc.c         **** 
   8:adc.c         **** volatile uint16_t adc_read;
   9:adc.c         **** volatile bool calibrating, adc_rdy, sync, adc_mux_rdy;
  10:adc.c         **** uint8_t TIMER0_TOP;
  11:adc.c         **** uint8_t OFFSET;
  12:adc.c         **** //  TOP value used to fine tune the phase delay to capture the mains AC phase.
  13:adc.c         **** 
  14:adc.c         **** void init_timers(void)
  15:adc.c         **** {
  19               		.stabn	68,0,15,.LM0-.LFBB1
  20               	.LM0:
  21               	.LFBB1:
  22               	/* prologue: function */
  23               	/* frame size = 0 */
  24               	/* stack size = 0 */
  25               	.L__stack_usage = 0
  16:adc.c         **** 	TCCR0A = 0x02; // set timer0 to CTC mode with 1024 prescaler
  26               		.stabn	68,0,16,.LM1-.LFBB1
  27               	.LM1:
  28 0000 82E0      		ldi r24,lo8(2)
  29 0002 84BD      		out 0x24,r24
  17:adc.c         **** 	TCCR0B = 0x05;
  30               		.stabn	68,0,17,.LM2-.LFBB1
  31               	.LM2:
  32 0004 95E0      		ldi r25,lo8(5)
  33 0006 95BD      		out 0x25,r25
  18:adc.c         **** 	TCNT0 = 0;
  34               		.stabn	68,0,18,.LM3-.LFBB1
  35               	.LM3:
  36 0008 16BC      		out 0x26,__zero_reg__
  19:adc.c         ****     TIMSK0 = 0;
  37               		.stabn	68,0,19,.LM4-.LFBB1
  38               	.LM4:
GAS LISTING /tmp/ccxyVAn8.s 			page 2


  39 000a 1092 6E00 		sts 110,__zero_reg__
  20:adc.c         **** 
  21:adc.c         ****     TCCR2A = 0x02;
  40               		.stabn	68,0,21,.LM5-.LFBB1
  41               	.LM5:
  42 000e 8093 B000 		sts 176,r24
  22:adc.c         ****     TCCR2B = 0x00; // Timer2 will be set to CTC mode with no prescaler to sync with the ADC clock.
  43               		.stabn	68,0,22,.LM6-.LFBB1
  44               	.LM6:
  45 0012 1092 B100 		sts 177,__zero_reg__
  23:adc.c         ****     OCR2A = 239;
  46               		.stabn	68,0,23,.LM7-.LFBB1
  47               	.LM7:
  48 0016 9FEE      		ldi r25,lo8(-17)
  49 0018 9093 B300 		sts 179,r25
  24:adc.c         ****     TIMSK2 = 0x02; // Setting the interrupt on OCR2A
  50               		.stabn	68,0,24,.LM8-.LFBB1
  51               	.LM8:
  52 001c 8093 7000 		sts 112,r24
  53               	/* epilogue start */
  25:adc.c         **** 
  26:adc.c         **** 	//set prescaler to 1024, count up to 116 (OCR0A),
  27:adc.c         **** }
  54               		.stabn	68,0,27,.LM9-.LFBB1
  55               	.LM9:
  56 0020 0895      		ret
  57               		.size	init_timers, .-init_timers
  58               	.Lscope1:
  59               		.stabs	"",36,0,0,.Lscope1-.LFBB1
  60               		.stabs	"adts_disable:F(0,1)",36,0,29,adts_disable
  61               	.global	adts_disable
  62               		.type	adts_disable, @function
  63               	adts_disable:
  28:adc.c         **** 
  29:adc.c         **** void adts_disable(void){
  64               		.stabn	68,0,29,.LM10-.LFBB2
  65               	.LM10:
  66               	.LFBB2:
  67               	/* prologue: function */
  68               	/* frame size = 0 */
  69               	/* stack size = 0 */
  70               	.L__stack_usage = 0
  30:adc.c         ****     ADCSRB = 0;
  71               		.stabn	68,0,30,.LM11-.LFBB2
  72               	.LM11:
  73 0022 1092 7B00 		sts 123,__zero_reg__
  74               	/* epilogue start */
  31:adc.c         **** }
  75               		.stabn	68,0,31,.LM12-.LFBB2
  76               	.LM12:
  77 0026 0895      		ret
  78               		.size	adts_disable, .-adts_disable
  79               	.Lscope2:
  80               		.stabs	"",36,0,0,.Lscope2-.LFBB2
  81               		.stabs	"adts_enable:F(0,1)",36,0,33,adts_enable
  82               	.global	adts_enable
  83               		.type	adts_enable, @function
GAS LISTING /tmp/ccxyVAn8.s 			page 3


  84               	adts_enable:
  32:adc.c         **** 
  33:adc.c         **** void adts_enable(void){
  85               		.stabn	68,0,33,.LM13-.LFBB3
  86               	.LM13:
  87               	.LFBB3:
  88               	/* prologue: function */
  89               	/* frame size = 0 */
  90               	/* stack size = 0 */
  91               	.L__stack_usage = 0
  34:adc.c         ****     ADCSRB |=_BV(ADTS1);
  92               		.stabn	68,0,34,.LM14-.LFBB3
  93               	.LM14:
  94 0028 EBE7      		ldi r30,lo8(123)
  95 002a F0E0      		ldi r31,0
  96 002c 8081      		ld r24,Z
  97 002e 8260      		ori r24,lo8(2)
  98 0030 8083      		st Z,r24
  35:adc.c         **** 	ADCSRB |=_BV(ADTS0);
  99               		.stabn	68,0,35,.LM15-.LFBB3
 100               	.LM15:
 101 0032 8081      		ld r24,Z
 102 0034 8160      		ori r24,lo8(1)
 103 0036 8083      		st Z,r24
 104               	/* epilogue start */
  36:adc.c         **** }
 105               		.stabn	68,0,36,.LM16-.LFBB3
 106               	.LM16:
 107 0038 0895      		ret
 108               		.size	adts_enable, .-adts_enable
 109               	.Lscope3:
 110               		.stabs	"",36,0,0,.Lscope3-.LFBB3
 111               		.stabs	"__vector_24:F(0,1)",36,0,38,__vector_24
 112               		.stabs	"uint16_t:t(0,4)=(0,5)=r(0,5);0;0177777;",128,0,128,0
 113               		.stabs	"unsigned int:t(0,5)",128,0,0,0
 114               	.global	__vector_24
 115               		.type	__vector_24, @function
 116               	__vector_24:
  37:adc.c         **** 
  38:adc.c         **** ISR(ADC_vect){
 117               		.stabn	68,0,38,.LM17-.LFBB4
 118               	.LM17:
 119               	.LFBB4:
 120 003a 8F93      		__gcc_isr 1
 121 003c 9F93      		push r25
 122               	/* prologue: Signal */
 123               	/* frame size = 0 */
 124               	/* stack size = 1...5 */
 125               	.L__stack_usage = 1 + __gcc_isr.n_pushed
  39:adc.c         ****     adc_read = ADC;
 126               		.stabn	68,0,39,.LM18-.LFBB4
 127               	.LM18:
 128 003e 8091 7800 		lds r24,120
 129 0042 9091 7900 		lds r25,120+1
 130               		.stabn	68,0,39,.LM19-.LFBB4
 131               	.LM19:
 132 0046 9093 0000 		sts adc_read+1,r25
GAS LISTING /tmp/ccxyVAn8.s 			page 4


 133 004a 8093 0000 		sts adc_read,r24
  40:adc.c         ****     adc_rdy = true;
 134               		.stabn	68,0,40,.LM20-.LFBB4
 135               	.LM20:
 136 004e 81E0      		ldi r24,lo8(1)
 137 0050 8093 0000 		sts adc_rdy,r24
 138               	/* epilogue start */
  41:adc.c         ****     // a flag for the main loop
  42:adc.c         **** }
 139               		.stabn	68,0,42,.LM21-.LFBB4
 140               	.LM21:
 141 0054 9F91      		pop r25
 142 0056 8F91      		__gcc_isr 2
 143 0058 1895      		reti
 144               		__gcc_isr 0,r24
 145               		.size	__vector_24, .-__vector_24
 146               	.Lscope4:
 147               		.stabs	"",36,0,0,.Lscope4-.LFBB4
 148               		.stabs	"__vector_16:F(0,1)",36,0,44,__vector_16
 149               	.global	__vector_16
 150               		.type	__vector_16, @function
 151               	__vector_16:
  43:adc.c         **** 
  44:adc.c         **** ISR(TIMER0_COMPA_vect){
 152               		.stabn	68,0,44,.LM22-.LFBB5
 153               	.LM22:
 154               	.LFBB5:
 155 005a 8F93      		__gcc_isr 1
 156               	/* prologue: Signal */
 157               	/* frame size = 0 */
 158               	/* stack size = 0...4 */
 159               	.L__stack_usage = 0 + __gcc_isr.n_pushed
  45:adc.c         ****     sync = true;
 160               		.stabn	68,0,45,.LM23-.LFBB5
 161               	.LM23:
 162 005c 81E0      		ldi r24,lo8(1)
 163 005e 8093 0000 		sts sync,r24
 164               	/* epilogue start */
  46:adc.c         **** }
 165               		.stabn	68,0,46,.LM24-.LFBB5
 166               	.LM24:
 167 0062 8F91      		__gcc_isr 2
 168 0064 1895      		reti
 169               		__gcc_isr 0,r24
 170               		.size	__vector_16, .-__vector_16
 171               	.Lscope5:
 172               		.stabs	"",36,0,0,.Lscope5-.LFBB5
 173               		.stabs	"__vector_9:F(0,1)",36,0,48,__vector_9
 174               	.global	__vector_9
 175               		.type	__vector_9, @function
 176               	__vector_9:
  47:adc.c         **** 
  48:adc.c         **** ISR(TIMER2_COMPA_vect){
 177               		.stabn	68,0,48,.LM25-.LFBB6
 178               	.LM25:
 179               	.LFBB6:
 180 0066 1F92 1FB6 		__gcc_isr 1
GAS LISTING /tmp/ccxyVAn8.s 			page 5


 180      1F92 1124 
 180      8F93 
 181               	/* prologue: Signal */
 182               	/* frame size = 0 */
 183               	/* stack size = 0...4 */
 184               	.L__stack_usage = 0 + __gcc_isr.n_pushed
  49:adc.c         ****     TCCR2B = 0x00;
 185               		.stabn	68,0,49,.LM26-.LFBB6
 186               	.LM26:
 187 0070 1092 B100 		sts 177,__zero_reg__
  50:adc.c         ****     //  Stop the timer after reset.
  51:adc.c         ****     adc_mux_rdy = true;
 188               		.stabn	68,0,51,.LM27-.LFBB6
 189               	.LM27:
 190 0074 81E0      		ldi r24,lo8(1)
 191 0076 8093 0000 		sts adc_mux_rdy,r24
 192               	/* epilogue start */
  52:adc.c         **** }
 193               		.stabn	68,0,52,.LM28-.LFBB6
 194               	.LM28:
 195 007a 8F91 1F90 		__gcc_isr 2
 195      1FBE 1F90 
 196 0082 1895      		reti
 197               		__gcc_isr 0,r24
 198               		.size	__vector_9, .-__vector_9
 199               	.Lscope6:
 200               		.stabs	"",36,0,0,.Lscope6-.LFBB6
 201               		.stabs	"calibrate_timer0:F(0,1)",36,0,54,calibrate_timer0
 202               	.global	calibrate_timer0
 203               		.type	calibrate_timer0, @function
 204               	calibrate_timer0:
  53:adc.c         **** 
  54:adc.c         **** void calibrate_timer0(void)
  55:adc.c         **** {
 205               		.stabn	68,0,55,.LM29-.LFBB7
 206               	.LM29:
 207               	.LFBB7:
 208               	/* prologue: function */
 209               	/* frame size = 0 */
 210               	/* stack size = 0 */
 211               	.L__stack_usage = 0
  56:adc.c         ****     calibrating = true;
 212               		.stabn	68,0,56,.LM30-.LFBB7
 213               	.LM30:
 214 0084 81E0      		ldi r24,lo8(1)
 215 0086 8093 0000 		sts calibrating,r24
  57:adc.c         ****     ADCSRA |= _BV(ADIE);
 216               		.stabn	68,0,57,.LM31-.LFBB7
 217               	.LM31:
 218 008a 8091 7A00 		lds r24,122
 219 008e 8860      		ori r24,lo8(8)
 220 0090 8093 7A00 		sts 122,r24
 221               	.LBB4:
 222               	.LBB5:
  30:adc.c         **** }
 223               		.stabn	68,0,30,.LM32-.LFBB7
 224               	.LM32:
GAS LISTING /tmp/ccxyVAn8.s 			page 6


 225 0094 1092 7B00 		sts 123,__zero_reg__
 226               	.LBE5:
 227               	.LBE4:
  58:adc.c         ****     adts_disable();
  59:adc.c         ****     //  Turn off OCR0A triggering if it is enabled.
  60:adc.c         **** 	ADMUX = 0x05;
 228               		.stabn	68,0,60,.LM33-.LFBB7
 229               	.LM33:
 230 0098 85E0      		ldi r24,lo8(5)
 231 009a 8093 7C00 		sts 124,r24
  61:adc.c         ****     //  Select PA5 as the ADC source.
  62:adc.c         ****     ADCSRA |=_BV(ADATE);
 232               		.stabn	68,0,62,.LM34-.LFBB7
 233               	.LM34:
 234 009e 8091 7A00 		lds r24,122
 235 00a2 8062      		ori r24,lo8(32)
 236 00a4 8093 7A00 		sts 122,r24
  63:adc.c         ****     ADCSRA |= _BV(ADSC);
 237               		.stabn	68,0,63,.LM35-.LFBB7
 238               	.LM35:
 239 00a8 8091 7A00 		lds r24,122
 240 00ac 8064      		ori r24,lo8(64)
 241 00ae 8093 7A00 		sts 122,r24
 242               	.L8:
  64:adc.c         ****     //  start conversions in free running mode
  65:adc.c         ****     while(adc_read <= 20){}
 243               		.stabn	68,0,65,.LM36-.LFBB7
 244               	.LM36:
 245 00b2 8091 0000 		lds r24,adc_read
 246 00b6 9091 0000 		lds r25,adc_read+1
 247 00ba 4597      		sbiw r24,21
 248 00bc 00F0      		brlo .L8
 249               	.L9:
  66:adc.c         ****         //  Waiting for the ADC to rise into the rectified waveform.
  67:adc.c         **** 	while(adc_read > 0){}
 250               		.stabn	68,0,67,.LM37-.LFBB7
 251               	.LM37:
 252 00be 8091 0000 		lds r24,adc_read
 253 00c2 9091 0000 		lds r25,adc_read+1
 254 00c6 892B      		or r24,r25
 255 00c8 01F4      		brne .L9
  68:adc.c         ****     //  The instant the ADC reaches 0 again, we are in phase, and can reset the timer.
  69:adc.c         ****     OCR0A = OFFSET;
 256               		.stabn	68,0,69,.LM38-.LFBB7
 257               	.LM38:
 258 00ca 8091 0000 		lds r24,OFFSET
 259 00ce 87BD      		out 0x27,r24
  70:adc.c         ****     init_timers();
 260               		.stabn	68,0,70,.LM39-.LFBB7
 261               	.LM39:
 262 00d0 0E94 0000 		call init_timers
  71:adc.c         ****     adts_enable();
 263               		.stabn	68,0,71,.LM40-.LFBB7
 264               	.LM40:
 265 00d4 0E94 0000 		call adts_enable
  72:adc.c         ****     ADMUX = 0x06;
 266               		.stabn	68,0,72,.LM41-.LFBB7
GAS LISTING /tmp/ccxyVAn8.s 			page 7


 267               	.LM41:
 268 00d8 86E0      		ldi r24,lo8(6)
 269 00da 8093 7C00 		sts 124,r24
  73:adc.c         ****     ADCSRA &= ~_BV(ADIE);
 270               		.stabn	68,0,73,.LM42-.LFBB7
 271               	.LM42:
 272 00de 8091 7A00 		lds r24,122
 273 00e2 877F      		andi r24,lo8(-9)
 274 00e4 8093 7A00 		sts 122,r24
  74:adc.c         ****     TIMSK0 |= _BV(OCIE0A);
 275               		.stabn	68,0,74,.LM43-.LFBB7
 276               	.LM43:
 277 00e8 8091 6E00 		lds r24,110
 278 00ec 8260      		ori r24,lo8(2)
 279 00ee 8093 6E00 		sts 110,r24
 280               	.L10:
  75:adc.c         ****     //ADCSRA &= ~_BV(ADIE);
  76:adc.c         ****     //  Reset timer 0 and turn off ADC interrupts
  77:adc.c         **** 	while(sync == false); //here we have reached a peak
 281               		.stabn	68,0,77,.LM44-.LFBB7
 282               	.LM44:
 283 00f2 8091 0000 		lds r24,sync
 284 00f6 8823      		tst r24
 285 00f8 01F0      		breq .L10
  78:adc.c         **** 	TCNT0 = 0; //reset timer count
 286               		.stabn	68,0,78,.LM45-.LFBB7
 287               	.LM45:
 288 00fa 16BC      		out 0x26,__zero_reg__
  79:adc.c         **** 	TCCR0B = 0x05;
 289               		.stabn	68,0,79,.LM46-.LFBB7
 290               	.LM46:
 291 00fc 85E0      		ldi r24,lo8(5)
 292 00fe 85BD      		out 0x25,r24
  80:adc.c         **** 	OCR0A = TIMER0_TOP;//output compare 1 cycle after the peak
 293               		.stabn	68,0,80,.LM47-.LFBB7
 294               	.LM47:
 295 0100 8091 0000 		lds r24,TIMER0_TOP
 296 0104 87BD      		out 0x27,r24
  81:adc.c         **** 	sync = false;
 297               		.stabn	68,0,81,.LM48-.LFBB7
 298               	.LM48:
 299 0106 1092 0000 		sts sync,__zero_reg__
  82:adc.c         ****     ADCSRA |= _BV(ADIE);
 300               		.stabn	68,0,82,.LM49-.LFBB7
 301               	.LM49:
 302 010a 8091 7A00 		lds r24,122
 303 010e 8860      		ori r24,lo8(8)
 304 0110 8093 7A00 		sts 122,r24
  83:adc.c         **** 	calibrating = false;
 305               		.stabn	68,0,83,.LM50-.LFBB7
 306               	.LM50:
 307 0114 1092 0000 		sts calibrating,__zero_reg__
  84:adc.c         ****     adc_rdy = false;
 308               		.stabn	68,0,84,.LM51-.LFBB7
 309               	.LM51:
 310 0118 1092 0000 		sts adc_rdy,__zero_reg__
 311               	/* epilogue start */
GAS LISTING /tmp/ccxyVAn8.s 			page 8


  85:adc.c         **** }
 312               		.stabn	68,0,85,.LM52-.LFBB7
 313               	.LM52:
 314 011c 0895      		ret
 315               		.size	calibrate_timer0, .-calibrate_timer0
 316               	.Lscope7:
 317               		.stabs	"",36,0,0,.Lscope7-.LFBB7
 318               		.stabs	"init_adc:F(0,1)",36,0,87,init_adc
 319               	.global	init_adc
 320               		.type	init_adc, @function
 321               	init_adc:
  86:adc.c         **** 
  87:adc.c         **** void init_adc(void){
 322               		.stabn	68,0,87,.LM53-.LFBB8
 323               	.LM53:
 324               	.LFBB8:
 325               	/* prologue: function */
 326               	/* frame size = 0 */
 327               	/* stack size = 0 */
 328               	.L__stack_usage = 0
  88:adc.c         ****     sei();
 329               		.stabn	68,0,88,.LM54-.LFBB8
 330               	.LM54:
 331               	/* #APP */
 332               	 ;  88 "adc.c" 1
 333 011e 7894      		sei
 334               	 ;  0 "" 2
  89:adc.c         ****     ADCSRA |= _BV(ADPS2) |_BV(ADPS1)/*|_BV(ADPS0)*/;
 335               		.stabn	68,0,89,.LM55-.LFBB8
 336               	.LM55:
 337               	/* #NOAPP */
 338 0120 EAE7      		ldi r30,lo8(122)
 339 0122 F0E0      		ldi r31,0
 340 0124 8081      		ld r24,Z
 341 0126 8660      		ori r24,lo8(6)
 342 0128 8083      		st Z,r24
  90:adc.c         ****     //  ADC ~200kHz
  91:adc.c         ****     ADCSRA |= _BV(ADEN);
 343               		.stabn	68,0,91,.LM56-.LFBB8
 344               	.LM56:
 345 012a 8081      		ld r24,Z
 346 012c 8068      		ori r24,lo8(-128)
 347 012e 8083      		st Z,r24
  92:adc.c         ****     //  Enable ADC
  93:adc.c         ****     calibrate_timer0();
 348               		.stabn	68,0,93,.LM57-.LFBB8
 349               	.LM57:
 350 0130 0C94 0000 		jmp calibrate_timer0
 351               		.size	init_adc, .-init_adc
 352               	.Lscope8:
 353               		.stabs	"",36,0,0,.Lscope8-.LFBB8
 354               	.global	OFFSET
 355               		.section .bss
 356               		.type	OFFSET, @object
 357               		.size	OFFSET, 1
 358               	OFFSET:
 359 0000 00        		.zero	1
GAS LISTING /tmp/ccxyVAn8.s 			page 9


 360               		.stabs	"OFFSET:G(0,2)",32,0,11,0
 361               	.global	TIMER0_TOP
 362               		.type	TIMER0_TOP, @object
 363               		.size	TIMER0_TOP, 1
 364               	TIMER0_TOP:
 365 0001 00        		.zero	1
 366               		.stabs	"TIMER0_TOP:G(0,2)",32,0,10,0
 367               	.global	adc_mux_rdy
 368               		.type	adc_mux_rdy, @object
 369               		.size	adc_mux_rdy, 1
 370               	adc_mux_rdy:
 371 0002 00        		.zero	1
 372               		.stabs	"adc_mux_rdy:G(0,6)=B(0,7)=@s8;-16;",32,0,9,0
 373               		.stabs	"_Bool:t(0,7)",128,0,0,0
 374               	.global	sync
 375               		.type	sync, @object
 376               		.size	sync, 1
 377               	sync:
 378 0003 00        		.zero	1
 379               		.stabs	"sync:G(0,6)",32,0,9,0
 380               	.global	adc_rdy
 381               		.type	adc_rdy, @object
 382               		.size	adc_rdy, 1
 383               	adc_rdy:
 384 0004 00        		.zero	1
 385               		.stabs	"adc_rdy:G(0,6)",32,0,9,0
 386               	.global	calibrating
 387               		.type	calibrating, @object
 388               		.size	calibrating, 1
 389               	calibrating:
 390 0005 00        		.zero	1
 391               		.stabs	"calibrating:G(0,6)",32,0,9,0
 392               	.global	adc_read
 393               		.type	adc_read, @object
 394               		.size	adc_read, 2
 395               	adc_read:
 396 0006 0000      		.zero	2
 397               		.stabs	"adc_read:G(0,8)=B(0,4)",32,0,8,0
 398               		.text
 399               		.stabs	"",100,0,0,.Letext0
 400               	.Letext0:
 401               		.ident	"GCC: (GNU) 11.2.0"
 402               	.global __do_clear_bss
GAS LISTING /tmp/ccxyVAn8.s 			page 10


DEFINED SYMBOLS
                            *ABS*:0000000000000000 adc.c
     /tmp/ccxyVAn8.s:2      *ABS*:000000000000003e __SP_H__
     /tmp/ccxyVAn8.s:3      *ABS*:000000000000003d __SP_L__
     /tmp/ccxyVAn8.s:4      *ABS*:000000000000003f __SREG__
     /tmp/ccxyVAn8.s:5      *ABS*:0000000000000000 __tmp_reg__
     /tmp/ccxyVAn8.s:6      *ABS*:0000000000000001 __zero_reg__
     /tmp/ccxyVAn8.s:18     .text:0000000000000000 init_timers
     /tmp/ccxyVAn8.s:63     .text:0000000000000022 adts_disable
     /tmp/ccxyVAn8.s:84     .text:0000000000000028 adts_enable
     /tmp/ccxyVAn8.s:116    .text:000000000000003a __vector_24
                            *ABS*:0000000000000001 __gcc_isr.n_pushed.001
     /tmp/ccxyVAn8.s:395    .bss:0000000000000006 adc_read
     /tmp/ccxyVAn8.s:383    .bss:0000000000000004 adc_rdy
     /tmp/ccxyVAn8.s:151    .text:000000000000005a __vector_16
                            *ABS*:0000000000000001 __gcc_isr.n_pushed.002
     /tmp/ccxyVAn8.s:377    .bss:0000000000000003 sync
     /tmp/ccxyVAn8.s:176    .text:0000000000000066 __vector_9
                            *ABS*:0000000000000003 __gcc_isr.n_pushed.003
     /tmp/ccxyVAn8.s:370    .bss:0000000000000002 adc_mux_rdy
     /tmp/ccxyVAn8.s:204    .text:0000000000000084 calibrate_timer0
     /tmp/ccxyVAn8.s:389    .bss:0000000000000005 calibrating
     /tmp/ccxyVAn8.s:358    .bss:0000000000000000 OFFSET
     /tmp/ccxyVAn8.s:364    .bss:0000000000000001 TIMER0_TOP
     /tmp/ccxyVAn8.s:321    .text:000000000000011e init_adc

UNDEFINED SYMBOLS
__do_clear_bss
